
/home/matheus-moreira/Documentos/Faculdade/2025.1/Rtos/Sistema_em_Tempo_Real-RTOS-/ProjetoFinalTeste/ProjetoFina_Bomba_agua/build/projetoFinal.elf:     file format elf32-littlearm

Sections:
Idx Name          Size      VMA       LMA       File off  Algn
  0 .boot2        00000100  10000000  10000000  00001000  2**0
                  CONTENTS, ALLOC, LOAD, READONLY, CODE
  1 .text         0000591c  10000100  10000100  00001100  2**3
                  CONTENTS, ALLOC, LOAD, READONLY, CODE
  2 .rodata       00000434  10005a1c  10005a1c  00006a1c  2**2
                  CONTENTS, ALLOC, LOAD, READONLY, DATA
  3 .binary_info  00000020  10005e50  10005e50  00006e50  2**2
                  CONTENTS, ALLOC, LOAD, READONLY, DATA
  4 .ram_vector_table 000000c0  20000000  20000000  00009000  2**2
                  ALLOC
  5 .uninitialized_data 00000000  200000c0  200000c0  0000804c  2**0
                  CONTENTS
  6 .data         00000f8c  200000c0  10005e70  000070c0  2**4
                  CONTENTS, ALLOC, LOAD, READONLY, CODE
  7 .tdata        00000000  2000104c  2000104c  0000804c  2**0
                  CONTENTS, ALLOC, LOAD, DATA, THREAD_LOCAL
  8 .tbss         00000000  2000104c  2000104c  00000000  2**0
                  ALLOC, THREAD_LOCAL
  9 .bss          00021394  20001050  10006dfc  00008050  2**3
                  ALLOC
 10 .heap         00000800  200223e4  200223e4  0000804c  2**2
                  CONTENTS, READONLY
 11 .scratch_x    00000000  20040000  20040000  0000884c  2**0
                  CONTENTS
 12 .scratch_y    00000000  20041000  20041000  0000884c  2**0
                  CONTENTS
 13 .stack1_dummy 00000800  20040000  20040000  00009000  2**2
                  ALLOC
 14 .stack_dummy  00000800  20041000  20041000  00008860  2**5
                  CONTENTS, READONLY
 15 .ARM.attributes 00000028  00000000  00000000  00009060  2**0
                  CONTENTS, READONLY
 16 .comment      00000026  00000000  00000000  00009088  2**0
                  CONTENTS, READONLY
 17 .debug_info   0003d1f5  00000000  00000000  000090ae  2**0
                  CONTENTS, READONLY, DEBUGGING, OCTETS
 18 .debug_abbrev 0000ae7c  00000000  00000000  000462a3  2**0
                  CONTENTS, READONLY, DEBUGGING, OCTETS
 19 .debug_loclists 00022f48  00000000  00000000  0005111f  2**0
                  CONTENTS, READONLY, DEBUGGING, OCTETS
 20 .debug_aranges 00001da8  00000000  00000000  00074068  2**3
                  CONTENTS, READONLY, DEBUGGING, OCTETS
 21 .debug_rnglists 000053ac  00000000  00000000  00075e10  2**0
                  CONTENTS, READONLY, DEBUGGING, OCTETS
 22 .debug_line   000306fb  00000000  00000000  0007b1bc  2**0
                  CONTENTS, READONLY, DEBUGGING, OCTETS
 23 .debug_str    0000bef3  00000000  00000000  000ab8b7  2**0
                  CONTENTS, READONLY, DEBUGGING, OCTETS
 24 .debug_frame  00004314  00000000  00000000  000b77ac  2**2
                  CONTENTS, READONLY, DEBUGGING, OCTETS
 25 .debug_line_str 0000044c  00000000  00000000  000bbac0  2**0
                  CONTENTS, READONLY, DEBUGGING, OCTETS

/home/matheus-moreira/Documentos/Faculdade/2025.1/Rtos/Sistema_em_Tempo_Real-RTOS-/ProjetoFinalTeste/ProjetoFina_Bomba_agua/build/projetoFinal.elf:     file format elf32-littlearm


Disassembly of section .boot2:

10000000 <__boot2_start__>:
10000000:	4b32b500 	.word	0x4b32b500
10000004:	60582021 	.word	0x60582021
10000008:	21026898 	.word	0x21026898
1000000c:	60984388 	.word	0x60984388
10000010:	611860d8 	.word	0x611860d8
10000014:	4b2e6158 	.word	0x4b2e6158
10000018:	60992100 	.word	0x60992100
1000001c:	61592102 	.word	0x61592102
10000020:	22f02101 	.word	0x22f02101
10000024:	492b5099 	.word	0x492b5099
10000028:	21016019 	.word	0x21016019
1000002c:	20356099 	.word	0x20356099
10000030:	f844f000 	.word	0xf844f000
10000034:	42902202 	.word	0x42902202
10000038:	2106d014 	.word	0x2106d014
1000003c:	f0006619 	.word	0xf0006619
10000040:	6e19f834 	.word	0x6e19f834
10000044:	66192101 	.word	0x66192101
10000048:	66182000 	.word	0x66182000
1000004c:	f000661a 	.word	0xf000661a
10000050:	6e19f82c 	.word	0x6e19f82c
10000054:	6e196e19 	.word	0x6e196e19
10000058:	f0002005 	.word	0xf0002005
1000005c:	2101f82f 	.word	0x2101f82f
10000060:	d1f94208 	.word	0xd1f94208
10000064:	60992100 	.word	0x60992100
10000068:	6019491b 	.word	0x6019491b
1000006c:	60592100 	.word	0x60592100
10000070:	481b491a 	.word	0x481b491a
10000074:	21016001 	.word	0x21016001
10000078:	21eb6099 	.word	0x21eb6099
1000007c:	21a06619 	.word	0x21a06619
10000080:	f0006619 	.word	0xf0006619
10000084:	2100f812 	.word	0x2100f812
10000088:	49166099 	.word	0x49166099
1000008c:	60014814 	.word	0x60014814
10000090:	60992101 	.word	0x60992101
10000094:	2800bc01 	.word	0x2800bc01
10000098:	4700d000 	.word	0x4700d000
1000009c:	49134812 	.word	0x49134812
100000a0:	c8036008 	.word	0xc8036008
100000a4:	8808f380 	.word	0x8808f380
100000a8:	b5034708 	.word	0xb5034708
100000ac:	20046a99 	.word	0x20046a99
100000b0:	d0fb4201 	.word	0xd0fb4201
100000b4:	42012001 	.word	0x42012001
100000b8:	bd03d1f8 	.word	0xbd03d1f8
100000bc:	6618b502 	.word	0x6618b502
100000c0:	f7ff6618 	.word	0xf7ff6618
100000c4:	6e18fff2 	.word	0x6e18fff2
100000c8:	bd026e18 	.word	0xbd026e18
100000cc:	40020000 	.word	0x40020000
100000d0:	18000000 	.word	0x18000000
100000d4:	00070000 	.word	0x00070000
100000d8:	005f0300 	.word	0x005f0300
100000dc:	00002221 	.word	0x00002221
100000e0:	180000f4 	.word	0x180000f4
100000e4:	a0002022 	.word	0xa0002022
100000e8:	10000100 	.word	0x10000100
100000ec:	e000ed08 	.word	0xe000ed08
	...
100000fc:	7a4eb274 	.word	0x7a4eb274

Disassembly of section .text:

10000100 <__VECTOR_TABLE>:
10000100:	20042000 	.word	0x20042000
10000104:	100001f7 	.word	0x100001f7
10000108:	100001c3 	.word	0x100001c3
1000010c:	100001c5 	.word	0x100001c5
10000110:	100001c1 	.word	0x100001c1
10000114:	100001c1 	.word	0x100001c1
10000118:	100001c1 	.word	0x100001c1
1000011c:	100001c1 	.word	0x100001c1
10000120:	100001c1 	.word	0x100001c1
10000124:	100001c1 	.word	0x100001c1
10000128:	100001c1 	.word	0x100001c1
1000012c:	100001c7 	.word	0x100001c7
10000130:	100001c1 	.word	0x100001c1
10000134:	100001c1 	.word	0x100001c1
10000138:	100001c9 	.word	0x100001c9
1000013c:	100001cb 	.word	0x100001cb
10000140:	100001cd 	.word	0x100001cd
10000144:	100001cd 	.word	0x100001cd
10000148:	100001cd 	.word	0x100001cd
1000014c:	100001cd 	.word	0x100001cd
10000150:	100001cd 	.word	0x100001cd
10000154:	100001cd 	.word	0x100001cd
10000158:	100001cd 	.word	0x100001cd
1000015c:	100001cd 	.word	0x100001cd
10000160:	100001cd 	.word	0x100001cd
10000164:	100001cd 	.word	0x100001cd
10000168:	100001cd 	.word	0x100001cd
1000016c:	100001cd 	.word	0x100001cd
10000170:	100001cd 	.word	0x100001cd
10000174:	100001cd 	.word	0x100001cd
10000178:	100001cd 	.word	0x100001cd
1000017c:	100001cd 	.word	0x100001cd
10000180:	100001cd 	.word	0x100001cd
10000184:	100001cd 	.word	0x100001cd
10000188:	100001cd 	.word	0x100001cd
1000018c:	100001cd 	.word	0x100001cd
10000190:	100001cd 	.word	0x100001cd
10000194:	100001cd 	.word	0x100001cd
10000198:	100001cd 	.word	0x100001cd
1000019c:	100001cd 	.word	0x100001cd
100001a0:	100001cd 	.word	0x100001cd
100001a4:	100001cd 	.word	0x100001cd
100001a8:	100001cd 	.word	0x100001cd
100001ac:	100001cd 	.word	0x100001cd
100001b0:	100001cd 	.word	0x100001cd
100001b4:	100001cd 	.word	0x100001cd
100001b8:	100001cd 	.word	0x100001cd
100001bc:	100001cd 	.word	0x100001cd

100001c0 <isr_invalid>:
100001c0:	be00      	bkpt	0x0000

100001c2 <isr_nmi>:
100001c2:	be00      	bkpt	0x0000

100001c4 <isr_hardfault>:
100001c4:	be00      	bkpt	0x0000

100001c6 <isr_svcall>:
100001c6:	be00      	bkpt	0x0000

100001c8 <isr_pendsv>:
100001c8:	be00      	bkpt	0x0000

100001ca <isr_systick>:
100001ca:	be00      	bkpt	0x0000

100001cc <__unhandled_user_irq>:
100001cc:	f3ef 8005 	mrs	r0, IPSR
100001d0:	3810      	subs	r0, #16

100001d2 <unhandled_user_irq_num_in_r0>:
100001d2:	be00      	bkpt	0x0000

100001d4 <binary_info_header>:
100001d4:	7188ebf2 	.word	0x7188ebf2
100001d8:	10005e50 	.word	0x10005e50
100001dc:	10005e70 	.word	0x10005e70
100001e0:	10000238 	.word	0x10000238
100001e4:	e71aa390 	.word	0xe71aa390

100001e8 <_entry_point>:
100001e8:	481e      	ldr	r0, [pc, #120]	@ (10000264 <data_cpy_table+0x2c>)

100001ea <_enter_vtable_in_r0>:
100001ea:	491f      	ldr	r1, [pc, #124]	@ (10000268 <data_cpy_table+0x30>)
100001ec:	6008      	str	r0, [r1, #0]
100001ee:	c806      	ldmia	r0!, {r1, r2}
100001f0:	f381 8808 	msr	MSP, r1
100001f4:	4710      	bx	r2

100001f6 <_reset_handler>:
100001f6:	481d      	ldr	r0, [pc, #116]	@ (1000026c <data_cpy_table+0x34>)
100001f8:	6800      	ldr	r0, [r0, #0]
100001fa:	2800      	cmp	r0, #0
100001fc:	d001      	beq.n	10000202 <hold_non_core0_in_bootrom+0x4>

100001fe <hold_non_core0_in_bootrom>:
100001fe:	4819      	ldr	r0, [pc, #100]	@ (10000264 <data_cpy_table+0x2c>)
10000200:	e7f3      	b.n	100001ea <_enter_vtable_in_r0>
10000202:	a40d      	add	r4, pc, #52	@ (adr r4, 10000238 <data_cpy_table>)
10000204:	cc0e      	ldmia	r4!, {r1, r2, r3}
10000206:	2900      	cmp	r1, #0
10000208:	d002      	beq.n	10000210 <hold_non_core0_in_bootrom+0x12>
1000020a:	f000 f812 	bl	10000232 <data_cpy>
1000020e:	e7f9      	b.n	10000204 <hold_non_core0_in_bootrom+0x6>
10000210:	4917      	ldr	r1, [pc, #92]	@ (10000270 <data_cpy_table+0x38>)
10000212:	4a18      	ldr	r2, [pc, #96]	@ (10000274 <data_cpy_table+0x3c>)
10000214:	2000      	movs	r0, #0
10000216:	e000      	b.n	1000021a <bss_fill_test>

10000218 <bss_fill_loop>:
10000218:	c101      	stmia	r1!, {r0}

1000021a <bss_fill_test>:
1000021a:	4291      	cmp	r1, r2
1000021c:	d1fc      	bne.n	10000218 <bss_fill_loop>

1000021e <platform_entry>:
1000021e:	4916      	ldr	r1, [pc, #88]	@ (10000278 <data_cpy_table+0x40>)
10000220:	4788      	blx	r1
10000222:	4916      	ldr	r1, [pc, #88]	@ (1000027c <data_cpy_table+0x44>)
10000224:	4788      	blx	r1
10000226:	4916      	ldr	r1, [pc, #88]	@ (10000280 <data_cpy_table+0x48>)
10000228:	4788      	blx	r1
1000022a:	be00      	bkpt	0x0000
1000022c:	e7fd      	b.n	1000022a <platform_entry+0xc>

1000022e <data_cpy_loop>:
1000022e:	c901      	ldmia	r1!, {r0}
10000230:	c201      	stmia	r2!, {r0}

10000232 <data_cpy>:
10000232:	429a      	cmp	r2, r3
10000234:	d3fb      	bcc.n	1000022e <data_cpy_loop>
10000236:	4770      	bx	lr

10000238 <data_cpy_table>:
10000238:	10005e70 	.word	0x10005e70
1000023c:	200000c0 	.word	0x200000c0
10000240:	2000104c 	.word	0x2000104c
10000244:	10006dfc 	.word	0x10006dfc
10000248:	20040000 	.word	0x20040000
1000024c:	20040000 	.word	0x20040000
10000250:	10006dfc 	.word	0x10006dfc
10000254:	20041000 	.word	0x20041000
10000258:	20041000 	.word	0x20041000
1000025c:	00000000 	.word	0x00000000
10000260:	4770      	bx	lr
10000262:	0000      	.short	0x0000
10000264:	00000000 	.word	0x00000000
10000268:	e000ed08 	.word	0xe000ed08
1000026c:	d0000000 	.word	0xd0000000
10000270:	2000104c 	.word	0x2000104c
10000274:	200223e4 	.word	0x200223e4
10000278:	10001e9d 	.word	0x10001e9d
1000027c:	10000345 	.word	0x10000345
10000280:	10001e95 	.word	0x10001e95

10000284 <_init>:
10000284:	b5f8      	push	{r3, r4, r5, r6, r7, lr}
10000286:	46c0      	nop			@ (mov r8, r8)

10000288 <deregister_tm_clones>:
10000288:	4804      	ldr	r0, [pc, #16]	@ (1000029c <deregister_tm_clones+0x14>)
1000028a:	4b05      	ldr	r3, [pc, #20]	@ (100002a0 <deregister_tm_clones+0x18>)
1000028c:	b510      	push	{r4, lr}
1000028e:	4283      	cmp	r3, r0
10000290:	d003      	beq.n	1000029a <deregister_tm_clones+0x12>
10000292:	4b04      	ldr	r3, [pc, #16]	@ (100002a4 <deregister_tm_clones+0x1c>)
10000294:	2b00      	cmp	r3, #0
10000296:	d000      	beq.n	1000029a <deregister_tm_clones+0x12>
10000298:	4798      	blx	r3
1000029a:	bd10      	pop	{r4, pc}
1000029c:	2000104c 	.word	0x2000104c
100002a0:	2000104c 	.word	0x2000104c
100002a4:	00000000 	.word	0x00000000

100002a8 <register_tm_clones>:
100002a8:	4806      	ldr	r0, [pc, #24]	@ (100002c4 <register_tm_clones+0x1c>)
100002aa:	4907      	ldr	r1, [pc, #28]	@ (100002c8 <register_tm_clones+0x20>)
100002ac:	1a09      	subs	r1, r1, r0
100002ae:	108b      	asrs	r3, r1, #2
100002b0:	0fc9      	lsrs	r1, r1, #31
100002b2:	18c9      	adds	r1, r1, r3
100002b4:	b510      	push	{r4, lr}
100002b6:	1049      	asrs	r1, r1, #1
100002b8:	d003      	beq.n	100002c2 <register_tm_clones+0x1a>
100002ba:	4b04      	ldr	r3, [pc, #16]	@ (100002cc <register_tm_clones+0x24>)
100002bc:	2b00      	cmp	r3, #0
100002be:	d000      	beq.n	100002c2 <register_tm_clones+0x1a>
100002c0:	4798      	blx	r3
100002c2:	bd10      	pop	{r4, pc}
100002c4:	2000104c 	.word	0x2000104c
100002c8:	2000104c 	.word	0x2000104c
100002cc:	00000000 	.word	0x00000000

100002d0 <__do_global_dtors_aux>:
100002d0:	b510      	push	{r4, lr}
100002d2:	4c07      	ldr	r4, [pc, #28]	@ (100002f0 <__do_global_dtors_aux+0x20>)
100002d4:	7823      	ldrb	r3, [r4, #0]
100002d6:	2b00      	cmp	r3, #0
100002d8:	d109      	bne.n	100002ee <__do_global_dtors_aux+0x1e>
100002da:	f7ff ffd5 	bl	10000288 <deregister_tm_clones>
100002de:	4b05      	ldr	r3, [pc, #20]	@ (100002f4 <__do_global_dtors_aux+0x24>)
100002e0:	2b00      	cmp	r3, #0
100002e2:	d002      	beq.n	100002ea <__do_global_dtors_aux+0x1a>
100002e4:	4804      	ldr	r0, [pc, #16]	@ (100002f8 <__do_global_dtors_aux+0x28>)
100002e6:	e000      	b.n	100002ea <__do_global_dtors_aux+0x1a>
100002e8:	bf00      	nop
100002ea:	2301      	movs	r3, #1
100002ec:	7023      	strb	r3, [r4, #0]
100002ee:	bd10      	pop	{r4, pc}
100002f0:	200013d8 	.word	0x200013d8
100002f4:	00000000 	.word	0x00000000
100002f8:	10005a1c 	.word	0x10005a1c

100002fc <frame_dummy>:
100002fc:	4b05      	ldr	r3, [pc, #20]	@ (10000314 <frame_dummy+0x18>)
100002fe:	b510      	push	{r4, lr}
10000300:	2b00      	cmp	r3, #0
10000302:	d003      	beq.n	1000030c <frame_dummy+0x10>
10000304:	4904      	ldr	r1, [pc, #16]	@ (10000318 <frame_dummy+0x1c>)
10000306:	4805      	ldr	r0, [pc, #20]	@ (1000031c <frame_dummy+0x20>)
10000308:	e000      	b.n	1000030c <frame_dummy+0x10>
1000030a:	bf00      	nop
1000030c:	f7ff ffcc 	bl	100002a8 <register_tm_clones>
10000310:	bd10      	pop	{r4, pc}
10000312:	46c0      	nop			@ (mov r8, r8)
10000314:	00000000 	.word	0x00000000
10000318:	200013dc 	.word	0x200013dc
1000031c:	10005a1c 	.word	0x10005a1c

10000320 <bomba_init>:
10000320:	b510      	push	{r4, lr}
10000322:	2011      	movs	r0, #17
10000324:	f000 f86e 	bl	10000404 <gpio_init>
10000328:	24d0      	movs	r4, #208	@ 0xd0
1000032a:	2380      	movs	r3, #128	@ 0x80
1000032c:	0624      	lsls	r4, r4, #24
1000032e:	029b      	lsls	r3, r3, #10
10000330:	6263      	str	r3, [r4, #36]	@ 0x24
10000332:	2010      	movs	r0, #16
10000334:	61a3      	str	r3, [r4, #24]
10000336:	f000 f865 	bl	10000404 <gpio_init>
1000033a:	2380      	movs	r3, #128	@ 0x80
1000033c:	025b      	lsls	r3, r3, #9
1000033e:	6263      	str	r3, [r4, #36]	@ 0x24
10000340:	61a3      	str	r3, [r4, #24]
10000342:	bd10      	pop	{r4, pc}

10000344 <main>:
10000344:	b5f8      	push	{r3, r4, r5, r6, r7, lr}
10000346:	46ce      	mov	lr, r9
10000348:	4647      	mov	r7, r8
1000034a:	25d0      	movs	r5, #208	@ 0xd0
1000034c:	2680      	movs	r6, #128	@ 0x80
1000034e:	b580      	push	{r7, lr}
10000350:	f001 fea4 	bl	1000209c <stdio_init_all>
10000354:	062d      	lsls	r5, r5, #24
10000356:	f7ff ffe3 	bl	10000320 <bomba_init>
1000035a:	02f6      	lsls	r6, r6, #11
1000035c:	2012      	movs	r0, #18
1000035e:	f000 f851 	bl	10000404 <gpio_init>
10000362:	2200      	movs	r2, #0
10000364:	2101      	movs	r1, #1
10000366:	2012      	movs	r0, #18
10000368:	62ae      	str	r6, [r5, #40]	@ 0x28
1000036a:	f000 f837 	bl	100003dc <gpio_set_pulls>
1000036e:	4b18      	ldr	r3, [pc, #96]	@ (100003d0 <main+0x8c>)
10000370:	2201      	movs	r2, #1
10000372:	4699      	mov	r9, r3
10000374:	4b17      	ldr	r3, [pc, #92]	@ (100003d4 <main+0x90>)
10000376:	4f18      	ldr	r7, [pc, #96]	@ (100003d8 <main+0x94>)
10000378:	4698      	mov	r8, r3
1000037a:	e010      	b.n	1000039e <main+0x5a>
1000037c:	2380      	movs	r3, #128	@ 0x80
1000037e:	029b      	lsls	r3, r3, #10
10000380:	616b      	str	r3, [r5, #20]
10000382:	2380      	movs	r3, #128	@ 0x80
10000384:	025b      	lsls	r3, r3, #9
10000386:	4648      	mov	r0, r9
10000388:	61ab      	str	r3, [r5, #24]
1000038a:	f001 fed7 	bl	1000213c <__wrap_puts>
1000038e:	2096      	movs	r0, #150	@ 0x96
10000390:	0040      	lsls	r0, r0, #1
10000392:	f000 fead 	bl	100010f0 <sleep_ms>
10000396:	200a      	movs	r0, #10
10000398:	f000 feaa 	bl	100010f0 <sleep_ms>
1000039c:	0022      	movs	r2, r4
1000039e:	686b      	ldr	r3, [r5, #4]
100003a0:	4033      	ands	r3, r6
100003a2:	001c      	movs	r4, r3
100003a4:	1e61      	subs	r1, r4, #1
100003a6:	418c      	sbcs	r4, r1
100003a8:	b2e4      	uxtb	r4, r4
100003aa:	2a00      	cmp	r2, #0
100003ac:	d0f3      	beq.n	10000396 <main+0x52>
100003ae:	2b00      	cmp	r3, #0
100003b0:	d1f1      	bne.n	10000396 <main+0x52>
100003b2:	2201      	movs	r2, #1
100003b4:	783b      	ldrb	r3, [r7, #0]
100003b6:	4053      	eors	r3, r2
100003b8:	703b      	strb	r3, [r7, #0]
100003ba:	d1df      	bne.n	1000037c <main+0x38>
100003bc:	2380      	movs	r3, #128	@ 0x80
100003be:	029b      	lsls	r3, r3, #10
100003c0:	61ab      	str	r3, [r5, #24]
100003c2:	2380      	movs	r3, #128	@ 0x80
100003c4:	025b      	lsls	r3, r3, #9
100003c6:	4640      	mov	r0, r8
100003c8:	61ab      	str	r3, [r5, #24]
100003ca:	f001 feb7 	bl	1000213c <__wrap_puts>
100003ce:	e7de      	b.n	1000038e <main+0x4a>
100003d0:	10005a1c 	.word	0x10005a1c
100003d4:	10005a2c 	.word	0x10005a2c
100003d8:	200223db 	.word	0x200223db

100003dc <gpio_set_pulls>:
100003dc:	4b07      	ldr	r3, [pc, #28]	@ (100003fc <gpio_set_pulls+0x20>)
100003de:	0080      	lsls	r0, r0, #2
100003e0:	18c3      	adds	r3, r0, r3
100003e2:	681b      	ldr	r3, [r3, #0]
100003e4:	00c9      	lsls	r1, r1, #3
100003e6:	0092      	lsls	r2, r2, #2
100003e8:	430a      	orrs	r2, r1
100003ea:	405a      	eors	r2, r3
100003ec:	230c      	movs	r3, #12
100003ee:	4013      	ands	r3, r2
100003f0:	4a03      	ldr	r2, [pc, #12]	@ (10000400 <gpio_set_pulls+0x24>)
100003f2:	4694      	mov	ip, r2
100003f4:	4460      	add	r0, ip
100003f6:	6003      	str	r3, [r0, #0]
100003f8:	4770      	bx	lr
100003fa:	46c0      	nop			@ (mov r8, r8)
100003fc:	4001c004 	.word	0x4001c004
10000400:	4001d004 	.word	0x4001d004

10000404 <gpio_init>:
10000404:	2301      	movs	r3, #1
10000406:	22d0      	movs	r2, #208	@ 0xd0
10000408:	4083      	lsls	r3, r0
1000040a:	0612      	lsls	r2, r2, #24
1000040c:	6293      	str	r3, [r2, #40]	@ 0x28
1000040e:	6193      	str	r3, [r2, #24]
10000410:	4a09      	ldr	r2, [pc, #36]	@ (10000438 <gpio_init+0x34>)
10000412:	0083      	lsls	r3, r0, #2
10000414:	189a      	adds	r2, r3, r2
10000416:	6811      	ldr	r1, [r2, #0]
10000418:	2240      	movs	r2, #64	@ 0x40
1000041a:	4051      	eors	r1, r2
1000041c:	3280      	adds	r2, #128	@ 0x80
1000041e:	400a      	ands	r2, r1
10000420:	4906      	ldr	r1, [pc, #24]	@ (1000043c <gpio_init+0x38>)
10000422:	00c0      	lsls	r0, r0, #3
10000424:	468c      	mov	ip, r1
10000426:	4463      	add	r3, ip
10000428:	601a      	str	r2, [r3, #0]
1000042a:	4b05      	ldr	r3, [pc, #20]	@ (10000440 <gpio_init+0x3c>)
1000042c:	469c      	mov	ip, r3
1000042e:	2305      	movs	r3, #5
10000430:	4460      	add	r0, ip
10000432:	6043      	str	r3, [r0, #4]
10000434:	4770      	bx	lr
10000436:	46c0      	nop			@ (mov r8, r8)
10000438:	4001c004 	.word	0x4001c004
1000043c:	4001d004 	.word	0x4001d004
10000440:	40014000 	.word	0x40014000

10000444 <rp2040_chip_version>:
10000444:	2380      	movs	r3, #128	@ 0x80
10000446:	05db      	lsls	r3, r3, #23
10000448:	6818      	ldr	r0, [r3, #0]
1000044a:	0f00      	lsrs	r0, r0, #28
1000044c:	4770      	bx	lr
1000044e:	46c0      	nop			@ (mov r8, r8)

10000450 <panic>:
10000450:	b40f      	push	{r0, r1, r2, r3}
10000452:	b500      	push	{lr}
10000454:	4808      	ldr	r0, [pc, #32]	@ (10000478 <panic+0x28>)
10000456:	b083      	sub	sp, #12
10000458:	f001 fe70 	bl	1000213c <__wrap_puts>
1000045c:	9b04      	ldr	r3, [sp, #16]
1000045e:	2b00      	cmp	r3, #0
10000460:	d007      	beq.n	10000472 <panic+0x22>
10000462:	a905      	add	r1, sp, #20
10000464:	0018      	movs	r0, r3
10000466:	9101      	str	r1, [sp, #4]
10000468:	f001 fcfa 	bl	10001e60 <weak_raw_vprintf>
1000046c:	4803      	ldr	r0, [pc, #12]	@ (1000047c <panic+0x2c>)
1000046e:	f001 fe65 	bl	1000213c <__wrap_puts>
10000472:	2001      	movs	r0, #1
10000474:	f001 fd0c 	bl	10001e90 <_exit>
10000478:	10005a3c 	.word	0x10005a3c
1000047c:	10005a4c 	.word	0x10005a4c

10000480 <hw_claim_or_assert>:
10000480:	b570      	push	{r4, r5, r6, lr}
10000482:	f3ef 8c10 	mrs	ip, PRIMASK
10000486:	b672      	cpsid	i
10000488:	4d0d      	ldr	r5, [pc, #52]	@ (100004c0 <hw_claim_or_assert+0x40>)
1000048a:	682b      	ldr	r3, [r5, #0]
1000048c:	2b00      	cmp	r3, #0
1000048e:	d0fc      	beq.n	1000048a <hw_claim_or_assert+0xa>
10000490:	f3bf 8f5f 	dmb	sy
10000494:	2407      	movs	r4, #7
10000496:	08cb      	lsrs	r3, r1, #3
10000498:	18c6      	adds	r6, r0, r3
1000049a:	5cc0      	ldrb	r0, [r0, r3]
1000049c:	2301      	movs	r3, #1
1000049e:	400c      	ands	r4, r1
100004a0:	40a3      	lsls	r3, r4
100004a2:	001c      	movs	r4, r3
100004a4:	4004      	ands	r4, r0
100004a6:	4203      	tst	r3, r0
100004a8:	d107      	bne.n	100004ba <hw_claim_or_assert+0x3a>
100004aa:	4318      	orrs	r0, r3
100004ac:	7030      	strb	r0, [r6, #0]
100004ae:	f3bf 8f5f 	dmb	sy
100004b2:	602c      	str	r4, [r5, #0]
100004b4:	f38c 8810 	msr	PRIMASK, ip
100004b8:	bd70      	pop	{r4, r5, r6, pc}
100004ba:	0010      	movs	r0, r2
100004bc:	f7ff ffc8 	bl	10000450 <panic>
100004c0:	d000012c 	.word	0xd000012c

100004c4 <hw_claim_unused_from_range>:
100004c4:	b5f8      	push	{r3, r4, r5, r6, r7, lr}
100004c6:	4647      	mov	r7, r8
100004c8:	46ce      	mov	lr, r9
100004ca:	4688      	mov	r8, r1
100004cc:	b580      	push	{r7, lr}
100004ce:	f3ef 8c10 	mrs	ip, PRIMASK
100004d2:	b672      	cpsid	i
100004d4:	4d21      	ldr	r5, [pc, #132]	@ (1000055c <hw_claim_unused_from_range+0x98>)
100004d6:	682c      	ldr	r4, [r5, #0]
100004d8:	2c00      	cmp	r4, #0
100004da:	d0fc      	beq.n	100004d6 <hw_claim_unused_from_range+0x12>
100004dc:	f3bf 8f5f 	dmb	sy
100004e0:	429a      	cmp	r2, r3
100004e2:	d82c      	bhi.n	1000053e <hw_claim_unused_from_range+0x7a>
100004e4:	08d4      	lsrs	r4, r2, #3
100004e6:	2707      	movs	r7, #7
100004e8:	5d05      	ldrb	r5, [r0, r4]
100004ea:	1906      	adds	r6, r0, r4
100004ec:	2401      	movs	r4, #1
100004ee:	4017      	ands	r7, r2
100004f0:	40bc      	lsls	r4, r7
100004f2:	422c      	tst	r4, r5
100004f4:	d01f      	beq.n	10000536 <hw_claim_unused_from_range+0x72>
100004f6:	2107      	movs	r1, #7
100004f8:	2701      	movs	r7, #1
100004fa:	4689      	mov	r9, r1
100004fc:	e009      	b.n	10000512 <hw_claim_unused_from_range+0x4e>
100004fe:	08d4      	lsrs	r4, r2, #3
10000500:	5d05      	ldrb	r5, [r0, r4]
10000502:	1906      	adds	r6, r0, r4
10000504:	464c      	mov	r4, r9
10000506:	0039      	movs	r1, r7
10000508:	4014      	ands	r4, r2
1000050a:	40a1      	lsls	r1, r4
1000050c:	000c      	movs	r4, r1
1000050e:	4229      	tst	r1, r5
10000510:	d011      	beq.n	10000536 <hw_claim_unused_from_range+0x72>
10000512:	3201      	adds	r2, #1
10000514:	4293      	cmp	r3, r2
10000516:	d2f2      	bcs.n	100004fe <hw_claim_unused_from_range+0x3a>
10000518:	2001      	movs	r0, #1
1000051a:	4240      	negs	r0, r0
1000051c:	f3bf 8f5f 	dmb	sy
10000520:	2200      	movs	r2, #0
10000522:	4b0e      	ldr	r3, [pc, #56]	@ (1000055c <hw_claim_unused_from_range+0x98>)
10000524:	601a      	str	r2, [r3, #0]
10000526:	f38c 8810 	msr	PRIMASK, ip
1000052a:	2800      	cmp	r0, #0
1000052c:	db0f      	blt.n	1000054e <hw_claim_unused_from_range+0x8a>
1000052e:	bcc0      	pop	{r6, r7}
10000530:	46b9      	mov	r9, r7
10000532:	46b0      	mov	r8, r6
10000534:	bdf8      	pop	{r3, r4, r5, r6, r7, pc}
10000536:	4325      	orrs	r5, r4
10000538:	0010      	movs	r0, r2
1000053a:	7035      	strb	r5, [r6, #0]
1000053c:	e7ee      	b.n	1000051c <hw_claim_unused_from_range+0x58>
1000053e:	f3bf 8f5f 	dmb	sy
10000542:	2300      	movs	r3, #0
10000544:	602b      	str	r3, [r5, #0]
10000546:	f38c 8810 	msr	PRIMASK, ip
1000054a:	2001      	movs	r0, #1
1000054c:	4240      	negs	r0, r0
1000054e:	4643      	mov	r3, r8
10000550:	2b00      	cmp	r3, #0
10000552:	d0ec      	beq.n	1000052e <hw_claim_unused_from_range+0x6a>
10000554:	9808      	ldr	r0, [sp, #32]
10000556:	f7ff ff7b 	bl	10000450 <panic>
1000055a:	46c0      	nop			@ (mov r8, r8)
1000055c:	d000012c 	.word	0xd000012c

10000560 <next_striped_spin_lock_num>:
10000560:	4a04      	ldr	r2, [pc, #16]	@ (10000574 <next_striped_spin_lock_num+0x14>)
10000562:	7810      	ldrb	r0, [r2, #0]
10000564:	1c43      	adds	r3, r0, #1
10000566:	b2db      	uxtb	r3, r3
10000568:	2b17      	cmp	r3, #23
1000056a:	d900      	bls.n	1000056e <next_striped_spin_lock_num+0xe>
1000056c:	2310      	movs	r3, #16
1000056e:	7013      	strb	r3, [r2, #0]
10000570:	4770      	bx	lr
10000572:	46c0      	nop			@ (mov r8, r8)
10000574:	20000f70 	.word	0x20000f70

10000578 <spin_lock_claim_unused>:
10000578:	b510      	push	{r4, lr}
1000057a:	4b06      	ldr	r3, [pc, #24]	@ (10000594 <spin_lock_claim_unused+0x1c>)
1000057c:	4c06      	ldr	r4, [pc, #24]	@ (10000598 <spin_lock_claim_unused+0x20>)
1000057e:	b082      	sub	sp, #8
10000580:	0001      	movs	r1, r0
10000582:	9300      	str	r3, [sp, #0]
10000584:	2218      	movs	r2, #24
10000586:	231f      	movs	r3, #31
10000588:	0020      	movs	r0, r4
1000058a:	f7ff ff9b 	bl	100004c4 <hw_claim_unused_from_range>
1000058e:	b002      	add	sp, #8
10000590:	bd10      	pop	{r4, pc}
10000592:	46c0      	nop			@ (mov r8, r8)
10000594:	10005a50 	.word	0x10005a50
10000598:	20001c24 	.word	0x20001c24

1000059c <spin_locks_reset>:
1000059c:	2100      	movs	r1, #0
1000059e:	4b04      	ldr	r3, [pc, #16]	@ (100005b0 <spin_locks_reset+0x14>)
100005a0:	4a04      	ldr	r2, [pc, #16]	@ (100005b4 <spin_locks_reset+0x18>)
100005a2:	f3bf 8f5f 	dmb	sy
100005a6:	c302      	stmia	r3!, {r1}
100005a8:	4293      	cmp	r3, r2
100005aa:	d1fa      	bne.n	100005a2 <spin_locks_reset+0x6>
100005ac:	4770      	bx	lr
100005ae:	46c0      	nop			@ (mov r8, r8)
100005b0:	d0000100 	.word	0xd0000100
100005b4:	d0000180 	.word	0xd0000180

100005b8 <runtime_init_per_core_irq_priorities>:
100005b8:	4b05      	ldr	r3, [pc, #20]	@ (100005d0 <runtime_init_per_core_irq_priorities+0x18>)
100005ba:	4a06      	ldr	r2, [pc, #24]	@ (100005d4 <runtime_init_per_core_irq_priorities+0x1c>)
100005bc:	6013      	str	r3, [r2, #0]
100005be:	4a06      	ldr	r2, [pc, #24]	@ (100005d8 <runtime_init_per_core_irq_priorities+0x20>)
100005c0:	6013      	str	r3, [r2, #0]
100005c2:	6053      	str	r3, [r2, #4]
100005c4:	6093      	str	r3, [r2, #8]
100005c6:	60d3      	str	r3, [r2, #12]
100005c8:	6113      	str	r3, [r2, #16]
100005ca:	6153      	str	r3, [r2, #20]
100005cc:	6193      	str	r3, [r2, #24]
100005ce:	4770      	bx	lr
100005d0:	80808080 	.word	0x80808080
100005d4:	e000e400 	.word	0xe000e400
100005d8:	e000e404 	.word	0xe000e404

100005dc <irq_set_enabled>:
100005dc:	231f      	movs	r3, #31
100005de:	4018      	ands	r0, r3
100005e0:	3b1e      	subs	r3, #30
100005e2:	4083      	lsls	r3, r0
100005e4:	2900      	cmp	r1, #0
100005e6:	d005      	beq.n	100005f4 <irq_set_enabled+0x18>
100005e8:	21c0      	movs	r1, #192	@ 0xc0
100005ea:	4a04      	ldr	r2, [pc, #16]	@ (100005fc <irq_set_enabled+0x20>)
100005ec:	0049      	lsls	r1, r1, #1
100005ee:	5053      	str	r3, [r2, r1]
100005f0:	6013      	str	r3, [r2, #0]
100005f2:	4770      	bx	lr
100005f4:	2280      	movs	r2, #128	@ 0x80
100005f6:	4901      	ldr	r1, [pc, #4]	@ (100005fc <irq_set_enabled+0x20>)
100005f8:	508b      	str	r3, [r1, r2]
100005fa:	e7fa      	b.n	100005f2 <irq_set_enabled+0x16>
100005fc:	e000e100 	.word	0xe000e100

10000600 <irq_is_enabled>:
10000600:	2201      	movs	r2, #1
10000602:	4082      	lsls	r2, r0
10000604:	4b03      	ldr	r3, [pc, #12]	@ (10000614 <irq_is_enabled+0x14>)
10000606:	681b      	ldr	r3, [r3, #0]
10000608:	4013      	ands	r3, r2
1000060a:	1e5a      	subs	r2, r3, #1
1000060c:	4193      	sbcs	r3, r2
1000060e:	b2d8      	uxtb	r0, r3
10000610:	4770      	bx	lr
10000612:	46c0      	nop			@ (mov r8, r8)
10000614:	e000e100 	.word	0xe000e100

10000618 <irq_set_pending>:
10000618:	2301      	movs	r3, #1
1000061a:	4083      	lsls	r3, r0
1000061c:	4a01      	ldr	r2, [pc, #4]	@ (10000624 <irq_set_pending+0xc>)
1000061e:	6013      	str	r3, [r2, #0]
10000620:	4770      	bx	lr
10000622:	46c0      	nop			@ (mov r8, r8)
10000624:	e000e200 	.word	0xe000e200

10000628 <irq_has_shared_handler>:
10000628:	4b06      	ldr	r3, [pc, #24]	@ (10000644 <irq_has_shared_handler+0x1c>)
1000062a:	3010      	adds	r0, #16
1000062c:	689b      	ldr	r3, [r3, #8]
1000062e:	0080      	lsls	r0, r0, #2
10000630:	58c3      	ldr	r3, [r0, r3]
10000632:	4a05      	ldr	r2, [pc, #20]	@ (10000648 <irq_has_shared_handler+0x20>)
10000634:	2000      	movs	r0, #0
10000636:	1a9b      	subs	r3, r3, r2
10000638:	222f      	movs	r2, #47	@ 0x2f
1000063a:	429a      	cmp	r2, r3
1000063c:	4140      	adcs	r0, r0
1000063e:	b2c0      	uxtb	r0, r0
10000640:	4770      	bx	lr
10000642:	46c0      	nop			@ (mov r8, r8)
10000644:	e000ed00 	.word	0xe000ed00
10000648:	20000f74 	.word	0x20000f74

1000064c <irq_set_exclusive_handler>:
1000064c:	b570      	push	{r4, r5, r6, lr}
1000064e:	000d      	movs	r5, r1
10000650:	f3ef 8610 	mrs	r6, PRIMASK
10000654:	b672      	cpsid	i
10000656:	4a0f      	ldr	r2, [pc, #60]	@ (10000694 <irq_set_exclusive_handler+0x48>)
10000658:	6813      	ldr	r3, [r2, #0]
1000065a:	2b00      	cmp	r3, #0
1000065c:	d0fc      	beq.n	10000658 <irq_set_exclusive_handler+0xc>
1000065e:	f3bf 8f5f 	dmb	sy
10000662:	4b0d      	ldr	r3, [pc, #52]	@ (10000698 <irq_set_exclusive_handler+0x4c>)
10000664:	3010      	adds	r0, #16
10000666:	689b      	ldr	r3, [r3, #8]
10000668:	0084      	lsls	r4, r0, #2
1000066a:	591b      	ldr	r3, [r3, r4]
1000066c:	4a0b      	ldr	r2, [pc, #44]	@ (1000069c <irq_set_exclusive_handler+0x50>)
1000066e:	4293      	cmp	r3, r2
10000670:	d003      	beq.n	1000067a <irq_set_exclusive_handler+0x2e>
10000672:	429d      	cmp	r5, r3
10000674:	d001      	beq.n	1000067a <irq_set_exclusive_handler+0x2e>
10000676:	f000 fff7 	bl	10001668 <hard_assertion_failure>
1000067a:	4b07      	ldr	r3, [pc, #28]	@ (10000698 <irq_set_exclusive_handler+0x4c>)
1000067c:	689b      	ldr	r3, [r3, #8]
1000067e:	511d      	str	r5, [r3, r4]
10000680:	f3bf 8f5f 	dmb	sy
10000684:	f3bf 8f5f 	dmb	sy
10000688:	2200      	movs	r2, #0
1000068a:	4b02      	ldr	r3, [pc, #8]	@ (10000694 <irq_set_exclusive_handler+0x48>)
1000068c:	601a      	str	r2, [r3, #0]
1000068e:	f386 8810 	msr	PRIMASK, r6
10000692:	bd70      	pop	{r4, r5, r6, pc}
10000694:	d0000124 	.word	0xd0000124
10000698:	e000ed00 	.word	0xe000ed00
1000069c:	100001cd 	.word	0x100001cd

100006a0 <irq_add_shared_handler>:
100006a0:	b5f0      	push	{r4, r5, r6, r7, lr}
100006a2:	4657      	mov	r7, sl
100006a4:	464e      	mov	r6, r9
100006a6:	46de      	mov	lr, fp
100006a8:	4645      	mov	r5, r8
100006aa:	b5e0      	push	{r5, r6, r7, lr}
100006ac:	b085      	sub	sp, #20
100006ae:	0006      	movs	r6, r0
100006b0:	9100      	str	r1, [sp, #0]
100006b2:	0017      	movs	r7, r2
100006b4:	f3ef 8b10 	mrs	fp, PRIMASK
100006b8:	b672      	cpsid	i
100006ba:	4a6a      	ldr	r2, [pc, #424]	@ (10000864 <irq_add_shared_handler+0x1c4>)
100006bc:	6813      	ldr	r3, [r2, #0]
100006be:	2b00      	cmp	r3, #0
100006c0:	d0fc      	beq.n	100006bc <irq_add_shared_handler+0x1c>
100006c2:	f3bf 8f5f 	dmb	sy
100006c6:	2500      	movs	r5, #0
100006c8:	4b67      	ldr	r3, [pc, #412]	@ (10000868 <irq_add_shared_handler+0x1c8>)
100006ca:	575d      	ldrsb	r5, [r3, r5]
100006cc:	469a      	mov	sl, r3
100006ce:	2d00      	cmp	r5, #0
100006d0:	da00      	bge.n	100006d4 <irq_add_shared_handler+0x34>
100006d2:	e0a9      	b.n	10000828 <irq_add_shared_handler+0x188>
100006d4:	006b      	lsls	r3, r5, #1
100006d6:	4c65      	ldr	r4, [pc, #404]	@ (1000086c <irq_add_shared_handler+0x1cc>)
100006d8:	9301      	str	r3, [sp, #4]
100006da:	195b      	adds	r3, r3, r5
100006dc:	009b      	lsls	r3, r3, #2
100006de:	4698      	mov	r8, r3
100006e0:	46a1      	mov	r9, r4
100006e2:	44c1      	add	r9, r8
100006e4:	464b      	mov	r3, r9
100006e6:	4652      	mov	r2, sl
100006e8:	799b      	ldrb	r3, [r3, #6]
100006ea:	3610      	adds	r6, #16
100006ec:	7013      	strb	r3, [r2, #0]
100006ee:	4b60      	ldr	r3, [pc, #384]	@ (10000870 <irq_add_shared_handler+0x1d0>)
100006f0:	00b6      	lsls	r6, r6, #2
100006f2:	689b      	ldr	r3, [r3, #8]
100006f4:	5999      	ldr	r1, [r3, r6]
100006f6:	1b0b      	subs	r3, r1, r4
100006f8:	2b2f      	cmp	r3, #47	@ 0x2f
100006fa:	d933      	bls.n	10000764 <irq_add_shared_handler+0xc4>
100006fc:	4b5d      	ldr	r3, [pc, #372]	@ (10000874 <irq_add_shared_handler+0x1d4>)
100006fe:	4299      	cmp	r1, r3
10000700:	d000      	beq.n	10000704 <irq_add_shared_handler+0x64>
10000702:	e0ac      	b.n	1000085e <irq_add_shared_handler+0x1be>
10000704:	9b01      	ldr	r3, [sp, #4]
10000706:	4642      	mov	r2, r8
10000708:	469c      	mov	ip, r3
1000070a:	4b5b      	ldr	r3, [pc, #364]	@ (10000878 <irq_add_shared_handler+0x1d8>)
1000070c:	4465      	add	r5, ip
1000070e:	00ad      	lsls	r5, r5, #2
10000710:	5363      	strh	r3, [r4, r5]
10000712:	4b5a      	ldr	r3, [pc, #360]	@ (1000087c <irq_add_shared_handler+0x1dc>)
10000714:	3202      	adds	r2, #2
10000716:	18a2      	adds	r2, r4, r2
10000718:	3b04      	subs	r3, #4
1000071a:	1a9b      	subs	r3, r3, r2
1000071c:	051b      	lsls	r3, r3, #20
1000071e:	4a58      	ldr	r2, [pc, #352]	@ (10000880 <irq_add_shared_handler+0x1e0>)
10000720:	0d5b      	lsrs	r3, r3, #21
10000722:	1965      	adds	r5, r4, r5
10000724:	4313      	orrs	r3, r2
10000726:	806b      	strh	r3, [r5, #2]
10000728:	4b56      	ldr	r3, [pc, #344]	@ (10000884 <irq_add_shared_handler+0x1e4>)
1000072a:	2101      	movs	r1, #1
1000072c:	80ab      	strh	r3, [r5, #4]
1000072e:	23ff      	movs	r3, #255	@ 0xff
10000730:	71ab      	strb	r3, [r5, #6]
10000732:	9b00      	ldr	r3, [sp, #0]
10000734:	71ef      	strb	r7, [r5, #7]
10000736:	60ab      	str	r3, [r5, #8]
10000738:	464b      	mov	r3, r9
1000073a:	430b      	orrs	r3, r1
1000073c:	0019      	movs	r1, r3
1000073e:	4b4c      	ldr	r3, [pc, #304]	@ (10000870 <irq_add_shared_handler+0x1d0>)
10000740:	689b      	ldr	r3, [r3, #8]
10000742:	5199      	str	r1, [r3, r6]
10000744:	f3bf 8f5f 	dmb	sy
10000748:	f3bf 8f5f 	dmb	sy
1000074c:	2200      	movs	r2, #0
1000074e:	4b45      	ldr	r3, [pc, #276]	@ (10000864 <irq_add_shared_handler+0x1c4>)
10000750:	601a      	str	r2, [r3, #0]
10000752:	f38b 8810 	msr	PRIMASK, fp
10000756:	b005      	add	sp, #20
10000758:	bcf0      	pop	{r4, r5, r6, r7}
1000075a:	46bb      	mov	fp, r7
1000075c:	46b2      	mov	sl, r6
1000075e:	46a9      	mov	r9, r5
10000760:	46a0      	mov	r8, r4
10000762:	bdf0      	pop	{r4, r5, r6, r7, pc}
10000764:	2001      	movs	r0, #1
10000766:	000a      	movs	r2, r1
10000768:	4382      	bics	r2, r0
1000076a:	79d3      	ldrb	r3, [r2, #7]
1000076c:	468c      	mov	ip, r1
1000076e:	42bb      	cmp	r3, r7
10000770:	d831      	bhi.n	100007d6 <irq_add_shared_handler+0x136>
10000772:	4645      	mov	r5, r8
10000774:	0013      	movs	r3, r2
10000776:	4944      	ldr	r1, [pc, #272]	@ (10000888 <irq_add_shared_handler+0x1e8>)
10000778:	1b1b      	subs	r3, r3, r4
1000077a:	415b      	adcs	r3, r3
1000077c:	4359      	muls	r1, r3
1000077e:	0d09      	lsrs	r1, r1, #20
10000780:	4b3d      	ldr	r3, [pc, #244]	@ (10000878 <irq_add_shared_handler+0x1d8>)
10000782:	5363      	strh	r3, [r4, r5]
10000784:	4b3d      	ldr	r3, [pc, #244]	@ (1000087c <irq_add_shared_handler+0x1dc>)
10000786:	3502      	adds	r5, #2
10000788:	1965      	adds	r5, r4, r5
1000078a:	3b04      	subs	r3, #4
1000078c:	1b5b      	subs	r3, r3, r5
1000078e:	051b      	lsls	r3, r3, #20
10000790:	4d3b      	ldr	r5, [pc, #236]	@ (10000880 <irq_add_shared_handler+0x1e0>)
10000792:	0d5b      	lsrs	r3, r3, #21
10000794:	432b      	orrs	r3, r5
10000796:	46aa      	mov	sl, r5
10000798:	464d      	mov	r5, r9
1000079a:	806b      	strh	r3, [r5, #2]
1000079c:	2504      	movs	r5, #4
1000079e:	46ac      	mov	ip, r5
100007a0:	4655      	mov	r5, sl
100007a2:	44e0      	add	r8, ip
100007a4:	1f13      	subs	r3, r2, #4
100007a6:	4444      	add	r4, r8
100007a8:	1b1b      	subs	r3, r3, r4
100007aa:	051b      	lsls	r3, r3, #20
100007ac:	0d5b      	lsrs	r3, r3, #21
100007ae:	431d      	orrs	r5, r3
100007b0:	464b      	mov	r3, r9
100007b2:	7199      	strb	r1, [r3, #6]
100007b4:	9900      	ldr	r1, [sp, #0]
100007b6:	809d      	strh	r5, [r3, #4]
100007b8:	6099      	str	r1, [r3, #8]
100007ba:	4649      	mov	r1, r9
100007bc:	71df      	strb	r7, [r3, #7]
100007be:	4b33      	ldr	r3, [pc, #204]	@ (1000088c <irq_add_shared_handler+0x1ec>)
100007c0:	4301      	orrs	r1, r0
100007c2:	6013      	str	r3, [r2, #0]
100007c4:	e7bb      	b.n	1000073e <irq_add_shared_handler+0x9e>
100007c6:	0058      	lsls	r0, r3, #1
100007c8:	18c0      	adds	r0, r0, r3
100007ca:	0080      	lsls	r0, r0, #2
100007cc:	1820      	adds	r0, r4, r0
100007ce:	79c1      	ldrb	r1, [r0, #7]
100007d0:	42b9      	cmp	r1, r7
100007d2:	d92f      	bls.n	10000834 <irq_add_shared_handler+0x194>
100007d4:	0002      	movs	r2, r0
100007d6:	2306      	movs	r3, #6
100007d8:	56d3      	ldrsb	r3, [r2, r3]
100007da:	2b00      	cmp	r3, #0
100007dc:	daf3      	bge.n	100007c6 <irq_add_shared_handler+0x126>
100007de:	9302      	str	r3, [sp, #8]
100007e0:	4b2b      	ldr	r3, [pc, #172]	@ (10000890 <irq_add_shared_handler+0x1f0>)
100007e2:	4661      	mov	r1, ip
100007e4:	9303      	str	r3, [sp, #12]
100007e6:	1d13      	adds	r3, r2, #4
100007e8:	469a      	mov	sl, r3
100007ea:	2304      	movs	r3, #4
100007ec:	425b      	negs	r3, r3
100007ee:	469c      	mov	ip, r3
100007f0:	44e1      	add	r9, ip
100007f2:	4650      	mov	r0, sl
100007f4:	464b      	mov	r3, r9
100007f6:	1a1b      	subs	r3, r3, r0
100007f8:	051b      	lsls	r3, r3, #20
100007fa:	0d5b      	lsrs	r3, r3, #21
100007fc:	469c      	mov	ip, r3
100007fe:	4b20      	ldr	r3, [pc, #128]	@ (10000880 <irq_add_shared_handler+0x1e0>)
10000800:	7195      	strb	r5, [r2, #6]
10000802:	4698      	mov	r8, r3
10000804:	4663      	mov	r3, ip
10000806:	4640      	mov	r0, r8
10000808:	4303      	orrs	r3, r0
1000080a:	8093      	strh	r3, [r2, #4]
1000080c:	9b01      	ldr	r3, [sp, #4]
1000080e:	195a      	adds	r2, r3, r5
10000810:	0092      	lsls	r2, r2, #2
10000812:	9b03      	ldr	r3, [sp, #12]
10000814:	18a4      	adds	r4, r4, r2
10000816:	80a3      	strh	r3, [r4, #4]
10000818:	9b02      	ldr	r3, [sp, #8]
1000081a:	4a1c      	ldr	r2, [pc, #112]	@ (1000088c <irq_add_shared_handler+0x1ec>)
1000081c:	71a3      	strb	r3, [r4, #6]
1000081e:	9b00      	ldr	r3, [sp, #0]
10000820:	6022      	str	r2, [r4, #0]
10000822:	71e7      	strb	r7, [r4, #7]
10000824:	60a3      	str	r3, [r4, #8]
10000826:	e78a      	b.n	1000073e <irq_add_shared_handler+0x9e>
10000828:	f000 ff1e 	bl	10001668 <hard_assertion_failure>
1000082c:	2500      	movs	r5, #0
1000082e:	4653      	mov	r3, sl
10000830:	575d      	ldrsb	r5, [r3, r5]
10000832:	e74f      	b.n	100006d4 <irq_add_shared_handler+0x34>
10000834:	8890      	ldrh	r0, [r2, #4]
10000836:	9302      	str	r3, [sp, #8]
10000838:	0540      	lsls	r0, r0, #21
1000083a:	1d13      	adds	r3, r2, #4
1000083c:	469a      	mov	sl, r3
1000083e:	1503      	asrs	r3, r0, #20
10000840:	4661      	mov	r1, ip
10000842:	469c      	mov	ip, r3
10000844:	4640      	mov	r0, r8
10000846:	44d4      	add	ip, sl
10000848:	4663      	mov	r3, ip
1000084a:	3004      	adds	r0, #4
1000084c:	1820      	adds	r0, r4, r0
1000084e:	1a18      	subs	r0, r3, r0
10000850:	23e0      	movs	r3, #224	@ 0xe0
10000852:	0500      	lsls	r0, r0, #20
10000854:	0d40      	lsrs	r0, r0, #21
10000856:	021b      	lsls	r3, r3, #8
10000858:	4318      	orrs	r0, r3
1000085a:	9003      	str	r0, [sp, #12]
1000085c:	e7c5      	b.n	100007ea <irq_add_shared_handler+0x14a>
1000085e:	f000 ff03 	bl	10001668 <hard_assertion_failure>
10000862:	e74f      	b.n	10000704 <irq_add_shared_handler+0x64>
10000864:	d0000124 	.word	0xd0000124
10000868:	200223dd 	.word	0x200223dd
1000086c:	20000f74 	.word	0x20000f74
10000870:	e000ed00 	.word	0xe000ed00
10000874:	100001cd 	.word	0x100001cd
10000878:	ffffa100 	.word	0xffffa100
1000087c:	20000fa4 	.word	0x20000fa4
10000880:	ffffe000 	.word	0xffffe000
10000884:	ffffbd01 	.word	0xffffbd01
10000888:	0000aaaa 	.word	0x0000aaaa
1000088c:	47804801 	.word	0x47804801
10000890:	0000bd01 	.word	0x0000bd01

10000894 <irq_add_tail_to_free_list>:
10000894:	b570      	push	{r4, r5, r6, lr}
10000896:	2401      	movs	r4, #1
10000898:	4304      	orrs	r4, r0
1000089a:	f3ef 8105 	mrs	r1, IPSR
1000089e:	f3ef 8c10 	mrs	ip, PRIMASK
100008a2:	b672      	cpsid	i
100008a4:	4a21      	ldr	r2, [pc, #132]	@ (1000092c <irq_add_tail_to_free_list+0x98>)
100008a6:	6813      	ldr	r3, [r2, #0]
100008a8:	2b00      	cmp	r3, #0
100008aa:	d0fc      	beq.n	100008a6 <irq_add_tail_to_free_list+0x12>
100008ac:	f3bf 8f5f 	dmb	sy
100008b0:	4b1f      	ldr	r3, [pc, #124]	@ (10000930 <irq_add_tail_to_free_list+0x9c>)
100008b2:	0005      	movs	r5, r0
100008b4:	4a1f      	ldr	r2, [pc, #124]	@ (10000934 <irq_add_tail_to_free_list+0xa0>)
100008b6:	1aed      	subs	r5, r5, r3
100008b8:	416d      	adcs	r5, r5
100008ba:	436a      	muls	r2, r5
100008bc:	0d12      	lsrs	r2, r2, #20
100008be:	4d1e      	ldr	r5, [pc, #120]	@ (10000938 <irq_add_tail_to_free_list+0xa4>)
100008c0:	0089      	lsls	r1, r1, #2
100008c2:	68ae      	ldr	r6, [r5, #8]
100008c4:	b252      	sxtb	r2, r2
100008c6:	5876      	ldr	r6, [r6, r1]
100008c8:	42a6      	cmp	r6, r4
100008ca:	d01c      	beq.n	10000906 <irq_add_tail_to_free_list+0x72>
100008cc:	2106      	movs	r1, #6
100008ce:	5659      	ldrsb	r1, [r3, r1]
100008d0:	4291      	cmp	r1, r2
100008d2:	d01c      	beq.n	1000090e <irq_add_tail_to_free_list+0x7a>
100008d4:	2112      	movs	r1, #18
100008d6:	5659      	ldrsb	r1, [r3, r1]
100008d8:	4291      	cmp	r1, r2
100008da:	d022      	beq.n	10000922 <irq_add_tail_to_free_list+0x8e>
100008dc:	211e      	movs	r1, #30
100008de:	5659      	ldrsb	r1, [r3, r1]
100008e0:	4291      	cmp	r1, r2
100008e2:	d020      	beq.n	10000926 <irq_add_tail_to_free_list+0x92>
100008e4:	212a      	movs	r1, #42	@ 0x2a
100008e6:	5659      	ldrsb	r1, [r3, r1]
100008e8:	2403      	movs	r4, #3
100008ea:	4291      	cmp	r1, r2
100008ec:	d010      	beq.n	10000910 <irq_add_tail_to_free_list+0x7c>
100008ee:	4b13      	ldr	r3, [pc, #76]	@ (1000093c <irq_add_tail_to_free_list+0xa8>)
100008f0:	7819      	ldrb	r1, [r3, #0]
100008f2:	701a      	strb	r2, [r3, #0]
100008f4:	7181      	strb	r1, [r0, #6]
100008f6:	f3bf 8f5f 	dmb	sy
100008fa:	2200      	movs	r2, #0
100008fc:	4b0b      	ldr	r3, [pc, #44]	@ (1000092c <irq_add_tail_to_free_list+0x98>)
100008fe:	601a      	str	r2, [r3, #0]
10000900:	f38c 8810 	msr	PRIMASK, ip
10000904:	bd70      	pop	{r4, r5, r6, pc}
10000906:	68ab      	ldr	r3, [r5, #8]
10000908:	4c0d      	ldr	r4, [pc, #52]	@ (10000940 <irq_add_tail_to_free_list+0xac>)
1000090a:	505c      	str	r4, [r3, r1]
1000090c:	e7ef      	b.n	100008ee <irq_add_tail_to_free_list+0x5a>
1000090e:	2400      	movs	r4, #0
10000910:	0061      	lsls	r1, r4, #1
10000912:	1909      	adds	r1, r1, r4
10000914:	0089      	lsls	r1, r1, #2
10000916:	185b      	adds	r3, r3, r1
10000918:	21ff      	movs	r1, #255	@ 0xff
1000091a:	7199      	strb	r1, [r3, #6]
1000091c:	4909      	ldr	r1, [pc, #36]	@ (10000944 <irq_add_tail_to_free_list+0xb0>)
1000091e:	8099      	strh	r1, [r3, #4]
10000920:	e7e5      	b.n	100008ee <irq_add_tail_to_free_list+0x5a>
10000922:	2401      	movs	r4, #1
10000924:	e7f4      	b.n	10000910 <irq_add_tail_to_free_list+0x7c>
10000926:	2402      	movs	r4, #2
10000928:	e7f2      	b.n	10000910 <irq_add_tail_to_free_list+0x7c>
1000092a:	46c0      	nop			@ (mov r8, r8)
1000092c:	d0000124 	.word	0xd0000124
10000930:	20000f74 	.word	0x20000f74
10000934:	0000aaaa 	.word	0x0000aaaa
10000938:	e000ed00 	.word	0xe000ed00
1000093c:	200223dd 	.word	0x200223dd
10000940:	100001cd 	.word	0x100001cd
10000944:	ffffbd01 	.word	0xffffbd01

10000948 <user_irq_claim_unused>:
10000948:	b510      	push	{r4, lr}
1000094a:	4b08      	ldr	r3, [pc, #32]	@ (1000096c <user_irq_claim_unused+0x24>)
1000094c:	4c08      	ldr	r4, [pc, #32]	@ (10000970 <user_irq_claim_unused+0x28>)
1000094e:	b082      	sub	sp, #8
10000950:	0001      	movs	r1, r0
10000952:	9300      	str	r3, [sp, #0]
10000954:	2200      	movs	r2, #0
10000956:	2305      	movs	r3, #5
10000958:	0020      	movs	r0, r4
1000095a:	f7ff fdb3 	bl	100004c4 <hw_claim_unused_from_range>
1000095e:	2800      	cmp	r0, #0
10000960:	db01      	blt.n	10000966 <user_irq_claim_unused+0x1e>
10000962:	231f      	movs	r3, #31
10000964:	1a18      	subs	r0, r3, r0
10000966:	b002      	add	sp, #8
10000968:	bd10      	pop	{r4, pc}
1000096a:	46c0      	nop			@ (mov r8, r8)
1000096c:	10005a6c 	.word	0x10005a6c
10000970:	200223e1 	.word	0x200223e1

10000974 <lock_init>:
10000974:	4b02      	ldr	r3, [pc, #8]	@ (10000980 <lock_init+0xc>)
10000976:	469c      	mov	ip, r3
10000978:	4461      	add	r1, ip
1000097a:	0089      	lsls	r1, r1, #2
1000097c:	6001      	str	r1, [r0, #0]
1000097e:	4770      	bx	lr
10000980:	34000040 	.word	0x34000040

10000984 <runtime_init_mutex>:
10000984:	b5f8      	push	{r3, r4, r5, r6, r7, lr}
10000986:	4c12      	ldr	r4, [pc, #72]	@ (100009d0 <runtime_init_mutex+0x4c>)
10000988:	4d12      	ldr	r5, [pc, #72]	@ (100009d4 <runtime_init_mutex+0x50>)
1000098a:	42ac      	cmp	r4, r5
1000098c:	d212      	bcs.n	100009b4 <runtime_init_mutex+0x30>
1000098e:	2601      	movs	r6, #1
10000990:	2700      	movs	r7, #0
10000992:	4276      	negs	r6, r6
10000994:	6823      	ldr	r3, [r4, #0]
10000996:	2b00      	cmp	r3, #0
10000998:	d00d      	beq.n	100009b6 <runtime_init_mutex+0x32>
1000099a:	f7ff fde1 	bl	10000560 <next_striped_spin_lock_num>
1000099e:	0001      	movs	r1, r0
100009a0:	0020      	movs	r0, r4
100009a2:	f7ff ffe7 	bl	10000974 <lock_init>
100009a6:	6066      	str	r6, [r4, #4]
100009a8:	7227      	strb	r7, [r4, #8]
100009aa:	f3bf 8f5f 	dmb	sy
100009ae:	340c      	adds	r4, #12
100009b0:	42ac      	cmp	r4, r5
100009b2:	d3ef      	bcc.n	10000994 <runtime_init_mutex+0x10>
100009b4:	bdf8      	pop	{r3, r4, r5, r6, r7, pc}
100009b6:	f7ff fdd3 	bl	10000560 <next_striped_spin_lock_num>
100009ba:	0001      	movs	r1, r0
100009bc:	0020      	movs	r0, r4
100009be:	f7ff ffd9 	bl	10000974 <lock_init>
100009c2:	6066      	str	r6, [r4, #4]
100009c4:	f3bf 8f5f 	dmb	sy
100009c8:	3408      	adds	r4, #8
100009ca:	42ac      	cmp	r4, r5
100009cc:	d3e2      	bcc.n	10000994 <runtime_init_mutex+0x10>
100009ce:	e7f1      	b.n	100009b4 <runtime_init_mutex+0x30>
100009d0:	2000103c 	.word	0x2000103c
100009d4:	2000104c 	.word	0x2000104c

100009d8 <mutex_init>:
100009d8:	b510      	push	{r4, lr}
100009da:	0004      	movs	r4, r0
100009dc:	f7ff fdc0 	bl	10000560 <next_striped_spin_lock_num>
100009e0:	0001      	movs	r1, r0
100009e2:	0020      	movs	r0, r4
100009e4:	f7ff ffc6 	bl	10000974 <lock_init>
100009e8:	2301      	movs	r3, #1
100009ea:	425b      	negs	r3, r3
100009ec:	6063      	str	r3, [r4, #4]
100009ee:	f3bf 8f5f 	dmb	sy
100009f2:	bd10      	pop	{r4, pc}

100009f4 <critical_section_init>:
100009f4:	b510      	push	{r4, lr}
100009f6:	0004      	movs	r4, r0
100009f8:	2001      	movs	r0, #1
100009fa:	f7ff fdbd 	bl	10000578 <spin_lock_claim_unused>
100009fe:	4b03      	ldr	r3, [pc, #12]	@ (10000a0c <critical_section_init+0x18>)
10000a00:	18c3      	adds	r3, r0, r3
10000a02:	009b      	lsls	r3, r3, #2
10000a04:	6023      	str	r3, [r4, #0]
10000a06:	f3bf 8f5f 	dmb	sy
10000a0a:	bd10      	pop	{r4, pc}
10000a0c:	34000040 	.word	0x34000040

10000a10 <critical_section_init_with_lock_num>:
10000a10:	4b03      	ldr	r3, [pc, #12]	@ (10000a20 <critical_section_init_with_lock_num+0x10>)
10000a12:	469c      	mov	ip, r3
10000a14:	4461      	add	r1, ip
10000a16:	0089      	lsls	r1, r1, #2
10000a18:	6001      	str	r1, [r0, #0]
10000a1a:	f3bf 8f5f 	dmb	sy
10000a1e:	4770      	bx	lr
10000a20:	34000040 	.word	0x34000040

10000a24 <alarm_pool_irq_handler>:
10000a24:	b5f0      	push	{r4, r5, r6, r7, lr}
10000a26:	46de      	mov	lr, fp
10000a28:	4657      	mov	r7, sl
10000a2a:	464e      	mov	r6, r9
10000a2c:	4645      	mov	r5, r8
10000a2e:	b5e0      	push	{r5, r6, r7, lr}
10000a30:	b083      	sub	sp, #12
10000a32:	f3ef 8205 	mrs	r2, IPSR
10000a36:	2303      	movs	r3, #3
10000a38:	4013      	ands	r3, r2
10000a3a:	4ab5      	ldr	r2, [pc, #724]	@ (10000d10 <alarm_pool_irq_handler+0x2ec>)
10000a3c:	0099      	lsls	r1, r3, #2
10000a3e:	5852      	ldr	r2, [r2, r1]
10000a40:	9100      	str	r1, [sp, #0]
10000a42:	4690      	mov	r8, r2
10000a44:	2201      	movs	r2, #1
10000a46:	409a      	lsls	r2, r3
10000a48:	4693      	mov	fp, r2
10000a4a:	4bb2      	ldr	r3, [pc, #712]	@ (10000d14 <alarm_pool_irq_handler+0x2f0>)
10000a4c:	601a      	str	r2, [r3, #0]
10000a4e:	4bb2      	ldr	r3, [pc, #712]	@ (10000d18 <alarm_pool_irq_handler+0x2f4>)
10000a50:	9301      	str	r3, [sp, #4]
10000a52:	465b      	mov	r3, fp
10000a54:	48b1      	ldr	r0, [pc, #708]	@ (10000d1c <alarm_pool_irq_handler+0x2f8>)
10000a56:	6343      	str	r3, [r0, #52]	@ 0x34
10000a58:	4643      	mov	r3, r8
10000a5a:	2208      	movs	r2, #8
10000a5c:	5e9b      	ldrsh	r3, [r3, r2]
10000a5e:	4699      	mov	r9, r3
10000a60:	2b00      	cmp	r3, #0
10000a62:	da3a      	bge.n	10000ada <alarm_pool_irq_handler+0xb6>
10000a64:	4643      	mov	r3, r8
10000a66:	889b      	ldrh	r3, [r3, #4]
10000a68:	b21b      	sxth	r3, r3
10000a6a:	2b00      	cmp	r3, #0
10000a6c:	db00      	blt.n	10000a70 <alarm_pool_irq_handler+0x4c>
10000a6e:	e09d      	b.n	10000bac <alarm_pool_irq_handler+0x188>
10000a70:	4643      	mov	r3, r8
10000a72:	799b      	ldrb	r3, [r3, #6]
10000a74:	2b00      	cmp	r3, #0
10000a76:	d000      	beq.n	10000a7a <alarm_pool_irq_handler+0x56>
10000a78:	e0e1      	b.n	10000c3e <alarm_pool_irq_handler+0x21a>
10000a7a:	4643      	mov	r3, r8
10000a7c:	2408      	movs	r4, #8
10000a7e:	5f1c      	ldrsh	r4, [r3, r4]
10000a80:	2c00      	cmp	r4, #0
10000a82:	db20      	blt.n	10000ac6 <alarm_pool_irq_handler+0xa2>
10000a84:	4643      	mov	r3, r8
10000a86:	695a      	ldr	r2, [r3, #20]
10000a88:	0063      	lsls	r3, r4, #1
10000a8a:	191b      	adds	r3, r3, r4
10000a8c:	00db      	lsls	r3, r3, #3
10000a8e:	18d3      	adds	r3, r2, r3
10000a90:	689d      	ldr	r5, [r3, #8]
10000a92:	68dc      	ldr	r4, [r3, #12]
10000a94:	1c6b      	adds	r3, r5, #1
10000a96:	d100      	bne.n	10000a9a <alarm_pool_irq_handler+0x76>
10000a98:	e103      	b.n	10000ca2 <alarm_pool_irq_handler+0x27e>
10000a9a:	48a0      	ldr	r0, [pc, #640]	@ (10000d1c <alarm_pool_irq_handler+0x2f8>)
10000a9c:	9900      	ldr	r1, [sp, #0]
10000a9e:	4684      	mov	ip, r0
10000aa0:	4461      	add	r1, ip
10000aa2:	6a82      	ldr	r2, [r0, #40]	@ 0x28
10000aa4:	690b      	ldr	r3, [r1, #16]
10000aa6:	1aae      	subs	r6, r5, r2
10000aa8:	1a9b      	subs	r3, r3, r2
10000aaa:	429e      	cmp	r6, r3
10000aac:	d313      	bcc.n	10000ad6 <alarm_pool_irq_handler+0xb2>
10000aae:	465a      	mov	r2, fp
10000ab0:	6a03      	ldr	r3, [r0, #32]
10000ab2:	421a      	tst	r2, r3
10000ab4:	d00f      	beq.n	10000ad6 <alarm_pool_irq_handler+0xb2>
10000ab6:	4899      	ldr	r0, [pc, #612]	@ (10000d1c <alarm_pool_irq_handler+0x2f8>)
10000ab8:	f000 fbbc 	bl	10001234 <timer_time_us_64>
10000abc:	428c      	cmp	r4, r1
10000abe:	dc02      	bgt.n	10000ac6 <alarm_pool_irq_handler+0xa2>
10000ac0:	d1c7      	bne.n	10000a52 <alarm_pool_irq_handler+0x2e>
10000ac2:	4285      	cmp	r5, r0
10000ac4:	d9c5      	bls.n	10000a52 <alarm_pool_irq_handler+0x2e>
10000ac6:	bf40      	sev
10000ac8:	b003      	add	sp, #12
10000aca:	bcf0      	pop	{r4, r5, r6, r7}
10000acc:	46bb      	mov	fp, r7
10000ace:	46b2      	mov	sl, r6
10000ad0:	46a9      	mov	r9, r5
10000ad2:	46a0      	mov	r8, r4
10000ad4:	bdf0      	pop	{r4, r5, r6, r7, pc}
10000ad6:	610d      	str	r5, [r1, #16]
10000ad8:	e7ed      	b.n	10000ab6 <alarm_pool_irq_handler+0x92>
10000ada:	4642      	mov	r2, r8
10000adc:	6952      	ldr	r2, [r2, #20]
10000ade:	005b      	lsls	r3, r3, #1
10000ae0:	4692      	mov	sl, r2
10000ae2:	444b      	add	r3, r9
10000ae4:	00db      	lsls	r3, r3, #3
10000ae6:	449a      	add	sl, r3
10000ae8:	4653      	mov	r3, sl
10000aea:	689e      	ldr	r6, [r3, #8]
10000aec:	68df      	ldr	r7, [r3, #12]
10000aee:	f000 fba1 	bl	10001234 <timer_time_us_64>
10000af2:	428f      	cmp	r7, r1
10000af4:	dcb6      	bgt.n	10000a64 <alarm_pool_irq_handler+0x40>
10000af6:	d100      	bne.n	10000afa <alarm_pool_irq_handler+0xd6>
10000af8:	e0f8      	b.n	10000cec <alarm_pool_irq_handler+0x2c8>
10000afa:	2f00      	cmp	r7, #0
10000afc:	da00      	bge.n	10000b00 <alarm_pool_irq_handler+0xdc>
10000afe:	e0d9      	b.n	10000cb4 <alarm_pool_irq_handler+0x290>
10000b00:	4652      	mov	r2, sl
10000b02:	4653      	mov	r3, sl
10000b04:	6954      	ldr	r4, [r2, #20]
10000b06:	691b      	ldr	r3, [r3, #16]
10000b08:	9a01      	ldr	r2, [sp, #4]
10000b0a:	4293      	cmp	r3, r2
10000b0c:	d100      	bne.n	10000b10 <alarm_pool_irq_handler+0xec>
10000b0e:	e0cc      	b.n	10000caa <alarm_pool_irq_handler+0x286>
10000b10:	4641      	mov	r1, r8
10000b12:	4652      	mov	r2, sl
10000b14:	2008      	movs	r0, #8
10000b16:	5e08      	ldrsh	r0, [r1, r0]
10000b18:	8852      	ldrh	r2, [r2, #2]
10000b1a:	0400      	lsls	r0, r0, #16
10000b1c:	0021      	movs	r1, r4
10000b1e:	4310      	orrs	r0, r2
10000b20:	4798      	blx	r3
10000b22:	0004      	movs	r4, r0
10000b24:	000d      	movs	r5, r1
10000b26:	0023      	movs	r3, r4
10000b28:	432b      	orrs	r3, r5
10000b2a:	d100      	bne.n	10000b2e <alarm_pool_irq_handler+0x10a>
10000b2c:	e0c2      	b.n	10000cb4 <alarm_pool_irq_handler+0x290>
10000b2e:	2d00      	cmp	r5, #0
10000b30:	db00      	blt.n	10000b34 <alarm_pool_irq_handler+0x110>
10000b32:	e0df      	b.n	10000cf4 <alarm_pool_irq_handler+0x2d0>
10000b34:	0030      	movs	r0, r6
10000b36:	0039      	movs	r1, r7
10000b38:	1b00      	subs	r0, r0, r4
10000b3a:	41a9      	sbcs	r1, r5
10000b3c:	4653      	mov	r3, sl
10000b3e:	6098      	str	r0, [r3, #8]
10000b40:	60d9      	str	r1, [r3, #12]
10000b42:	2200      	movs	r2, #0
10000b44:	5e9a      	ldrsh	r2, [r3, r2]
10000b46:	2a00      	cmp	r2, #0
10000b48:	da00      	bge.n	10000b4c <alarm_pool_irq_handler+0x128>
10000b4a:	e78b      	b.n	10000a64 <alarm_pool_irq_handler+0x40>
10000b4c:	4643      	mov	r3, r8
10000b4e:	695d      	ldr	r5, [r3, #20]
10000b50:	0053      	lsls	r3, r2, #1
10000b52:	189c      	adds	r4, r3, r2
10000b54:	00e4      	lsls	r4, r4, #3
10000b56:	192c      	adds	r4, r5, r4
10000b58:	68a7      	ldr	r7, [r4, #8]
10000b5a:	68e4      	ldr	r4, [r4, #12]
10000b5c:	428c      	cmp	r4, r1
10000b5e:	dd00      	ble.n	10000b62 <alarm_pool_irq_handler+0x13e>
10000b60:	e780      	b.n	10000a64 <alarm_pool_irq_handler+0x40>
10000b62:	d102      	bne.n	10000b6a <alarm_pool_irq_handler+0x146>
10000b64:	4287      	cmp	r7, r0
10000b66:	d900      	bls.n	10000b6a <alarm_pool_irq_handler+0x146>
10000b68:	e77c      	b.n	10000a64 <alarm_pool_irq_handler+0x40>
10000b6a:	4646      	mov	r6, r8
10000b6c:	8132      	strh	r2, [r6, #8]
10000b6e:	3608      	adds	r6, #8
10000b70:	e00d      	b.n	10000b8e <alarm_pool_irq_handler+0x16a>
10000b72:	428c      	cmp	r4, r1
10000b74:	d100      	bne.n	10000b78 <alarm_pool_irq_handler+0x154>
10000b76:	e0c6      	b.n	10000d06 <alarm_pool_irq_handler+0x2e2>
10000b78:	001e      	movs	r6, r3
10000b7a:	2300      	movs	r3, #0
10000b7c:	5ef2      	ldrsh	r2, [r6, r3]
10000b7e:	2a00      	cmp	r2, #0
10000b80:	db0a      	blt.n	10000b98 <alarm_pool_irq_handler+0x174>
10000b82:	0053      	lsls	r3, r2, #1
10000b84:	189c      	adds	r4, r3, r2
10000b86:	00e4      	lsls	r4, r4, #3
10000b88:	192c      	adds	r4, r5, r4
10000b8a:	68a7      	ldr	r7, [r4, #8]
10000b8c:	68e4      	ldr	r4, [r4, #12]
10000b8e:	189b      	adds	r3, r3, r2
10000b90:	00db      	lsls	r3, r3, #3
10000b92:	18eb      	adds	r3, r5, r3
10000b94:	428c      	cmp	r4, r1
10000b96:	ddec      	ble.n	10000b72 <alarm_pool_irq_handler+0x14e>
10000b98:	4653      	mov	r3, sl
10000b9a:	801a      	strh	r2, [r3, #0]
10000b9c:	464b      	mov	r3, r9
10000b9e:	8033      	strh	r3, [r6, #0]
10000ba0:	4643      	mov	r3, r8
10000ba2:	889b      	ldrh	r3, [r3, #4]
10000ba4:	b21b      	sxth	r3, r3
10000ba6:	2b00      	cmp	r3, #0
10000ba8:	da00      	bge.n	10000bac <alarm_pool_irq_handler+0x188>
10000baa:	e761      	b.n	10000a70 <alarm_pool_irq_handler+0x4c>
10000bac:	4643      	mov	r3, r8
10000bae:	691a      	ldr	r2, [r3, #16]
10000bb0:	f3ef 8110 	mrs	r1, PRIMASK
10000bb4:	b672      	cpsid	i
10000bb6:	6813      	ldr	r3, [r2, #0]
10000bb8:	2b00      	cmp	r3, #0
10000bba:	d0fc      	beq.n	10000bb6 <alarm_pool_irq_handler+0x192>
10000bbc:	f3bf 8f5f 	dmb	sy
10000bc0:	4643      	mov	r3, r8
10000bc2:	889e      	ldrh	r6, [r3, #4]
10000bc4:	2301      	movs	r3, #1
10000bc6:	4642      	mov	r2, r8
10000bc8:	425b      	negs	r3, r3
10000bca:	8093      	strh	r3, [r2, #4]
10000bcc:	b236      	sxth	r6, r6
10000bce:	6913      	ldr	r3, [r2, #16]
10000bd0:	f3bf 8f5f 	dmb	sy
10000bd4:	2200      	movs	r2, #0
10000bd6:	601a      	str	r2, [r3, #0]
10000bd8:	f381 8810 	msr	PRIMASK, r1
10000bdc:	2e00      	cmp	r6, #0
10000bde:	da00      	bge.n	10000be2 <alarm_pool_irq_handler+0x1be>
10000be0:	e746      	b.n	10000a70 <alarm_pool_irq_handler+0x4c>
10000be2:	4643      	mov	r3, r8
10000be4:	695d      	ldr	r5, [r3, #20]
10000be6:	3308      	adds	r3, #8
10000be8:	4642      	mov	r2, r8
10000bea:	469c      	mov	ip, r3
10000bec:	0077      	lsls	r7, r6, #1
10000bee:	19bf      	adds	r7, r7, r6
10000bf0:	00ff      	lsls	r7, r7, #3
10000bf2:	19ef      	adds	r7, r5, r7
10000bf4:	68bb      	ldr	r3, [r7, #8]
10000bf6:	4660      	mov	r0, ip
10000bf8:	4698      	mov	r8, r3
10000bfa:	2308      	movs	r3, #8
10000bfc:	5ed1      	ldrsh	r1, [r2, r3]
10000bfe:	4692      	mov	sl, r2
10000c00:	68fc      	ldr	r4, [r7, #12]
10000c02:	2900      	cmp	r1, #0
10000c04:	da07      	bge.n	10000c16 <alarm_pool_irq_handler+0x1f2>
10000c06:	e00e      	b.n	10000c26 <alarm_pool_irq_handler+0x202>
10000c08:	42a2      	cmp	r2, r4
10000c0a:	d046      	beq.n	10000c9a <alarm_pool_irq_handler+0x276>
10000c0c:	0018      	movs	r0, r3
10000c0e:	2300      	movs	r3, #0
10000c10:	5ec1      	ldrsh	r1, [r0, r3]
10000c12:	2900      	cmp	r1, #0
10000c14:	db06      	blt.n	10000c24 <alarm_pool_irq_handler+0x200>
10000c16:	004b      	lsls	r3, r1, #1
10000c18:	185b      	adds	r3, r3, r1
10000c1a:	00db      	lsls	r3, r3, #3
10000c1c:	18eb      	adds	r3, r5, r3
10000c1e:	68da      	ldr	r2, [r3, #12]
10000c20:	42a2      	cmp	r2, r4
10000c22:	ddf1      	ble.n	10000c08 <alarm_pool_irq_handler+0x1e4>
10000c24:	4652      	mov	r2, sl
10000c26:	8006      	strh	r6, [r0, #0]
10000c28:	2300      	movs	r3, #0
10000c2a:	5efe      	ldrsh	r6, [r7, r3]
10000c2c:	8039      	strh	r1, [r7, #0]
10000c2e:	2e00      	cmp	r6, #0
10000c30:	dadc      	bge.n	10000bec <alarm_pool_irq_handler+0x1c8>
10000c32:	4690      	mov	r8, r2
10000c34:	4643      	mov	r3, r8
10000c36:	799b      	ldrb	r3, [r3, #6]
10000c38:	2b00      	cmp	r3, #0
10000c3a:	d100      	bne.n	10000c3e <alarm_pool_irq_handler+0x21a>
10000c3c:	e71d      	b.n	10000a7a <alarm_pool_irq_handler+0x56>
10000c3e:	2300      	movs	r3, #0
10000c40:	4642      	mov	r2, r8
10000c42:	7193      	strb	r3, [r2, #6]
10000c44:	4643      	mov	r3, r8
10000c46:	4646      	mov	r6, r8
10000c48:	2108      	movs	r1, #8
10000c4a:	5e59      	ldrsh	r1, [r3, r1]
10000c4c:	3608      	adds	r6, #8
10000c4e:	1c4b      	adds	r3, r1, #1
10000c50:	d100      	bne.n	10000c54 <alarm_pool_irq_handler+0x230>
10000c52:	e738      	b.n	10000ac6 <alarm_pool_irq_handler+0xa2>
10000c54:	4647      	mov	r7, r8
10000c56:	4689      	mov	r9, r1
10000c58:	6955      	ldr	r5, [r2, #20]
10000c5a:	e002      	b.n	10000c62 <alarm_pool_irq_handler+0x23e>
10000c5c:	0006      	movs	r6, r0
10000c5e:	1c4b      	adds	r3, r1, #1
10000c60:	d018      	beq.n	10000c94 <alarm_pool_irq_handler+0x270>
10000c62:	004b      	lsls	r3, r1, #1
10000c64:	185b      	adds	r3, r3, r1
10000c66:	00db      	lsls	r3, r3, #3
10000c68:	18e8      	adds	r0, r5, r3
10000c6a:	000a      	movs	r2, r1
10000c6c:	468c      	mov	ip, r1
10000c6e:	5ee9      	ldrsh	r1, [r5, r3]
10000c70:	8843      	ldrh	r3, [r0, #2]
10000c72:	b21b      	sxth	r3, r3
10000c74:	2b00      	cmp	r3, #0
10000c76:	daf1      	bge.n	10000c5c <alarm_pool_irq_handler+0x238>
10000c78:	2301      	movs	r3, #1
10000c7a:	425b      	negs	r3, r3
10000c7c:	17dc      	asrs	r4, r3, #31
10000c7e:	6083      	str	r3, [r0, #8]
10000c80:	60c4      	str	r4, [r0, #12]
10000c82:	454a      	cmp	r2, r9
10000c84:	d003      	beq.n	10000c8e <alarm_pool_irq_handler+0x26a>
10000c86:	8031      	strh	r1, [r6, #0]
10000c88:	893b      	ldrh	r3, [r7, #8]
10000c8a:	8003      	strh	r3, [r0, #0]
10000c8c:	813a      	strh	r2, [r7, #8]
10000c8e:	46e1      	mov	r9, ip
10000c90:	1c4b      	adds	r3, r1, #1
10000c92:	d1e6      	bne.n	10000c62 <alarm_pool_irq_handler+0x23e>
10000c94:	46b8      	mov	r8, r7
10000c96:	464c      	mov	r4, r9
10000c98:	e6f2      	b.n	10000a80 <alarm_pool_irq_handler+0x5c>
10000c9a:	689a      	ldr	r2, [r3, #8]
10000c9c:	4542      	cmp	r2, r8
10000c9e:	d9b5      	bls.n	10000c0c <alarm_pool_irq_handler+0x1e8>
10000ca0:	e7c0      	b.n	10000c24 <alarm_pool_irq_handler+0x200>
10000ca2:	1c63      	adds	r3, r4, #1
10000ca4:	d000      	beq.n	10000ca8 <alarm_pool_irq_handler+0x284>
10000ca6:	e6f8      	b.n	10000a9a <alarm_pool_irq_handler+0x76>
10000ca8:	e705      	b.n	10000ab6 <alarm_pool_irq_handler+0x92>
10000caa:	0020      	movs	r0, r4
10000cac:	6923      	ldr	r3, [r4, #16]
10000cae:	4798      	blx	r3
10000cb0:	2800      	cmp	r0, #0
10000cb2:	d125      	bne.n	10000d00 <alarm_pool_irq_handler+0x2dc>
10000cb4:	4653      	mov	r3, sl
10000cb6:	4642      	mov	r2, r8
10000cb8:	881b      	ldrh	r3, [r3, #0]
10000cba:	8113      	strh	r3, [r2, #8]
10000cbc:	6912      	ldr	r2, [r2, #16]
10000cbe:	f3ef 8310 	mrs	r3, PRIMASK
10000cc2:	b672      	cpsid	i
10000cc4:	6811      	ldr	r1, [r2, #0]
10000cc6:	2900      	cmp	r1, #0
10000cc8:	d0fc      	beq.n	10000cc4 <alarm_pool_irq_handler+0x2a0>
10000cca:	f3bf 8f5f 	dmb	sy
10000cce:	4642      	mov	r2, r8
10000cd0:	4651      	mov	r1, sl
10000cd2:	8852      	ldrh	r2, [r2, #2]
10000cd4:	800a      	strh	r2, [r1, #0]
10000cd6:	4642      	mov	r2, r8
10000cd8:	4649      	mov	r1, r9
10000cda:	8051      	strh	r1, [r2, #2]
10000cdc:	6912      	ldr	r2, [r2, #16]
10000cde:	f3bf 8f5f 	dmb	sy
10000ce2:	2100      	movs	r1, #0
10000ce4:	6011      	str	r1, [r2, #0]
10000ce6:	f383 8810 	msr	PRIMASK, r3
10000cea:	e6bb      	b.n	10000a64 <alarm_pool_irq_handler+0x40>
10000cec:	4286      	cmp	r6, r0
10000cee:	d800      	bhi.n	10000cf2 <alarm_pool_irq_handler+0x2ce>
10000cf0:	e703      	b.n	10000afa <alarm_pool_irq_handler+0xd6>
10000cf2:	e6b7      	b.n	10000a64 <alarm_pool_irq_handler+0x40>
10000cf4:	4809      	ldr	r0, [pc, #36]	@ (10000d1c <alarm_pool_irq_handler+0x2f8>)
10000cf6:	f000 fa9d 	bl	10001234 <timer_time_us_64>
10000cfa:	1900      	adds	r0, r0, r4
10000cfc:	4169      	adcs	r1, r5
10000cfe:	e71d      	b.n	10000b3c <alarm_pool_irq_handler+0x118>
10000d00:	6865      	ldr	r5, [r4, #4]
10000d02:	6824      	ldr	r4, [r4, #0]
10000d04:	e70f      	b.n	10000b26 <alarm_pool_irq_handler+0x102>
10000d06:	4287      	cmp	r7, r0
10000d08:	d800      	bhi.n	10000d0c <alarm_pool_irq_handler+0x2e8>
10000d0a:	e735      	b.n	10000b78 <alarm_pool_irq_handler+0x154>
10000d0c:	e744      	b.n	10000b98 <alarm_pool_irq_handler+0x174>
10000d0e:	46c0      	nop			@ (mov r8, r8)
10000d10:	2000209c 	.word	0x2000209c
10000d14:	4005703c 	.word	0x4005703c
10000d18:	10000a25 	.word	0x10000a25
10000d1c:	40054000 	.word	0x40054000

10000d20 <sleep_until_callback>:
10000d20:	4807      	ldr	r0, [pc, #28]	@ (10000d40 <sleep_until_callback+0x20>)
10000d22:	b510      	push	{r4, lr}
10000d24:	6802      	ldr	r2, [r0, #0]
10000d26:	f3ef 8110 	mrs	r1, PRIMASK
10000d2a:	b672      	cpsid	i
10000d2c:	6813      	ldr	r3, [r2, #0]
10000d2e:	2b00      	cmp	r3, #0
10000d30:	d0fc      	beq.n	10000d2c <sleep_until_callback+0xc>
10000d32:	f3bf 8f5f 	dmb	sy
10000d36:	f003 ff41 	bl	10004bbc <vPortLockInternalSpinUnlockWithNotify>
10000d3a:	2000      	movs	r0, #0
10000d3c:	2100      	movs	r1, #0
10000d3e:	bd10      	pop	{r4, pc}
10000d40:	2000234c 	.word	0x2000234c

10000d44 <runtime_init_default_alarm_pool>:
10000d44:	b570      	push	{r4, r5, r6, lr}
10000d46:	4c2e      	ldr	r4, [pc, #184]	@ (10000e00 <runtime_init_default_alarm_pool+0xbc>)
10000d48:	6925      	ldr	r5, [r4, #16]
10000d4a:	2d00      	cmp	r5, #0
10000d4c:	d004      	beq.n	10000d58 <runtime_init_default_alarm_pool+0x14>
10000d4e:	210a      	movs	r1, #10
10000d50:	482c      	ldr	r0, [pc, #176]	@ (10000e04 <runtime_init_default_alarm_pool+0xc0>)
10000d52:	f7ff fe0f 	bl	10000974 <lock_init>
10000d56:	bd70      	pop	{r4, r5, r6, pc}
10000d58:	4e2b      	ldr	r6, [pc, #172]	@ (10000e08 <runtime_init_default_alarm_pool+0xc4>)
10000d5a:	2103      	movs	r1, #3
10000d5c:	0030      	movs	r0, r6
10000d5e:	f000 fa5f 	bl	10001220 <timer_hardware_alarm_claim>
10000d62:	60e6      	str	r6, [r4, #12]
10000d64:	f7ff fbfc 	bl	10000560 <next_striped_spin_lock_num>
10000d68:	4b28      	ldr	r3, [pc, #160]	@ (10000e0c <runtime_init_default_alarm_pool+0xc8>)
10000d6a:	2203      	movs	r2, #3
10000d6c:	469c      	mov	ip, r3
10000d6e:	23d0      	movs	r3, #208	@ 0xd0
10000d70:	7022      	strb	r2, [r4, #0]
10000d72:	061b      	lsls	r3, r3, #24
10000d74:	681b      	ldr	r3, [r3, #0]
10000d76:	2101      	movs	r1, #1
10000d78:	7063      	strb	r3, [r4, #1]
10000d7a:	4b25      	ldr	r3, [pc, #148]	@ (10000e10 <runtime_init_default_alarm_pool+0xcc>)
10000d7c:	4460      	add	r0, ip
10000d7e:	60a3      	str	r3, [r4, #8]
10000d80:	230f      	movs	r3, #15
10000d82:	0080      	lsls	r0, r0, #2
10000d84:	6120      	str	r0, [r4, #16]
10000d86:	2002      	movs	r0, #2
10000d88:	8063      	strh	r3, [r4, #2]
10000d8a:	6963      	ldr	r3, [r4, #20]
10000d8c:	4249      	negs	r1, r1
10000d8e:	80a1      	strh	r1, [r4, #4]
10000d90:	8019      	strh	r1, [r3, #0]
10000d92:	3102      	adds	r1, #2
10000d94:	8619      	strh	r1, [r3, #48]	@ 0x30
10000d96:	3147      	adds	r1, #71	@ 0x47
10000d98:	831d      	strh	r5, [r3, #24]
10000d9a:	5258      	strh	r0, [r3, r1]
10000d9c:	3118      	adds	r1, #24
10000d9e:	525a      	strh	r2, [r3, r1]
10000da0:	3275      	adds	r2, #117	@ 0x75
10000da2:	395c      	subs	r1, #92	@ 0x5c
10000da4:	5299      	strh	r1, [r3, r2]
10000da6:	3218      	adds	r2, #24
10000da8:	3101      	adds	r1, #1
10000daa:	5299      	strh	r1, [r3, r2]
10000dac:	3218      	adds	r2, #24
10000dae:	3101      	adds	r1, #1
10000db0:	5299      	strh	r1, [r3, r2]
10000db2:	3218      	adds	r2, #24
10000db4:	3101      	adds	r1, #1
10000db6:	5299      	strh	r1, [r3, r2]
10000db8:	3508      	adds	r5, #8
10000dba:	3218      	adds	r2, #24
10000dbc:	529d      	strh	r5, [r3, r2]
10000dbe:	3102      	adds	r1, #2
10000dc0:	3218      	adds	r2, #24
10000dc2:	5299      	strh	r1, [r3, r2]
10000dc4:	3218      	adds	r2, #24
10000dc6:	3101      	adds	r1, #1
10000dc8:	5299      	strh	r1, [r3, r2]
10000dca:	3218      	adds	r2, #24
10000dcc:	3101      	adds	r1, #1
10000dce:	5299      	strh	r1, [r3, r2]
10000dd0:	3218      	adds	r2, #24
10000dd2:	3101      	adds	r1, #1
10000dd4:	5299      	strh	r1, [r3, r2]
10000dd6:	3218      	adds	r2, #24
10000dd8:	3101      	adds	r1, #1
10000dda:	5299      	strh	r1, [r3, r2]
10000ddc:	3218      	adds	r2, #24
10000dde:	3101      	adds	r1, #1
10000de0:	5299      	strh	r1, [r3, r2]
10000de2:	4b0c      	ldr	r3, [pc, #48]	@ (10000e14 <runtime_init_default_alarm_pool+0xd0>)
10000de4:	490c      	ldr	r1, [pc, #48]	@ (10000e18 <runtime_init_default_alarm_pool+0xd4>)
10000de6:	60dc      	str	r4, [r3, #12]
10000de8:	3001      	adds	r0, #1
10000dea:	6235      	str	r5, [r6, #32]
10000dec:	f7ff fc2e 	bl	1000064c <irq_set_exclusive_handler>
10000df0:	2101      	movs	r1, #1
10000df2:	2003      	movs	r0, #3
10000df4:	f7ff fbf2 	bl	100005dc <irq_set_enabled>
10000df8:	4b08      	ldr	r3, [pc, #32]	@ (10000e1c <runtime_init_default_alarm_pool+0xd8>)
10000dfa:	601d      	str	r5, [r3, #0]
10000dfc:	e7a7      	b.n	10000d4e <runtime_init_default_alarm_pool+0xa>
10000dfe:	46c0      	nop			@ (mov r8, r8)
10000e00:	20000fbc 	.word	0x20000fbc
10000e04:	2000234c 	.word	0x2000234c
10000e08:	40054000 	.word	0x40054000
10000e0c:	34000040 	.word	0x34000040
10000e10:	0010ffff 	.word	0x0010ffff
10000e14:	2000209c 	.word	0x2000209c
10000e18:	10000a25 	.word	0x10000a25
10000e1c:	40056038 	.word	0x40056038

10000e20 <alarm_pool_get_default>:
10000e20:	4800      	ldr	r0, [pc, #0]	@ (10000e24 <alarm_pool_get_default+0x4>)
10000e22:	4770      	bx	lr
10000e24:	20000fbc 	.word	0x20000fbc

10000e28 <alarm_pool_add_alarm_at>:
10000e28:	b5f8      	push	{r3, r4, r5, r6, r7, lr}
10000e2a:	001f      	movs	r7, r3
10000e2c:	ab08      	add	r3, sp, #32
10000e2e:	781b      	ldrb	r3, [r3, #0]
10000e30:	0004      	movs	r4, r0
10000e32:	0016      	movs	r6, r2
10000e34:	2b00      	cmp	r3, #0
10000e36:	d108      	bne.n	10000e4a <alarm_pool_add_alarm_at+0x22>
10000e38:	f000 fa04 	bl	10001244 <time_us_64>
10000e3c:	0032      	movs	r2, r6
10000e3e:	003b      	movs	r3, r7
10000e40:	1a12      	subs	r2, r2, r0
10000e42:	418b      	sbcs	r3, r1
10000e44:	2b00      	cmp	r3, #0
10000e46:	da00      	bge.n	10000e4a <alarm_pool_add_alarm_at+0x22>
10000e48:	e053      	b.n	10000ef2 <alarm_pool_add_alarm_at+0xca>
10000e4a:	6922      	ldr	r2, [r4, #16]
10000e4c:	f3ef 8010 	mrs	r0, PRIMASK
10000e50:	b672      	cpsid	i
10000e52:	6813      	ldr	r3, [r2, #0]
10000e54:	2b00      	cmp	r3, #0
10000e56:	d0fc      	beq.n	10000e52 <alarm_pool_add_alarm_at+0x2a>
10000e58:	f3bf 8f5f 	dmb	sy
10000e5c:	2302      	movs	r3, #2
10000e5e:	5ee1      	ldrsh	r1, [r4, r3]
10000e60:	6963      	ldr	r3, [r4, #20]
10000e62:	004a      	lsls	r2, r1, #1
10000e64:	1852      	adds	r2, r2, r1
10000e66:	00d2      	lsls	r2, r2, #3
10000e68:	189b      	adds	r3, r3, r2
10000e6a:	2900      	cmp	r1, #0
10000e6c:	db37      	blt.n	10000ede <alarm_pool_add_alarm_at+0xb6>
10000e6e:	881a      	ldrh	r2, [r3, #0]
10000e70:	8062      	strh	r2, [r4, #2]
10000e72:	6922      	ldr	r2, [r4, #16]
10000e74:	f3bf 8f5f 	dmb	sy
10000e78:	2500      	movs	r5, #0
10000e7a:	6015      	str	r5, [r2, #0]
10000e7c:	f380 8810 	msr	PRIMASK, r0
10000e80:	9a06      	ldr	r2, [sp, #24]
10000e82:	609e      	str	r6, [r3, #8]
10000e84:	60df      	str	r7, [r3, #12]
10000e86:	611a      	str	r2, [r3, #16]
10000e88:	9a07      	ldr	r2, [sp, #28]
10000e8a:	615a      	str	r2, [r3, #20]
10000e8c:	885a      	ldrh	r2, [r3, #2]
10000e8e:	3201      	adds	r2, #1
10000e90:	0452      	lsls	r2, r2, #17
10000e92:	0c52      	lsrs	r2, r2, #17
10000e94:	1c10      	adds	r0, r2, #0
10000e96:	2a00      	cmp	r2, #0
10000e98:	d01f      	beq.n	10000eda <alarm_pool_add_alarm_at+0xb2>
10000e9a:	b282      	uxth	r2, r0
10000e9c:	8058      	strh	r0, [r3, #2]
10000e9e:	0408      	lsls	r0, r1, #16
10000ea0:	4310      	orrs	r0, r2
10000ea2:	6926      	ldr	r6, [r4, #16]
10000ea4:	f3ef 8710 	mrs	r7, PRIMASK
10000ea8:	b672      	cpsid	i
10000eaa:	6832      	ldr	r2, [r6, #0]
10000eac:	2a00      	cmp	r2, #0
10000eae:	d0fc      	beq.n	10000eaa <alarm_pool_add_alarm_at+0x82>
10000eb0:	f3bf 8f5f 	dmb	sy
10000eb4:	88a2      	ldrh	r2, [r4, #4]
10000eb6:	801a      	strh	r2, [r3, #0]
10000eb8:	80a1      	strh	r1, [r4, #4]
10000eba:	6923      	ldr	r3, [r4, #16]
10000ebc:	f3bf 8f5f 	dmb	sy
10000ec0:	2200      	movs	r2, #0
10000ec2:	601a      	str	r2, [r3, #0]
10000ec4:	f387 8810 	msr	PRIMASK, r7
10000ec8:	490b      	ldr	r1, [pc, #44]	@ (10000ef8 <alarm_pool_add_alarm_at+0xd0>)
10000eca:	7823      	ldrb	r3, [r4, #0]
10000ecc:	468c      	mov	ip, r1
10000ece:	3201      	adds	r2, #1
10000ed0:	409a      	lsls	r2, r3
10000ed2:	68e3      	ldr	r3, [r4, #12]
10000ed4:	4463      	add	r3, ip
10000ed6:	601a      	str	r2, [r3, #0]
10000ed8:	bdf8      	pop	{r3, r4, r5, r6, r7, pc}
10000eda:	2001      	movs	r0, #1
10000edc:	e7dd      	b.n	10000e9a <alarm_pool_add_alarm_at+0x72>
10000ede:	6923      	ldr	r3, [r4, #16]
10000ee0:	f3bf 8f5f 	dmb	sy
10000ee4:	2200      	movs	r2, #0
10000ee6:	601a      	str	r2, [r3, #0]
10000ee8:	f380 8810 	msr	PRIMASK, r0
10000eec:	2001      	movs	r0, #1
10000eee:	4240      	negs	r0, r0
10000ef0:	e7f2      	b.n	10000ed8 <alarm_pool_add_alarm_at+0xb0>
10000ef2:	2000      	movs	r0, #0
10000ef4:	e7f0      	b.n	10000ed8 <alarm_pool_add_alarm_at+0xb0>
10000ef6:	46c0      	nop			@ (mov r8, r8)
10000ef8:	0000203c 	.word	0x0000203c

10000efc <alarm_pool_add_alarm_at_force_in_context>:
10000efc:	b570      	push	{r4, r5, r6, lr}
10000efe:	0001      	movs	r1, r0
10000f00:	6904      	ldr	r4, [r0, #16]
10000f02:	f3ef 8c10 	mrs	ip, PRIMASK
10000f06:	b672      	cpsid	i
10000f08:	6820      	ldr	r0, [r4, #0]
10000f0a:	2800      	cmp	r0, #0
10000f0c:	d0fc      	beq.n	10000f08 <alarm_pool_add_alarm_at_force_in_context+0xc>
10000f0e:	f3bf 8f5f 	dmb	sy
10000f12:	2002      	movs	r0, #2
10000f14:	5e0d      	ldrsh	r5, [r1, r0]
10000f16:	694c      	ldr	r4, [r1, #20]
10000f18:	0068      	lsls	r0, r5, #1
10000f1a:	1940      	adds	r0, r0, r5
10000f1c:	00c0      	lsls	r0, r0, #3
10000f1e:	1824      	adds	r4, r4, r0
10000f20:	2d00      	cmp	r5, #0
10000f22:	db37      	blt.n	10000f94 <alarm_pool_add_alarm_at_force_in_context+0x98>
10000f24:	8820      	ldrh	r0, [r4, #0]
10000f26:	8048      	strh	r0, [r1, #2]
10000f28:	6908      	ldr	r0, [r1, #16]
10000f2a:	f3bf 8f5f 	dmb	sy
10000f2e:	2600      	movs	r6, #0
10000f30:	6006      	str	r6, [r0, #0]
10000f32:	f38c 8810 	msr	PRIMASK, ip
10000f36:	60e3      	str	r3, [r4, #12]
10000f38:	8863      	ldrh	r3, [r4, #2]
10000f3a:	9804      	ldr	r0, [sp, #16]
10000f3c:	3301      	adds	r3, #1
10000f3e:	6120      	str	r0, [r4, #16]
10000f40:	045b      	lsls	r3, r3, #17
10000f42:	9805      	ldr	r0, [sp, #20]
10000f44:	0c5b      	lsrs	r3, r3, #17
10000f46:	60a2      	str	r2, [r4, #8]
10000f48:	6160      	str	r0, [r4, #20]
10000f4a:	1c1a      	adds	r2, r3, #0
10000f4c:	2b00      	cmp	r3, #0
10000f4e:	d01f      	beq.n	10000f90 <alarm_pool_add_alarm_at_force_in_context+0x94>
10000f50:	b293      	uxth	r3, r2
10000f52:	0428      	lsls	r0, r5, #16
10000f54:	8062      	strh	r2, [r4, #2]
10000f56:	4318      	orrs	r0, r3
10000f58:	690a      	ldr	r2, [r1, #16]
10000f5a:	f3ef 8c10 	mrs	ip, PRIMASK
10000f5e:	b672      	cpsid	i
10000f60:	6813      	ldr	r3, [r2, #0]
10000f62:	2b00      	cmp	r3, #0
10000f64:	d0fc      	beq.n	10000f60 <alarm_pool_add_alarm_at_force_in_context+0x64>
10000f66:	f3bf 8f5f 	dmb	sy
10000f6a:	888b      	ldrh	r3, [r1, #4]
10000f6c:	8023      	strh	r3, [r4, #0]
10000f6e:	808d      	strh	r5, [r1, #4]
10000f70:	690b      	ldr	r3, [r1, #16]
10000f72:	f3bf 8f5f 	dmb	sy
10000f76:	2200      	movs	r2, #0
10000f78:	601a      	str	r2, [r3, #0]
10000f7a:	f38c 8810 	msr	PRIMASK, ip
10000f7e:	780b      	ldrb	r3, [r1, #0]
10000f80:	3201      	adds	r2, #1
10000f82:	409a      	lsls	r2, r3
10000f84:	68cb      	ldr	r3, [r1, #12]
10000f86:	4908      	ldr	r1, [pc, #32]	@ (10000fa8 <alarm_pool_add_alarm_at_force_in_context+0xac>)
10000f88:	468c      	mov	ip, r1
10000f8a:	4463      	add	r3, ip
10000f8c:	601a      	str	r2, [r3, #0]
10000f8e:	bd70      	pop	{r4, r5, r6, pc}
10000f90:	2201      	movs	r2, #1
10000f92:	e7dd      	b.n	10000f50 <alarm_pool_add_alarm_at_force_in_context+0x54>
10000f94:	690b      	ldr	r3, [r1, #16]
10000f96:	f3bf 8f5f 	dmb	sy
10000f9a:	2200      	movs	r2, #0
10000f9c:	601a      	str	r2, [r3, #0]
10000f9e:	f38c 8810 	msr	PRIMASK, ip
10000fa2:	2001      	movs	r0, #1
10000fa4:	4240      	negs	r0, r0
10000fa6:	e7f2      	b.n	10000f8e <alarm_pool_add_alarm_at_force_in_context+0x92>
10000fa8:	0000203c 	.word	0x0000203c

10000fac <alarm_pool_cancel_alarm>:
10000fac:	b510      	push	{r4, lr}
10000fae:	8943      	ldrh	r3, [r0, #10]
10000fb0:	140a      	asrs	r2, r1, #16
10000fb2:	4293      	cmp	r3, r2
10000fb4:	dd1a      	ble.n	10000fec <alarm_pool_cancel_alarm+0x40>
10000fb6:	0053      	lsls	r3, r2, #1
10000fb8:	189b      	adds	r3, r3, r2
10000fba:	6942      	ldr	r2, [r0, #20]
10000fbc:	00db      	lsls	r3, r3, #3
10000fbe:	18d3      	adds	r3, r2, r3
10000fc0:	6904      	ldr	r4, [r0, #16]
10000fc2:	f3ef 8c10 	mrs	ip, PRIMASK
10000fc6:	b672      	cpsid	i
10000fc8:	6822      	ldr	r2, [r4, #0]
10000fca:	2a00      	cmp	r2, #0
10000fcc:	d0fc      	beq.n	10000fc8 <alarm_pool_cancel_alarm+0x1c>
10000fce:	f3bf 8f5f 	dmb	sy
10000fd2:	885a      	ldrh	r2, [r3, #2]
10000fd4:	0409      	lsls	r1, r1, #16
10000fd6:	b294      	uxth	r4, r2
10000fd8:	0c09      	lsrs	r1, r1, #16
10000fda:	428a      	cmp	r2, r1
10000fdc:	d008      	beq.n	10000ff0 <alarm_pool_cancel_alarm+0x44>
10000fde:	6903      	ldr	r3, [r0, #16]
10000fe0:	f3bf 8f5f 	dmb	sy
10000fe4:	2200      	movs	r2, #0
10000fe6:	601a      	str	r2, [r3, #0]
10000fe8:	f38c 8810 	msr	PRIMASK, ip
10000fec:	2000      	movs	r0, #0
10000fee:	bd10      	pop	{r4, pc}
10000ff0:	2280      	movs	r2, #128	@ 0x80
10000ff2:	0212      	lsls	r2, r2, #8
10000ff4:	4314      	orrs	r4, r2
10000ff6:	805c      	strh	r4, [r3, #2]
10000ff8:	2301      	movs	r3, #1
10000ffa:	6902      	ldr	r2, [r0, #16]
10000ffc:	7183      	strb	r3, [r0, #6]
10000ffe:	f3bf 8f5f 	dmb	sy
10001002:	2100      	movs	r1, #0
10001004:	6011      	str	r1, [r2, #0]
10001006:	f38c 8810 	msr	PRIMASK, ip
1000100a:	4904      	ldr	r1, [pc, #16]	@ (1000101c <alarm_pool_cancel_alarm+0x70>)
1000100c:	7802      	ldrb	r2, [r0, #0]
1000100e:	468c      	mov	ip, r1
10001010:	4093      	lsls	r3, r2
10001012:	68c2      	ldr	r2, [r0, #12]
10001014:	2001      	movs	r0, #1
10001016:	4462      	add	r2, ip
10001018:	6013      	str	r3, [r2, #0]
1000101a:	e7e8      	b.n	10000fee <alarm_pool_cancel_alarm+0x42>
1000101c:	0000203c 	.word	0x0000203c

10001020 <alarm_pool_core_num>:
10001020:	7840      	ldrb	r0, [r0, #1]
10001022:	4770      	bx	lr

10001024 <sleep_until>:
10001024:	b5f0      	push	{r4, r5, r6, r7, lr}
10001026:	4647      	mov	r7, r8
10001028:	46ce      	mov	lr, r9
1000102a:	0004      	movs	r4, r0
1000102c:	b580      	push	{r7, lr}
1000102e:	000d      	movs	r5, r1
10001030:	2696      	movs	r6, #150	@ 0x96
10001032:	4276      	negs	r6, r6
10001034:	17f7      	asrs	r7, r6, #31
10001036:	1936      	adds	r6, r6, r4
10001038:	416f      	adcs	r7, r5
1000103a:	b083      	sub	sp, #12
1000103c:	428f      	cmp	r7, r1
1000103e:	d815      	bhi.n	1000106c <sleep_until+0x48>
10001040:	d012      	beq.n	10001068 <sleep_until+0x44>
10001042:	f000 f8ff 	bl	10001244 <time_us_64>
10001046:	0032      	movs	r2, r6
10001048:	003b      	movs	r3, r7
1000104a:	1a12      	subs	r2, r2, r0
1000104c:	418b      	sbcs	r3, r1
1000104e:	2b00      	cmp	r3, #0
10001050:	dc16      	bgt.n	10001080 <sleep_until+0x5c>
10001052:	2b00      	cmp	r3, #0
10001054:	d040      	beq.n	100010d8 <sleep_until+0xb4>
10001056:	0020      	movs	r0, r4
10001058:	0029      	movs	r1, r5
1000105a:	f000 f8fd 	bl	10001258 <busy_wait_until>
1000105e:	b003      	add	sp, #12
10001060:	bcc0      	pop	{r6, r7}
10001062:	46b9      	mov	r9, r7
10001064:	46b0      	mov	r8, r6
10001066:	bdf0      	pop	{r4, r5, r6, r7, pc}
10001068:	4286      	cmp	r6, r0
1000106a:	d9ea      	bls.n	10001042 <sleep_until+0x1e>
1000106c:	2600      	movs	r6, #0
1000106e:	2700      	movs	r7, #0
10001070:	f000 f8e8 	bl	10001244 <time_us_64>
10001074:	0032      	movs	r2, r6
10001076:	003b      	movs	r3, r7
10001078:	1a12      	subs	r2, r2, r0
1000107a:	418b      	sbcs	r3, r1
1000107c:	2b00      	cmp	r3, #0
1000107e:	dde8      	ble.n	10001052 <sleep_until+0x2e>
10001080:	f000 f8e0 	bl	10001244 <time_us_64>
10001084:	0032      	movs	r2, r6
10001086:	003b      	movs	r3, r7
10001088:	1a12      	subs	r2, r2, r0
1000108a:	418b      	sbcs	r3, r1
1000108c:	2b00      	cmp	r3, #0
1000108e:	db0a      	blt.n	100010a6 <sleep_until+0x82>
10001090:	2300      	movs	r3, #0
10001092:	9301      	str	r3, [sp, #4]
10001094:	4b12      	ldr	r3, [pc, #72]	@ (100010e0 <sleep_until+0xbc>)
10001096:	0032      	movs	r2, r6
10001098:	9300      	str	r3, [sp, #0]
1000109a:	4812      	ldr	r0, [pc, #72]	@ (100010e4 <sleep_until+0xc0>)
1000109c:	003b      	movs	r3, r7
1000109e:	f7ff ff2d 	bl	10000efc <alarm_pool_add_alarm_at_force_in_context>
100010a2:	2800      	cmp	r0, #0
100010a4:	dbd7      	blt.n	10001056 <sleep_until+0x32>
100010a6:	46b8      	mov	r8, r7
100010a8:	46b1      	mov	r9, r6
100010aa:	4f0f      	ldr	r7, [pc, #60]	@ (100010e8 <sleep_until+0xc4>)
100010ac:	4e0f      	ldr	r6, [pc, #60]	@ (100010ec <sleep_until+0xc8>)
100010ae:	6a7b      	ldr	r3, [r7, #36]	@ 0x24
100010b0:	4598      	cmp	r8, r3
100010b2:	d804      	bhi.n	100010be <sleep_until+0x9a>
100010b4:	6aba      	ldr	r2, [r7, #40]	@ 0x28
100010b6:	4591      	cmp	r9, r2
100010b8:	d9cd      	bls.n	10001056 <sleep_until+0x32>
100010ba:	4598      	cmp	r8, r3
100010bc:	d1cb      	bne.n	10001056 <sleep_until+0x32>
100010be:	6832      	ldr	r2, [r6, #0]
100010c0:	f3ef 8110 	mrs	r1, PRIMASK
100010c4:	b672      	cpsid	i
100010c6:	6813      	ldr	r3, [r2, #0]
100010c8:	2b00      	cmp	r3, #0
100010ca:	d0fc      	beq.n	100010c6 <sleep_until+0xa2>
100010cc:	f3bf 8f5f 	dmb	sy
100010d0:	0030      	movs	r0, r6
100010d2:	f003 fd3f 	bl	10004b54 <vPortLockInternalSpinUnlockWithWait>
100010d6:	e7ea      	b.n	100010ae <sleep_until+0x8a>
100010d8:	2a00      	cmp	r2, #0
100010da:	d0bc      	beq.n	10001056 <sleep_until+0x32>
100010dc:	e7d0      	b.n	10001080 <sleep_until+0x5c>
100010de:	46c0      	nop			@ (mov r8, r8)
100010e0:	10000d21 	.word	0x10000d21
100010e4:	20000fbc 	.word	0x20000fbc
100010e8:	40054000 	.word	0x40054000
100010ec:	2000234c 	.word	0x2000234c

100010f0 <sleep_ms>:
100010f0:	b570      	push	{r4, r5, r6, lr}
100010f2:	0006      	movs	r6, r0
100010f4:	f000 f8a6 	bl	10001244 <time_us_64>
100010f8:	22fa      	movs	r2, #250	@ 0xfa
100010fa:	0004      	movs	r4, r0
100010fc:	000d      	movs	r5, r1
100010fe:	2300      	movs	r3, #0
10001100:	0030      	movs	r0, r6
10001102:	2100      	movs	r1, #0
10001104:	0092      	lsls	r2, r2, #2
10001106:	f000 fe2d 	bl	10001d64 <__wrap___aeabi_lmul>
1000110a:	2380      	movs	r3, #128	@ 0x80
1000110c:	1900      	adds	r0, r0, r4
1000110e:	4169      	adcs	r1, r5
10001110:	061b      	lsls	r3, r3, #24
10001112:	4299      	cmp	r1, r3
10001114:	d302      	bcc.n	1000111c <sleep_ms+0x2c>
10001116:	2001      	movs	r0, #1
10001118:	4902      	ldr	r1, [pc, #8]	@ (10001124 <sleep_ms+0x34>)
1000111a:	4240      	negs	r0, r0
1000111c:	f7ff ff82 	bl	10001024 <sleep_until>
10001120:	bd70      	pop	{r4, r5, r6, pc}
10001122:	46c0      	nop			@ (mov r8, r8)
10001124:	7fffffff 	.word	0x7fffffff

10001128 <best_effort_wfe_or_timeout>:
10001128:	b5f0      	push	{r4, r5, r6, r7, lr}
1000112a:	46d6      	mov	lr, sl
1000112c:	464f      	mov	r7, r9
1000112e:	4646      	mov	r6, r8
10001130:	b5c0      	push	{r6, r7, lr}
10001132:	0004      	movs	r4, r0
10001134:	000d      	movs	r5, r1
10001136:	b082      	sub	sp, #8
10001138:	f3ef 8705 	mrs	r7, IPSR
1000113c:	4689      	mov	r9, r1
1000113e:	2f00      	cmp	r7, #0
10001140:	d00e      	beq.n	10001160 <best_effort_wfe_or_timeout+0x38>
10001142:	4934      	ldr	r1, [pc, #208]	@ (10001214 <best_effort_wfe_or_timeout+0xec>)
10001144:	2000      	movs	r0, #0
10001146:	6a4b      	ldr	r3, [r1, #36]	@ 0x24
10001148:	42ab      	cmp	r3, r5
1000114a:	d303      	bcc.n	10001154 <best_effort_wfe_or_timeout+0x2c>
1000114c:	6a8a      	ldr	r2, [r1, #40]	@ 0x28
1000114e:	3001      	adds	r0, #1
10001150:	42a2      	cmp	r2, r4
10001152:	d326      	bcc.n	100011a2 <best_effort_wfe_or_timeout+0x7a>
10001154:	b002      	add	sp, #8
10001156:	bce0      	pop	{r5, r6, r7}
10001158:	46ba      	mov	sl, r7
1000115a:	46b1      	mov	r9, r6
1000115c:	46a8      	mov	r8, r5
1000115e:	bdf0      	pop	{r4, r5, r6, r7, pc}
10001160:	4b2d      	ldr	r3, [pc, #180]	@ (10001218 <best_effort_wfe_or_timeout+0xf0>)
10001162:	4698      	mov	r8, r3
10001164:	68db      	ldr	r3, [r3, #12]
10001166:	469a      	mov	sl, r3
10001168:	4643      	mov	r3, r8
1000116a:	4650      	mov	r0, sl
1000116c:	781e      	ldrb	r6, [r3, #0]
1000116e:	f000 f861 	bl	10001234 <timer_time_us_64>
10001172:	000b      	movs	r3, r1
10001174:	4651      	mov	r1, sl
10001176:	0002      	movs	r2, r0
10001178:	3604      	adds	r6, #4
1000117a:	00b6      	lsls	r6, r6, #2
1000117c:	5871      	ldr	r1, [r6, r1]
1000117e:	0020      	movs	r0, r4
10001180:	1a8e      	subs	r6, r1, r2
10001182:	0029      	movs	r1, r5
10001184:	1a80      	subs	r0, r0, r2
10001186:	4199      	sbcs	r1, r3
10001188:	428f      	cmp	r7, r1
1000118a:	dc11      	bgt.n	100011b0 <best_effort_wfe_or_timeout+0x88>
1000118c:	d00e      	beq.n	100011ac <best_effort_wfe_or_timeout+0x84>
1000118e:	bf20      	wfe
10001190:	4a20      	ldr	r2, [pc, #128]	@ (10001214 <best_effort_wfe_or_timeout+0xec>)
10001192:	2000      	movs	r0, #0
10001194:	6a53      	ldr	r3, [r2, #36]	@ 0x24
10001196:	454b      	cmp	r3, r9
10001198:	d3dc      	bcc.n	10001154 <best_effort_wfe_or_timeout+0x2c>
1000119a:	6a92      	ldr	r2, [r2, #40]	@ 0x28
1000119c:	3001      	adds	r0, #1
1000119e:	42a2      	cmp	r2, r4
100011a0:	d2d8      	bcs.n	10001154 <best_effort_wfe_or_timeout+0x2c>
100011a2:	1b5b      	subs	r3, r3, r5
100011a4:	1e5a      	subs	r2, r3, #1
100011a6:	4193      	sbcs	r3, r2
100011a8:	b2d8      	uxtb	r0, r3
100011aa:	e7d3      	b.n	10001154 <best_effort_wfe_or_timeout+0x2c>
100011ac:	4286      	cmp	r6, r0
100011ae:	d9ee      	bls.n	1000118e <best_effort_wfe_or_timeout+0x66>
100011b0:	f000 f848 	bl	10001244 <time_us_64>
100011b4:	0022      	movs	r2, r4
100011b6:	002b      	movs	r3, r5
100011b8:	1a12      	subs	r2, r2, r0
100011ba:	418b      	sbcs	r3, r1
100011bc:	2b00      	cmp	r3, #0
100011be:	db1a      	blt.n	100011f6 <best_effort_wfe_or_timeout+0xce>
100011c0:	2300      	movs	r3, #0
100011c2:	9301      	str	r3, [sp, #4]
100011c4:	4b15      	ldr	r3, [pc, #84]	@ (1000121c <best_effort_wfe_or_timeout+0xf4>)
100011c6:	0022      	movs	r2, r4
100011c8:	9300      	str	r3, [sp, #0]
100011ca:	4640      	mov	r0, r8
100011cc:	002b      	movs	r3, r5
100011ce:	f7ff fe95 	bl	10000efc <alarm_pool_add_alarm_at_force_in_context>
100011d2:	1e01      	subs	r1, r0, #0
100011d4:	dd0f      	ble.n	100011f6 <best_effort_wfe_or_timeout+0xce>
100011d6:	4b0f      	ldr	r3, [pc, #60]	@ (10001214 <best_effort_wfe_or_timeout+0xec>)
100011d8:	6a5a      	ldr	r2, [r3, #36]	@ 0x24
100011da:	454a      	cmp	r2, r9
100011dc:	d317      	bcc.n	1000120e <best_effort_wfe_or_timeout+0xe6>
100011de:	6a9b      	ldr	r3, [r3, #40]	@ 0x28
100011e0:	42a3      	cmp	r3, r4
100011e2:	d312      	bcc.n	1000120a <best_effort_wfe_or_timeout+0xe2>
100011e4:	4640      	mov	r0, r8
100011e6:	f7ff fee1 	bl	10000fac <alarm_pool_cancel_alarm>
100011ea:	4a0a      	ldr	r2, [pc, #40]	@ (10001214 <best_effort_wfe_or_timeout+0xec>)
100011ec:	2000      	movs	r0, #0
100011ee:	6a53      	ldr	r3, [r2, #36]	@ 0x24
100011f0:	454b      	cmp	r3, r9
100011f2:	d3af      	bcc.n	10001154 <best_effort_wfe_or_timeout+0x2c>
100011f4:	e7d1      	b.n	1000119a <best_effort_wfe_or_timeout+0x72>
100011f6:	4a07      	ldr	r2, [pc, #28]	@ (10001214 <best_effort_wfe_or_timeout+0xec>)
100011f8:	2000      	movs	r0, #0
100011fa:	6a53      	ldr	r3, [r2, #36]	@ 0x24
100011fc:	454b      	cmp	r3, r9
100011fe:	d3a9      	bcc.n	10001154 <best_effort_wfe_or_timeout+0x2c>
10001200:	6a92      	ldr	r2, [r2, #40]	@ 0x28
10001202:	2001      	movs	r0, #1
10001204:	42a2      	cmp	r2, r4
10001206:	d2a5      	bcs.n	10001154 <best_effort_wfe_or_timeout+0x2c>
10001208:	e7cb      	b.n	100011a2 <best_effort_wfe_or_timeout+0x7a>
1000120a:	454a      	cmp	r2, r9
1000120c:	d1ea      	bne.n	100011e4 <best_effort_wfe_or_timeout+0xbc>
1000120e:	bf20      	wfe
10001210:	e7e8      	b.n	100011e4 <best_effort_wfe_or_timeout+0xbc>
10001212:	46c0      	nop			@ (mov r8, r8)
10001214:	40054000 	.word	0x40054000
10001218:	20000fbc 	.word	0x20000fbc
1000121c:	10000d21 	.word	0x10000d21

10001220 <timer_hardware_alarm_claim>:
10001220:	b510      	push	{r4, lr}
10001222:	4a02      	ldr	r2, [pc, #8]	@ (1000122c <timer_hardware_alarm_claim+0xc>)
10001224:	4802      	ldr	r0, [pc, #8]	@ (10001230 <timer_hardware_alarm_claim+0x10>)
10001226:	f7ff f92b 	bl	10000480 <hw_claim_or_assert>
1000122a:	bd10      	pop	{r4, pc}
1000122c:	10005a88 	.word	0x10005a88
10001230:	20001c28 	.word	0x20001c28

10001234 <timer_time_us_64>:
10001234:	0003      	movs	r3, r0
10001236:	6a41      	ldr	r1, [r0, #36]	@ 0x24
10001238:	000a      	movs	r2, r1
1000123a:	6a98      	ldr	r0, [r3, #40]	@ 0x28
1000123c:	6a59      	ldr	r1, [r3, #36]	@ 0x24
1000123e:	428a      	cmp	r2, r1
10001240:	d1fa      	bne.n	10001238 <timer_time_us_64+0x4>
10001242:	4770      	bx	lr

10001244 <time_us_64>:
10001244:	4b03      	ldr	r3, [pc, #12]	@ (10001254 <time_us_64+0x10>)
10001246:	6a59      	ldr	r1, [r3, #36]	@ 0x24
10001248:	000a      	movs	r2, r1
1000124a:	6a98      	ldr	r0, [r3, #40]	@ 0x28
1000124c:	6a59      	ldr	r1, [r3, #36]	@ 0x24
1000124e:	4291      	cmp	r1, r2
10001250:	d1fa      	bne.n	10001248 <time_us_64+0x4>
10001252:	4770      	bx	lr
10001254:	40054000 	.word	0x40054000

10001258 <busy_wait_until>:
10001258:	4a06      	ldr	r2, [pc, #24]	@ (10001274 <busy_wait_until+0x1c>)
1000125a:	6a53      	ldr	r3, [r2, #36]	@ 0x24
1000125c:	4299      	cmp	r1, r3
1000125e:	d8fc      	bhi.n	1000125a <busy_wait_until+0x2>
10001260:	d107      	bne.n	10001272 <busy_wait_until+0x1a>
10001262:	4b04      	ldr	r3, [pc, #16]	@ (10001274 <busy_wait_until+0x1c>)
10001264:	e002      	b.n	1000126c <busy_wait_until+0x14>
10001266:	6a5a      	ldr	r2, [r3, #36]	@ 0x24
10001268:	4291      	cmp	r1, r2
1000126a:	d102      	bne.n	10001272 <busy_wait_until+0x1a>
1000126c:	6a9a      	ldr	r2, [r3, #40]	@ 0x28
1000126e:	4282      	cmp	r2, r0
10001270:	d3f9      	bcc.n	10001266 <busy_wait_until+0xe>
10001272:	4770      	bx	lr
10001274:	40054000 	.word	0x40054000

10001278 <clock_configure_int_divider>:
10001278:	b5f8      	push	{r3, r4, r5, r6, r7, lr}
1000127a:	46de      	mov	lr, fp
1000127c:	464e      	mov	r6, r9
1000127e:	4657      	mov	r7, sl
10001280:	4645      	mov	r5, r8
10001282:	b5e0      	push	{r5, r6, r7, lr}
10001284:	468b      	mov	fp, r1
10001286:	0005      	movs	r5, r0
10001288:	990a      	ldr	r1, [sp, #40]	@ 0x28
1000128a:	0018      	movs	r0, r3
1000128c:	0016      	movs	r6, r2
1000128e:	f000 fac9 	bl	10001824 <__wrap___aeabi_uidiv>
10001292:	9b0a      	ldr	r3, [sp, #40]	@ 0x28
10001294:	006c      	lsls	r4, r5, #1
10001296:	021f      	lsls	r7, r3, #8
10001298:	4b32      	ldr	r3, [pc, #200]	@ (10001364 <clock_configure_int_divider+0xec>)
1000129a:	1964      	adds	r4, r4, r5
1000129c:	469c      	mov	ip, r3
1000129e:	00a4      	lsls	r4, r4, #2
100012a0:	4464      	add	r4, ip
100012a2:	6863      	ldr	r3, [r4, #4]
100012a4:	4681      	mov	r9, r0
100012a6:	429f      	cmp	r7, r3
100012a8:	d900      	bls.n	100012ac <clock_configure_int_divider+0x34>
100012aa:	6067      	str	r7, [r4, #4]
100012ac:	1f2b      	subs	r3, r5, #4
100012ae:	b2db      	uxtb	r3, r3
100012b0:	4698      	mov	r8, r3
100012b2:	2b01      	cmp	r3, #1
100012b4:	d930      	bls.n	10001318 <clock_configure_int_divider+0xa0>
100012b6:	23c0      	movs	r3, #192	@ 0xc0
100012b8:	2280      	movs	r2, #128	@ 0x80
100012ba:	019b      	lsls	r3, r3, #6
100012bc:	18e3      	adds	r3, r4, r3
100012be:	0112      	lsls	r2, r2, #4
100012c0:	601a      	str	r2, [r3, #0]
100012c2:	4b29      	ldr	r3, [pc, #164]	@ (10001368 <clock_configure_int_divider+0xf0>)
100012c4:	00ad      	lsls	r5, r5, #2
100012c6:	5959      	ldr	r1, [r3, r5]
100012c8:	469a      	mov	sl, r3
100012ca:	2900      	cmp	r1, #0
100012cc:	d11b      	bne.n	10001306 <clock_configure_int_divider+0x8e>
100012ce:	0173      	lsls	r3, r6, #5
100012d0:	26e0      	movs	r6, #224	@ 0xe0
100012d2:	6822      	ldr	r2, [r4, #0]
100012d4:	4053      	eors	r3, r2
100012d6:	401e      	ands	r6, r3
100012d8:	2380      	movs	r3, #128	@ 0x80
100012da:	4642      	mov	r2, r8
100012dc:	015b      	lsls	r3, r3, #5
100012de:	18e3      	adds	r3, r4, r3
100012e0:	601e      	str	r6, [r3, #0]
100012e2:	2a01      	cmp	r2, #1
100012e4:	d930      	bls.n	10001348 <clock_configure_int_divider+0xd0>
100012e6:	2380      	movs	r3, #128	@ 0x80
100012e8:	2280      	movs	r2, #128	@ 0x80
100012ea:	019b      	lsls	r3, r3, #6
100012ec:	18e3      	adds	r3, r4, r3
100012ee:	0112      	lsls	r2, r2, #4
100012f0:	601a      	str	r2, [r3, #0]
100012f2:	4653      	mov	r3, sl
100012f4:	464a      	mov	r2, r9
100012f6:	6067      	str	r7, [r4, #4]
100012f8:	515a      	str	r2, [r3, r5]
100012fa:	bcf0      	pop	{r4, r5, r6, r7}
100012fc:	46bb      	mov	fp, r7
100012fe:	46b2      	mov	sl, r6
10001300:	46a9      	mov	r9, r5
10001302:	46a0      	mov	r8, r4
10001304:	bdf8      	pop	{r3, r4, r5, r6, r7, pc}
10001306:	6958      	ldr	r0, [r3, #20]
10001308:	f000 fa8c 	bl	10001824 <__wrap___aeabi_uidiv>
1000130c:	3001      	adds	r0, #1
1000130e:	0043      	lsls	r3, r0, #1
10001310:	181b      	adds	r3, r3, r0
10001312:	3b03      	subs	r3, #3
10001314:	d2fd      	bcs.n	10001312 <clock_configure_int_divider+0x9a>
10001316:	e7da      	b.n	100012ce <clock_configure_int_divider+0x56>
10001318:	465b      	mov	r3, fp
1000131a:	2b01      	cmp	r3, #1
1000131c:	d1cb      	bne.n	100012b6 <clock_configure_int_divider+0x3e>
1000131e:	23c0      	movs	r3, #192	@ 0xc0
10001320:	2203      	movs	r2, #3
10001322:	019b      	lsls	r3, r3, #6
10001324:	18e3      	adds	r3, r4, r3
10001326:	601a      	str	r2, [r3, #0]
10001328:	3a02      	subs	r2, #2
1000132a:	68a3      	ldr	r3, [r4, #8]
1000132c:	421a      	tst	r2, r3
1000132e:	d0fc      	beq.n	1000132a <clock_configure_int_divider+0xb2>
10001330:	0173      	lsls	r3, r6, #5
10001332:	26e0      	movs	r6, #224	@ 0xe0
10001334:	6822      	ldr	r2, [r4, #0]
10001336:	00ad      	lsls	r5, r5, #2
10001338:	4053      	eors	r3, r2
1000133a:	401e      	ands	r6, r3
1000133c:	2380      	movs	r3, #128	@ 0x80
1000133e:	4a0a      	ldr	r2, [pc, #40]	@ (10001368 <clock_configure_int_divider+0xf0>)
10001340:	015b      	lsls	r3, r3, #5
10001342:	4692      	mov	sl, r2
10001344:	18e3      	adds	r3, r4, r3
10001346:	601e      	str	r6, [r3, #0]
10001348:	465a      	mov	r2, fp
1000134a:	6821      	ldr	r1, [r4, #0]
1000134c:	4051      	eors	r1, r2
1000134e:	2203      	movs	r2, #3
10001350:	400a      	ands	r2, r1
10001352:	601a      	str	r2, [r3, #0]
10001354:	2201      	movs	r2, #1
10001356:	465b      	mov	r3, fp
10001358:	409a      	lsls	r2, r3
1000135a:	68a3      	ldr	r3, [r4, #8]
1000135c:	421a      	tst	r2, r3
1000135e:	d0fc      	beq.n	1000135a <clock_configure_int_divider+0xe2>
10001360:	e7c1      	b.n	100012e6 <clock_configure_int_divider+0x6e>
10001362:	46c0      	nop			@ (mov r8, r8)
10001364:	40008000 	.word	0x40008000
10001368:	20001c2c 	.word	0x20001c2c

1000136c <clock_configure_undivided>:
1000136c:	b5f0      	push	{r4, r5, r6, r7, lr}
1000136e:	4646      	mov	r6, r8
10001370:	464f      	mov	r7, r9
10001372:	46d6      	mov	lr, sl
10001374:	b5c0      	push	{r6, r7, lr}
10001376:	001f      	movs	r7, r3
10001378:	4b34      	ldr	r3, [pc, #208]	@ (1000144c <clock_configure_undivided+0xe0>)
1000137a:	0044      	lsls	r4, r0, #1
1000137c:	469c      	mov	ip, r3
1000137e:	1824      	adds	r4, r4, r0
10001380:	00a4      	lsls	r4, r4, #2
10001382:	4464      	add	r4, ip
10001384:	6863      	ldr	r3, [r4, #4]
10001386:	4688      	mov	r8, r1
10001388:	0016      	movs	r6, r2
1000138a:	2bff      	cmp	r3, #255	@ 0xff
1000138c:	d802      	bhi.n	10001394 <clock_configure_undivided+0x28>
1000138e:	2380      	movs	r3, #128	@ 0x80
10001390:	005b      	lsls	r3, r3, #1
10001392:	6063      	str	r3, [r4, #4]
10001394:	1f03      	subs	r3, r0, #4
10001396:	b2db      	uxtb	r3, r3
10001398:	469a      	mov	sl, r3
1000139a:	2b01      	cmp	r3, #1
1000139c:	d930      	bls.n	10001400 <clock_configure_undivided+0x94>
1000139e:	23c0      	movs	r3, #192	@ 0xc0
100013a0:	2280      	movs	r2, #128	@ 0x80
100013a2:	019b      	lsls	r3, r3, #6
100013a4:	18e3      	adds	r3, r4, r3
100013a6:	0112      	lsls	r2, r2, #4
100013a8:	601a      	str	r2, [r3, #0]
100013aa:	4b29      	ldr	r3, [pc, #164]	@ (10001450 <clock_configure_undivided+0xe4>)
100013ac:	0085      	lsls	r5, r0, #2
100013ae:	5959      	ldr	r1, [r3, r5]
100013b0:	4699      	mov	r9, r3
100013b2:	2900      	cmp	r1, #0
100013b4:	d11b      	bne.n	100013ee <clock_configure_undivided+0x82>
100013b6:	0173      	lsls	r3, r6, #5
100013b8:	26e0      	movs	r6, #224	@ 0xe0
100013ba:	6822      	ldr	r2, [r4, #0]
100013bc:	4053      	eors	r3, r2
100013be:	401e      	ands	r6, r3
100013c0:	2380      	movs	r3, #128	@ 0x80
100013c2:	4652      	mov	r2, sl
100013c4:	015b      	lsls	r3, r3, #5
100013c6:	18e3      	adds	r3, r4, r3
100013c8:	601e      	str	r6, [r3, #0]
100013ca:	2a01      	cmp	r2, #1
100013cc:	d930      	bls.n	10001430 <clock_configure_undivided+0xc4>
100013ce:	2380      	movs	r3, #128	@ 0x80
100013d0:	2280      	movs	r2, #128	@ 0x80
100013d2:	019b      	lsls	r3, r3, #6
100013d4:	18e3      	adds	r3, r4, r3
100013d6:	0112      	lsls	r2, r2, #4
100013d8:	601a      	str	r2, [r3, #0]
100013da:	2380      	movs	r3, #128	@ 0x80
100013dc:	005b      	lsls	r3, r3, #1
100013de:	6063      	str	r3, [r4, #4]
100013e0:	464b      	mov	r3, r9
100013e2:	515f      	str	r7, [r3, r5]
100013e4:	bce0      	pop	{r5, r6, r7}
100013e6:	46ba      	mov	sl, r7
100013e8:	46b1      	mov	r9, r6
100013ea:	46a8      	mov	r8, r5
100013ec:	bdf0      	pop	{r4, r5, r6, r7, pc}
100013ee:	6958      	ldr	r0, [r3, #20]
100013f0:	f000 fa18 	bl	10001824 <__wrap___aeabi_uidiv>
100013f4:	3001      	adds	r0, #1
100013f6:	0043      	lsls	r3, r0, #1
100013f8:	181b      	adds	r3, r3, r0
100013fa:	3b03      	subs	r3, #3
100013fc:	d2fd      	bcs.n	100013fa <clock_configure_undivided+0x8e>
100013fe:	e7da      	b.n	100013b6 <clock_configure_undivided+0x4a>
10001400:	4643      	mov	r3, r8
10001402:	2b01      	cmp	r3, #1
10001404:	d1cb      	bne.n	1000139e <clock_configure_undivided+0x32>
10001406:	23c0      	movs	r3, #192	@ 0xc0
10001408:	2203      	movs	r2, #3
1000140a:	019b      	lsls	r3, r3, #6
1000140c:	18e3      	adds	r3, r4, r3
1000140e:	601a      	str	r2, [r3, #0]
10001410:	3a02      	subs	r2, #2
10001412:	68a3      	ldr	r3, [r4, #8]
10001414:	421a      	tst	r2, r3
10001416:	d0fc      	beq.n	10001412 <clock_configure_undivided+0xa6>
10001418:	0173      	lsls	r3, r6, #5
1000141a:	26e0      	movs	r6, #224	@ 0xe0
1000141c:	6822      	ldr	r2, [r4, #0]
1000141e:	0085      	lsls	r5, r0, #2
10001420:	4053      	eors	r3, r2
10001422:	401e      	ands	r6, r3
10001424:	2380      	movs	r3, #128	@ 0x80
10001426:	4a0a      	ldr	r2, [pc, #40]	@ (10001450 <clock_configure_undivided+0xe4>)
10001428:	015b      	lsls	r3, r3, #5
1000142a:	4691      	mov	r9, r2
1000142c:	18e3      	adds	r3, r4, r3
1000142e:	601e      	str	r6, [r3, #0]
10001430:	4642      	mov	r2, r8
10001432:	6821      	ldr	r1, [r4, #0]
10001434:	4051      	eors	r1, r2
10001436:	2203      	movs	r2, #3
10001438:	400a      	ands	r2, r1
1000143a:	601a      	str	r2, [r3, #0]
1000143c:	2301      	movs	r3, #1
1000143e:	4642      	mov	r2, r8
10001440:	4093      	lsls	r3, r2
10001442:	68a2      	ldr	r2, [r4, #8]
10001444:	4213      	tst	r3, r2
10001446:	d0fc      	beq.n	10001442 <clock_configure_undivided+0xd6>
10001448:	e7c1      	b.n	100013ce <clock_configure_undivided+0x62>
1000144a:	46c0      	nop			@ (mov r8, r8)
1000144c:	40008000 	.word	0x40008000
10001450:	20001c2c 	.word	0x20001c2c

10001454 <clock_get_hz>:
10001454:	4b01      	ldr	r3, [pc, #4]	@ (1000145c <clock_get_hz+0x8>)
10001456:	0080      	lsls	r0, r0, #2
10001458:	58c0      	ldr	r0, [r0, r3]
1000145a:	4770      	bx	lr
1000145c:	20001c2c 	.word	0x20001c2c

10001460 <pll_init>:
10001460:	b5f8      	push	{r3, r4, r5, r6, r7, lr}
10001462:	0004      	movs	r4, r0
10001464:	4821      	ldr	r0, [pc, #132]	@ (100014ec <pll_init+0x8c>)
10001466:	001e      	movs	r6, r3
10001468:	0017      	movs	r7, r2
1000146a:	000d      	movs	r5, r1
1000146c:	f000 f9da 	bl	10001824 <__wrap___aeabi_uidiv>
10001470:	0001      	movs	r1, r0
10001472:	0038      	movs	r0, r7
10001474:	f000 f9d6 	bl	10001824 <__wrap___aeabi_uidiv>
10001478:	9b06      	ldr	r3, [sp, #24]
1000147a:	0436      	lsls	r6, r6, #16
1000147c:	031b      	lsls	r3, r3, #12
1000147e:	431e      	orrs	r6, r3
10001480:	6823      	ldr	r3, [r4, #0]
10001482:	2b00      	cmp	r3, #0
10001484:	db20      	blt.n	100014c8 <pll_init+0x68>
10001486:	4b1a      	ldr	r3, [pc, #104]	@ (100014f0 <pll_init+0x90>)
10001488:	491a      	ldr	r1, [pc, #104]	@ (100014f4 <pll_init+0x94>)
1000148a:	18e3      	adds	r3, r4, r3
1000148c:	1e5a      	subs	r2, r3, #1
1000148e:	4193      	sbcs	r3, r2
10001490:	2280      	movs	r2, #128	@ 0x80
10001492:	0192      	lsls	r2, r2, #6
10001494:	4694      	mov	ip, r2
10001496:	425b      	negs	r3, r3
10001498:	0b1b      	lsrs	r3, r3, #12
1000149a:	4a17      	ldr	r2, [pc, #92]	@ (100014f8 <pll_init+0x98>)
1000149c:	031b      	lsls	r3, r3, #12
1000149e:	4463      	add	r3, ip
100014a0:	6013      	str	r3, [r2, #0]
100014a2:	4a16      	ldr	r2, [pc, #88]	@ (100014fc <pll_init+0x9c>)
100014a4:	6013      	str	r3, [r2, #0]
100014a6:	001f      	movs	r7, r3
100014a8:	680a      	ldr	r2, [r1, #0]
100014aa:	4397      	bics	r7, r2
100014ac:	d1fb      	bne.n	100014a6 <pll_init+0x46>
100014ae:	4b14      	ldr	r3, [pc, #80]	@ (10001500 <pll_init+0xa0>)
100014b0:	6025      	str	r5, [r4, #0]
100014b2:	18e2      	adds	r2, r4, r3
100014b4:	2321      	movs	r3, #33	@ 0x21
100014b6:	60a0      	str	r0, [r4, #8]
100014b8:	6013      	str	r3, [r2, #0]
100014ba:	6823      	ldr	r3, [r4, #0]
100014bc:	2b00      	cmp	r3, #0
100014be:	dafc      	bge.n	100014ba <pll_init+0x5a>
100014c0:	2308      	movs	r3, #8
100014c2:	60e6      	str	r6, [r4, #12]
100014c4:	6013      	str	r3, [r2, #0]
100014c6:	bdf8      	pop	{r3, r4, r5, r6, r7, pc}
100014c8:	233f      	movs	r3, #63	@ 0x3f
100014ca:	6822      	ldr	r2, [r4, #0]
100014cc:	4013      	ands	r3, r2
100014ce:	42ab      	cmp	r3, r5
100014d0:	d1d9      	bne.n	10001486 <pll_init+0x26>
100014d2:	68a3      	ldr	r3, [r4, #8]
100014d4:	051b      	lsls	r3, r3, #20
100014d6:	0d1b      	lsrs	r3, r3, #20
100014d8:	4283      	cmp	r3, r0
100014da:	d1d4      	bne.n	10001486 <pll_init+0x26>
100014dc:	22ee      	movs	r2, #238	@ 0xee
100014de:	68e3      	ldr	r3, [r4, #12]
100014e0:	02d2      	lsls	r2, r2, #11
100014e2:	4013      	ands	r3, r2
100014e4:	42b3      	cmp	r3, r6
100014e6:	d1ce      	bne.n	10001486 <pll_init+0x26>
100014e8:	e7ed      	b.n	100014c6 <pll_init+0x66>
100014ea:	46c0      	nop			@ (mov r8, r8)
100014ec:	00b71b00 	.word	0x00b71b00
100014f0:	bffd4000 	.word	0xbffd4000
100014f4:	4000c008 	.word	0x4000c008
100014f8:	4000e000 	.word	0x4000e000
100014fc:	4000f000 	.word	0x4000f000
10001500:	00003004 	.word	0x00003004

10001504 <watchdog_reboot>:
10001504:	b510      	push	{r4, lr}
10001506:	2480      	movs	r4, #128	@ 0x80
10001508:	4b1c      	ldr	r3, [pc, #112]	@ (1000157c <watchdog_reboot+0x78>)
1000150a:	05e4      	lsls	r4, r4, #23
1000150c:	601c      	str	r4, [r3, #0]
1000150e:	2800      	cmp	r0, #0
10001510:	d01a      	beq.n	10001548 <watchdog_reboot+0x44>
10001512:	2301      	movs	r3, #1
10001514:	4c1a      	ldr	r4, [pc, #104]	@ (10001580 <watchdog_reboot+0x7c>)
10001516:	4318      	orrs	r0, r3
10001518:	4b1a      	ldr	r3, [pc, #104]	@ (10001584 <watchdog_reboot+0x80>)
1000151a:	61dc      	str	r4, [r3, #28]
1000151c:	4c1a      	ldr	r4, [pc, #104]	@ (10001588 <watchdog_reboot+0x84>)
1000151e:	4044      	eors	r4, r0
10001520:	621c      	str	r4, [r3, #32]
10001522:	6259      	str	r1, [r3, #36]	@ 0x24
10001524:	6298      	str	r0, [r3, #40]	@ 0x28
10001526:	2180      	movs	r1, #128	@ 0x80
10001528:	4b14      	ldr	r3, [pc, #80]	@ (1000157c <watchdog_reboot+0x78>)
1000152a:	05c9      	lsls	r1, r1, #23
1000152c:	6019      	str	r1, [r3, #0]
1000152e:	4817      	ldr	r0, [pc, #92]	@ (1000158c <watchdog_reboot+0x88>)
10001530:	4917      	ldr	r1, [pc, #92]	@ (10001590 <watchdog_reboot+0x8c>)
10001532:	6008      	str	r0, [r1, #0]
10001534:	21e0      	movs	r1, #224	@ 0xe0
10001536:	04c9      	lsls	r1, r1, #19
10001538:	6019      	str	r1, [r3, #0]
1000153a:	2a00      	cmp	r2, #0
1000153c:	d107      	bne.n	1000154e <watchdog_reboot+0x4a>
1000153e:	2280      	movs	r2, #128	@ 0x80
10001540:	4b14      	ldr	r3, [pc, #80]	@ (10001594 <watchdog_reboot+0x90>)
10001542:	0612      	lsls	r2, r2, #24
10001544:	601a      	str	r2, [r3, #0]
10001546:	bd10      	pop	{r4, pc}
10001548:	4b0e      	ldr	r3, [pc, #56]	@ (10001584 <watchdog_reboot+0x80>)
1000154a:	61d8      	str	r0, [r3, #28]
1000154c:	e7eb      	b.n	10001526 <watchdog_reboot+0x22>
1000154e:	0153      	lsls	r3, r2, #5
10001550:	1a9b      	subs	r3, r3, r2
10001552:	009b      	lsls	r3, r3, #2
10001554:	189a      	adds	r2, r3, r2
10001556:	2380      	movs	r3, #128	@ 0x80
10001558:	0112      	lsls	r2, r2, #4
1000155a:	045b      	lsls	r3, r3, #17
1000155c:	429a      	cmp	r2, r3
1000155e:	d209      	bcs.n	10001574 <watchdog_reboot+0x70>
10001560:	0013      	movs	r3, r2
10001562:	490d      	ldr	r1, [pc, #52]	@ (10001598 <watchdog_reboot+0x94>)
10001564:	600b      	str	r3, [r1, #0]
10001566:	4b07      	ldr	r3, [pc, #28]	@ (10001584 <watchdog_reboot+0x80>)
10001568:	605a      	str	r2, [r3, #4]
1000156a:	2280      	movs	r2, #128	@ 0x80
1000156c:	4b09      	ldr	r3, [pc, #36]	@ (10001594 <watchdog_reboot+0x90>)
1000156e:	05d2      	lsls	r2, r2, #23
10001570:	601a      	str	r2, [r3, #0]
10001572:	e7e8      	b.n	10001546 <watchdog_reboot+0x42>
10001574:	4b09      	ldr	r3, [pc, #36]	@ (1000159c <watchdog_reboot+0x98>)
10001576:	001a      	movs	r2, r3
10001578:	e7f3      	b.n	10001562 <watchdog_reboot+0x5e>
1000157a:	46c0      	nop			@ (mov r8, r8)
1000157c:	4005b000 	.word	0x4005b000
10001580:	b007c0d3 	.word	0xb007c0d3
10001584:	40058000 	.word	0x40058000
10001588:	4ff83f2d 	.word	0x4ff83f2d
1000158c:	0001fffc 	.word	0x0001fffc
10001590:	40012008 	.word	0x40012008
10001594:	4005a000 	.word	0x4005a000
10001598:	2000208c 	.word	0x2000208c
1000159c:	00ffffff 	.word	0x00ffffff

100015a0 <tick_start>:
100015a0:	2380      	movs	r3, #128	@ 0x80
100015a2:	4a02      	ldr	r2, [pc, #8]	@ (100015ac <tick_start+0xc>)
100015a4:	009b      	lsls	r3, r3, #2
100015a6:	430b      	orrs	r3, r1
100015a8:	62d3      	str	r3, [r2, #44]	@ 0x2c
100015aa:	4770      	bx	lr
100015ac:	40058000 	.word	0x40058000

100015b0 <rom_func_lookup>:
100015b0:	2314      	movs	r3, #20
100015b2:	b510      	push	{r4, lr}
100015b4:	0001      	movs	r1, r0
100015b6:	8818      	ldrh	r0, [r3, #0]
100015b8:	3304      	adds	r3, #4
100015ba:	881b      	ldrh	r3, [r3, #0]
100015bc:	4798      	blx	r3
100015be:	bd10      	pop	{r4, pc}

100015c0 <rom_data_lookup>:
100015c0:	2316      	movs	r3, #22
100015c2:	b510      	push	{r4, lr}
100015c4:	0001      	movs	r1, r0
100015c6:	8818      	ldrh	r0, [r3, #0]
100015c8:	3302      	adds	r3, #2
100015ca:	881b      	ldrh	r3, [r3, #0]
100015cc:	4798      	blx	r3
100015ce:	bd10      	pop	{r4, pc}

100015d0 <rom_funcs_lookup>:
100015d0:	b5f8      	push	{r3, r4, r5, r6, r7, lr}
100015d2:	4647      	mov	r7, r8
100015d4:	46ce      	mov	lr, r9
100015d6:	b580      	push	{r7, lr}
100015d8:	1e0f      	subs	r7, r1, #0
100015da:	d019      	beq.n	10001610 <rom_funcs_lookup+0x40>
100015dc:	2314      	movs	r3, #20
100015de:	4699      	mov	r9, r3
100015e0:	3304      	adds	r3, #4
100015e2:	0004      	movs	r4, r0
100015e4:	2500      	movs	r5, #0
100015e6:	2601      	movs	r6, #1
100015e8:	4698      	mov	r8, r3
100015ea:	464b      	mov	r3, r9
100015ec:	8818      	ldrh	r0, [r3, #0]
100015ee:	4643      	mov	r3, r8
100015f0:	6821      	ldr	r1, [r4, #0]
100015f2:	881b      	ldrh	r3, [r3, #0]
100015f4:	4798      	blx	r3
100015f6:	c401      	stmia	r4!, {r0}
100015f8:	1e43      	subs	r3, r0, #1
100015fa:	4198      	sbcs	r0, r3
100015fc:	3501      	adds	r5, #1
100015fe:	4240      	negs	r0, r0
10001600:	4006      	ands	r6, r0
10001602:	42af      	cmp	r7, r5
10001604:	d1f1      	bne.n	100015ea <rom_funcs_lookup+0x1a>
10001606:	0030      	movs	r0, r6
10001608:	bcc0      	pop	{r6, r7}
1000160a:	46b9      	mov	r9, r7
1000160c:	46b0      	mov	r8, r6
1000160e:	bdf8      	pop	{r3, r4, r5, r6, r7, pc}
10001610:	2601      	movs	r6, #1
10001612:	e7f8      	b.n	10001606 <rom_funcs_lookup+0x36>

10001614 <rom_reset_usb_boot_extra>:
10001614:	2314      	movs	r3, #20
10001616:	b570      	push	{r4, r5, r6, lr}
10001618:	0004      	movs	r4, r0
1000161a:	8818      	ldrh	r0, [r3, #0]
1000161c:	3304      	adds	r3, #4
1000161e:	881b      	ldrh	r3, [r3, #0]
10001620:	000d      	movs	r5, r1
10001622:	4905      	ldr	r1, [pc, #20]	@ (10001638 <rom_reset_usb_boot_extra+0x24>)
10001624:	4798      	blx	r3
10001626:	0003      	movs	r3, r0
10001628:	2000      	movs	r0, #0
1000162a:	2c00      	cmp	r4, #0
1000162c:	db01      	blt.n	10001632 <rom_reset_usb_boot_extra+0x1e>
1000162e:	3001      	adds	r0, #1
10001630:	40a0      	lsls	r0, r4
10001632:	0029      	movs	r1, r5
10001634:	4798      	blx	r3
10001636:	46c0      	nop			@ (mov r8, r8)
10001638:	00004255 	.word	0x00004255

1000163c <xosc_init>:
1000163c:	23aa      	movs	r3, #170	@ 0xaa
1000163e:	4a06      	ldr	r2, [pc, #24]	@ (10001658 <xosc_init+0x1c>)
10001640:	011b      	lsls	r3, r3, #4
10001642:	6013      	str	r3, [r2, #0]
10001644:	238d      	movs	r3, #141	@ 0x8d
10001646:	005b      	lsls	r3, r3, #1
10001648:	60d3      	str	r3, [r2, #12]
1000164a:	4904      	ldr	r1, [pc, #16]	@ (1000165c <xosc_init+0x20>)
1000164c:	4b04      	ldr	r3, [pc, #16]	@ (10001660 <xosc_init+0x24>)
1000164e:	6019      	str	r1, [r3, #0]
10001650:	6853      	ldr	r3, [r2, #4]
10001652:	2b00      	cmp	r3, #0
10001654:	dafc      	bge.n	10001650 <xosc_init+0x14>
10001656:	4770      	bx	lr
10001658:	40024000 	.word	0x40024000
1000165c:	00fab000 	.word	0x00fab000
10001660:	40026000 	.word	0x40026000

10001664 <first_per_core_initializer>:
10001664:	4770      	bx	lr
10001666:	46c0      	nop			@ (mov r8, r8)

10001668 <hard_assertion_failure>:
10001668:	b510      	push	{r4, lr}
1000166a:	4801      	ldr	r0, [pc, #4]	@ (10001670 <hard_assertion_failure+0x8>)
1000166c:	f7fe fef0 	bl	10000450 <panic>
10001670:	10005aac 	.word	0x10005aac

10001674 <runtime_run_initializers>:
10001674:	b570      	push	{r4, r5, r6, lr}
10001676:	4d07      	ldr	r5, [pc, #28]	@ (10001694 <runtime_run_initializers+0x20>)
10001678:	4e07      	ldr	r6, [pc, #28]	@ (10001698 <runtime_run_initializers+0x24>)
1000167a:	42b5      	cmp	r5, r6
1000167c:	d209      	bcs.n	10001692 <runtime_run_initializers+0x1e>
1000167e:	2400      	movs	r4, #0
10001680:	3e01      	subs	r6, #1
10001682:	1b76      	subs	r6, r6, r5
10001684:	08b6      	lsrs	r6, r6, #2
10001686:	cd08      	ldmia	r5!, {r3}
10001688:	4798      	blx	r3
1000168a:	0023      	movs	r3, r4
1000168c:	3401      	adds	r4, #1
1000168e:	42b3      	cmp	r3, r6
10001690:	d1f9      	bne.n	10001686 <runtime_run_initializers+0x12>
10001692:	bd70      	pop	{r4, r5, r6, pc}
10001694:	100059d0 	.word	0x100059d0
10001698:	10005a0c 	.word	0x10005a0c

1000169c <runtime_init_early_resets>:
1000169c:	4b05      	ldr	r3, [pc, #20]	@ (100016b4 <runtime_init_early_resets+0x18>)
1000169e:	4a06      	ldr	r2, [pc, #24]	@ (100016b8 <runtime_init_early_resets+0x1c>)
100016a0:	4906      	ldr	r1, [pc, #24]	@ (100016bc <runtime_init_early_resets+0x20>)
100016a2:	601a      	str	r2, [r3, #0]
100016a4:	4a06      	ldr	r2, [pc, #24]	@ (100016c0 <runtime_init_early_resets+0x24>)
100016a6:	4b07      	ldr	r3, [pc, #28]	@ (100016c4 <runtime_init_early_resets+0x28>)
100016a8:	601a      	str	r2, [r3, #0]
100016aa:	0010      	movs	r0, r2
100016ac:	680b      	ldr	r3, [r1, #0]
100016ae:	4398      	bics	r0, r3
100016b0:	d1fb      	bne.n	100016aa <runtime_init_early_resets+0xe>
100016b2:	4770      	bx	lr
100016b4:	4000e000 	.word	0x4000e000
100016b8:	fefbcdbf 	.word	0xfefbcdbf
100016bc:	4000c008 	.word	0x4000c008
100016c0:	003c7ffe 	.word	0x003c7ffe
100016c4:	4000f000 	.word	0x4000f000

100016c8 <runtime_init_usb_power_down>:
100016c8:	4b04      	ldr	r3, [pc, #16]	@ (100016dc <runtime_init_usb_power_down+0x14>)
100016ca:	6cdb      	ldr	r3, [r3, #76]	@ 0x4c
100016cc:	2b00      	cmp	r3, #0
100016ce:	d103      	bne.n	100016d8 <runtime_init_usb_power_down+0x10>
100016d0:	2280      	movs	r2, #128	@ 0x80
100016d2:	4b03      	ldr	r3, [pc, #12]	@ (100016e0 <runtime_init_usb_power_down+0x18>)
100016d4:	02d2      	lsls	r2, r2, #11
100016d6:	601a      	str	r2, [r3, #0]
100016d8:	4770      	bx	lr
100016da:	46c0      	nop			@ (mov r8, r8)
100016dc:	50110000 	.word	0x50110000
100016e0:	5011204c 	.word	0x5011204c

100016e4 <runtime_init_post_clock_resets>:
100016e4:	4a04      	ldr	r2, [pc, #16]	@ (100016f8 <runtime_init_post_clock_resets+0x14>)
100016e6:	4b05      	ldr	r3, [pc, #20]	@ (100016fc <runtime_init_post_clock_resets+0x18>)
100016e8:	601a      	str	r2, [r3, #0]
100016ea:	4a05      	ldr	r2, [pc, #20]	@ (10001700 <runtime_init_post_clock_resets+0x1c>)
100016ec:	6813      	ldr	r3, [r2, #0]
100016ee:	01db      	lsls	r3, r3, #7
100016f0:	3380      	adds	r3, #128	@ 0x80
100016f2:	d1fb      	bne.n	100016ec <runtime_init_post_clock_resets+0x8>
100016f4:	4770      	bx	lr
100016f6:	46c0      	nop			@ (mov r8, r8)
100016f8:	01ffffff 	.word	0x01ffffff
100016fc:	4000f000 	.word	0x4000f000
10001700:	4000c008 	.word	0x4000c008

10001704 <runtime_init_rp2040_gpio_ie_disable>:
10001704:	2240      	movs	r2, #64	@ 0x40
10001706:	4b03      	ldr	r3, [pc, #12]	@ (10001714 <runtime_init_rp2040_gpio_ie_disable+0x10>)
10001708:	679a      	str	r2, [r3, #120]	@ 0x78
1000170a:	675a      	str	r2, [r3, #116]	@ 0x74
1000170c:	671a      	str	r2, [r3, #112]	@ 0x70
1000170e:	66da      	str	r2, [r3, #108]	@ 0x6c
10001710:	4770      	bx	lr
10001712:	46c0      	nop			@ (mov r8, r8)
10001714:	4001f000 	.word	0x4001f000

10001718 <runtime_init_spin_locks_reset>:
10001718:	b510      	push	{r4, lr}
1000171a:	f7fe ff3f 	bl	1000059c <spin_locks_reset>
1000171e:	bd10      	pop	{r4, pc}

10001720 <runtime_init_install_ram_vector_table>:
10001720:	b570      	push	{r4, r5, r6, lr}
10001722:	4d04      	ldr	r5, [pc, #16]	@ (10001734 <runtime_init_install_ram_vector_table+0x14>)
10001724:	4c04      	ldr	r4, [pc, #16]	@ (10001738 <runtime_init_install_ram_vector_table+0x18>)
10001726:	68a9      	ldr	r1, [r5, #8]
10001728:	22c0      	movs	r2, #192	@ 0xc0
1000172a:	0020      	movs	r0, r4
1000172c:	f000 fb8a 	bl	10001e44 <__wrap___aeabi_memcpy>
10001730:	60ac      	str	r4, [r5, #8]
10001732:	bd70      	pop	{r4, r5, r6, pc}
10001734:	e000ed00 	.word	0xe000ed00
10001738:	20000000 	.word	0x20000000

1000173c <runtime_init_clocks>:
1000173c:	2300      	movs	r3, #0
1000173e:	b510      	push	{r4, lr}
10001740:	4c29      	ldr	r4, [pc, #164]	@ (100017e8 <runtime_init_clocks+0xac>)
10001742:	b082      	sub	sp, #8
10001744:	67a3      	str	r3, [r4, #120]	@ 0x78
10001746:	f7ff ff79 	bl	1000163c <xosc_init>
1000174a:	2201      	movs	r2, #1
1000174c:	4b27      	ldr	r3, [pc, #156]	@ (100017ec <runtime_init_clocks+0xb0>)
1000174e:	601a      	str	r2, [r3, #0]
10001750:	6c63      	ldr	r3, [r4, #68]	@ 0x44
10001752:	2b01      	cmp	r3, #1
10001754:	d1fc      	bne.n	10001750 <runtime_init_clocks+0x14>
10001756:	2203      	movs	r2, #3
10001758:	4b25      	ldr	r3, [pc, #148]	@ (100017f0 <runtime_init_clocks+0xb4>)
1000175a:	601a      	str	r2, [r3, #0]
1000175c:	4a22      	ldr	r2, [pc, #136]	@ (100017e8 <runtime_init_clocks+0xac>)
1000175e:	6b93      	ldr	r3, [r2, #56]	@ 0x38
10001760:	2b01      	cmp	r3, #1
10001762:	d1fc      	bne.n	1000175e <runtime_init_clocks+0x22>
10001764:	3301      	adds	r3, #1
10001766:	9300      	str	r3, [sp, #0]
10001768:	2101      	movs	r1, #1
1000176a:	4a22      	ldr	r2, [pc, #136]	@ (100017f4 <runtime_init_clocks+0xb8>)
1000176c:	4822      	ldr	r0, [pc, #136]	@ (100017f8 <runtime_init_clocks+0xbc>)
1000176e:	3304      	adds	r3, #4
10001770:	f7ff fe76 	bl	10001460 <pll_init>
10001774:	2305      	movs	r3, #5
10001776:	2101      	movs	r1, #1
10001778:	9300      	str	r3, [sp, #0]
1000177a:	4a20      	ldr	r2, [pc, #128]	@ (100017fc <runtime_init_clocks+0xc0>)
1000177c:	4820      	ldr	r0, [pc, #128]	@ (10001800 <runtime_init_clocks+0xc4>)
1000177e:	f7ff fe6f 	bl	10001460 <pll_init>
10001782:	2200      	movs	r2, #0
10001784:	2102      	movs	r1, #2
10001786:	2004      	movs	r0, #4
10001788:	4b1e      	ldr	r3, [pc, #120]	@ (10001804 <runtime_init_clocks+0xc8>)
1000178a:	f7ff fdef 	bl	1000136c <clock_configure_undivided>
1000178e:	2200      	movs	r2, #0
10001790:	2101      	movs	r1, #1
10001792:	2005      	movs	r0, #5
10001794:	4b1c      	ldr	r3, [pc, #112]	@ (10001808 <runtime_init_clocks+0xcc>)
10001796:	f7ff fde9 	bl	1000136c <clock_configure_undivided>
1000179a:	2200      	movs	r2, #0
1000179c:	2100      	movs	r1, #0
1000179e:	2007      	movs	r0, #7
100017a0:	4b1a      	ldr	r3, [pc, #104]	@ (1000180c <runtime_init_clocks+0xd0>)
100017a2:	f7ff fde3 	bl	1000136c <clock_configure_undivided>
100017a6:	2200      	movs	r2, #0
100017a8:	2100      	movs	r1, #0
100017aa:	2008      	movs	r0, #8
100017ac:	4b17      	ldr	r3, [pc, #92]	@ (1000180c <runtime_init_clocks+0xd0>)
100017ae:	f7ff fddd 	bl	1000136c <clock_configure_undivided>
100017b2:	2380      	movs	r3, #128	@ 0x80
100017b4:	00db      	lsls	r3, r3, #3
100017b6:	9300      	str	r3, [sp, #0]
100017b8:	2200      	movs	r2, #0
100017ba:	2100      	movs	r1, #0
100017bc:	2009      	movs	r0, #9
100017be:	4b13      	ldr	r3, [pc, #76]	@ (1000180c <runtime_init_clocks+0xd0>)
100017c0:	f7ff fd5a 	bl	10001278 <clock_configure_int_divider>
100017c4:	2200      	movs	r2, #0
100017c6:	4b10      	ldr	r3, [pc, #64]	@ (10001808 <runtime_init_clocks+0xcc>)
100017c8:	2100      	movs	r1, #0
100017ca:	2006      	movs	r0, #6
100017cc:	f7ff fdce 	bl	1000136c <clock_configure_undivided>
100017d0:	2004      	movs	r0, #4
100017d2:	f7ff fe3f 	bl	10001454 <clock_get_hz>
100017d6:	490e      	ldr	r1, [pc, #56]	@ (10001810 <runtime_init_clocks+0xd4>)
100017d8:	f000 f824 	bl	10001824 <__wrap___aeabi_uidiv>
100017dc:	0001      	movs	r1, r0
100017de:	2000      	movs	r0, #0
100017e0:	f7ff fede 	bl	100015a0 <tick_start>
100017e4:	b002      	add	sp, #8
100017e6:	bd10      	pop	{r4, pc}
100017e8:	40008000 	.word	0x40008000
100017ec:	4000b03c 	.word	0x4000b03c
100017f0:	4000b030 	.word	0x4000b030
100017f4:	59682f00 	.word	0x59682f00
100017f8:	40028000 	.word	0x40028000
100017fc:	47868c00 	.word	0x47868c00
10001800:	4002c000 	.word	0x4002c000
10001804:	00b71b00 	.word	0x00b71b00
10001808:	07735940 	.word	0x07735940
1000180c:	02dc6c00 	.word	0x02dc6c00
10001810:	000f4240 	.word	0x000f4240

10001814 <__aeabi_bits_init>:
10001814:	4801      	ldr	r0, [pc, #4]	@ (1000181c <__aeabi_bits_init+0x8>)
10001816:	2104      	movs	r1, #4
10001818:	4b01      	ldr	r3, [pc, #4]	@ (10001820 <__aeabi_bits_init+0xc>)
1000181a:	4718      	bx	r3
1000181c:	20000fe0 	.word	0x20000fe0
10001820:	100015d1 	.word	0x100015d1

10001824 <__wrap___aeabi_uidiv>:
10001824:	4a11      	ldr	r2, [pc, #68]	@ (1000186c <divmod_u32u32_savestate+0x18>)
10001826:	6f93      	ldr	r3, [r2, #120]	@ 0x78
10001828:	089b      	lsrs	r3, r3, #2
1000182a:	d213      	bcs.n	10001854 <divmod_u32u32_savestate>

1000182c <divmod_u32u32_unsafe>:
1000182c:	6610      	str	r0, [r2, #96]	@ 0x60
1000182e:	6651      	str	r1, [r2, #100]	@ 0x64
10001830:	2900      	cmp	r1, #0
10001832:	d005      	beq.n	10001840 <divmod_u32u32_unsafe+0x14>
10001834:	e7ff      	b.n	10001836 <divmod_u32u32_unsafe+0xa>
10001836:	e7ff      	b.n	10001838 <divmod_u32u32_unsafe+0xc>
10001838:	e7ff      	b.n	1000183a <divmod_u32u32_unsafe+0xe>
1000183a:	6f51      	ldr	r1, [r2, #116]	@ 0x74
1000183c:	6f10      	ldr	r0, [r2, #112]	@ 0x70
1000183e:	4770      	bx	lr
10001840:	b504      	push	{r2, lr}
10001842:	2800      	cmp	r0, #0
10001844:	d001      	beq.n	1000184a <divmod_u32u32_unsafe+0x1e>
10001846:	2000      	movs	r0, #0
10001848:	43c0      	mvns	r0, r0
1000184a:	f004 f889 	bl	10005960 <____aeabi_idiv0_veneer>
1000184e:	2100      	movs	r1, #0
10001850:	bd04      	pop	{r2, pc}
10001852:	46c0      	nop			@ (mov r8, r8)

10001854 <divmod_u32u32_savestate>:
10001854:	b5f0      	push	{r4, r5, r6, r7, lr}
10001856:	6e14      	ldr	r4, [r2, #96]	@ 0x60
10001858:	6e55      	ldr	r5, [r2, #100]	@ 0x64
1000185a:	6f57      	ldr	r7, [r2, #116]	@ 0x74
1000185c:	6f16      	ldr	r6, [r2, #112]	@ 0x70
1000185e:	f7ff ffe5 	bl	1000182c <divmod_u32u32_unsafe>
10001862:	6614      	str	r4, [r2, #96]	@ 0x60
10001864:	6655      	str	r5, [r2, #100]	@ 0x64
10001866:	6757      	str	r7, [r2, #116]	@ 0x74
10001868:	6716      	str	r6, [r2, #112]	@ 0x70
1000186a:	bdf0      	pop	{r4, r5, r6, r7, pc}
1000186c:	d0000000 	.word	0xd0000000

10001870 <__wrap___aeabi_ldivmod>:
10001870:	4694      	mov	ip, r2
10001872:	4a4a      	ldr	r2, [pc, #296]	@ (1000199c <udiv0+0x1a>)
10001874:	6f92      	ldr	r2, [r2, #120]	@ 0x78
10001876:	0892      	lsrs	r2, r2, #2
10001878:	4662      	mov	r2, ip
1000187a:	d201      	bcs.n	10001880 <divmod_s64s64_savestate>
1000187c:	e028      	b.n	100018d0 <divmod_s64s64_unsafe>
1000187e:	46c0      	nop			@ (mov r8, r8)

10001880 <divmod_s64s64_savestate>:
10001880:	b5f0      	push	{r4, r5, r6, r7, lr}
10001882:	4e46      	ldr	r6, [pc, #280]	@ (1000199c <udiv0+0x1a>)
10001884:	6e34      	ldr	r4, [r6, #96]	@ 0x60
10001886:	6e75      	ldr	r5, [r6, #100]	@ 0x64
10001888:	6f77      	ldr	r7, [r6, #116]	@ 0x74
1000188a:	6f36      	ldr	r6, [r6, #112]	@ 0x70
1000188c:	f000 f820 	bl	100018d0 <divmod_s64s64_unsafe>
10001890:	4694      	mov	ip, r2
10001892:	4a42      	ldr	r2, [pc, #264]	@ (1000199c <udiv0+0x1a>)
10001894:	6614      	str	r4, [r2, #96]	@ 0x60
10001896:	6655      	str	r5, [r2, #100]	@ 0x64
10001898:	6757      	str	r7, [r2, #116]	@ 0x74
1000189a:	6716      	str	r6, [r2, #112]	@ 0x70
1000189c:	4662      	mov	r2, ip
1000189e:	bdf0      	pop	{r4, r5, r6, r7, pc}

100018a0 <__wrap___aeabi_uldivmod>:
100018a0:	4694      	mov	ip, r2
100018a2:	4a3e      	ldr	r2, [pc, #248]	@ (1000199c <udiv0+0x1a>)
100018a4:	6f92      	ldr	r2, [r2, #120]	@ 0x78
100018a6:	0892      	lsrs	r2, r2, #2
100018a8:	4662      	mov	r2, ip
100018aa:	d201      	bcs.n	100018b0 <divmod_u64u64_savestate>
100018ac:	e054      	b.n	10001958 <divmod_u64u64_unsafe>
100018ae:	46c0      	nop			@ (mov r8, r8)

100018b0 <divmod_u64u64_savestate>:
100018b0:	b5f0      	push	{r4, r5, r6, r7, lr}
100018b2:	4e3a      	ldr	r6, [pc, #232]	@ (1000199c <udiv0+0x1a>)
100018b4:	6e34      	ldr	r4, [r6, #96]	@ 0x60
100018b6:	6e75      	ldr	r5, [r6, #100]	@ 0x64
100018b8:	6f77      	ldr	r7, [r6, #116]	@ 0x74
100018ba:	6f36      	ldr	r6, [r6, #112]	@ 0x70
100018bc:	f000 f84c 	bl	10001958 <divmod_u64u64_unsafe>
100018c0:	4694      	mov	ip, r2
100018c2:	4a36      	ldr	r2, [pc, #216]	@ (1000199c <udiv0+0x1a>)
100018c4:	6614      	str	r4, [r2, #96]	@ 0x60
100018c6:	6655      	str	r5, [r2, #100]	@ 0x64
100018c8:	6757      	str	r7, [r2, #116]	@ 0x74
100018ca:	6716      	str	r6, [r2, #112]	@ 0x70
100018cc:	4662      	mov	r2, ip
100018ce:	bdf0      	pop	{r4, r5, r6, r7, pc}

100018d0 <divmod_s64s64_unsafe>:
100018d0:	2b00      	cmp	r3, #0
100018d2:	db24      	blt.n	1000191e <l42_1+0x26>
100018d4:	d011      	beq.n	100018fa <l42_1+0x2>
100018d6:	2900      	cmp	r1, #0
100018d8:	da3e      	bge.n	10001958 <divmod_u64u64_unsafe>
100018da:	b500      	push	{lr}
100018dc:	43c9      	mvns	r1, r1
100018de:	4240      	negs	r0, r0
100018e0:	d100      	bne.n	100018e4 <l40_1>
100018e2:	3101      	adds	r1, #1

100018e4 <l40_1>:
100018e4:	f000 f838 	bl	10001958 <divmod_u64u64_unsafe>
100018e8:	43c9      	mvns	r1, r1
100018ea:	4240      	negs	r0, r0
100018ec:	d100      	bne.n	100018f0 <l41_1>
100018ee:	3101      	adds	r1, #1

100018f0 <l41_1>:
100018f0:	43db      	mvns	r3, r3
100018f2:	4252      	negs	r2, r2
100018f4:	d100      	bne.n	100018f8 <l42_1>
100018f6:	3301      	adds	r3, #1

100018f8 <l42_1>:
100018f8:	bd00      	pop	{pc}
100018fa:	2a00      	cmp	r2, #0
100018fc:	d1eb      	bne.n	100018d6 <divmod_s64s64_unsafe+0x6>
100018fe:	2800      	cmp	r0, #0
10001900:	d101      	bne.n	10001906 <l42_1+0xe>
10001902:	2900      	cmp	r1, #0
10001904:	d005      	beq.n	10001912 <l42_1+0x1a>
10001906:	2000      	movs	r0, #0
10001908:	0fc9      	lsrs	r1, r1, #31
1000190a:	07c9      	lsls	r1, r1, #31
1000190c:	d101      	bne.n	10001912 <l42_1+0x1a>
1000190e:	43c0      	mvns	r0, r0
10001910:	0841      	lsrs	r1, r0, #1
10001912:	b500      	push	{lr}
10001914:	f004 f814 	bl	10005940 <____aeabi_ldiv0_veneer>
10001918:	2200      	movs	r2, #0
1000191a:	2300      	movs	r3, #0
1000191c:	bd00      	pop	{pc}
1000191e:	b500      	push	{lr}
10001920:	2900      	cmp	r1, #0
10001922:	db0a      	blt.n	1000193a <l44_1+0x2>
10001924:	43db      	mvns	r3, r3
10001926:	4252      	negs	r2, r2
10001928:	d100      	bne.n	1000192c <l43_1>
1000192a:	3301      	adds	r3, #1

1000192c <l43_1>:
1000192c:	f000 f814 	bl	10001958 <divmod_u64u64_unsafe>
10001930:	43c9      	mvns	r1, r1
10001932:	4240      	negs	r0, r0
10001934:	d100      	bne.n	10001938 <l44_1>
10001936:	3101      	adds	r1, #1

10001938 <l44_1>:
10001938:	bd00      	pop	{pc}
1000193a:	43c9      	mvns	r1, r1
1000193c:	4240      	negs	r0, r0
1000193e:	d100      	bne.n	10001942 <l45_1>
10001940:	3101      	adds	r1, #1

10001942 <l45_1>:
10001942:	43db      	mvns	r3, r3
10001944:	4252      	negs	r2, r2
10001946:	d100      	bne.n	1000194a <l46_1>
10001948:	3301      	adds	r3, #1

1000194a <l46_1>:
1000194a:	f000 f805 	bl	10001958 <divmod_u64u64_unsafe>
1000194e:	43db      	mvns	r3, r3
10001950:	4252      	negs	r2, r2
10001952:	d100      	bne.n	10001956 <l47_1>
10001954:	3301      	adds	r3, #1

10001956 <l47_1>:
10001956:	bd00      	pop	{pc}

10001958 <divmod_u64u64_unsafe>:
10001958:	2900      	cmp	r1, #0
1000195a:	d123      	bne.n	100019a4 <y64>
1000195c:	2b00      	cmp	r3, #0
1000195e:	d118      	bne.n	10001992 <udiv0+0x10>
10001960:	2a00      	cmp	r2, #0
10001962:	d00c      	beq.n	1000197e <divmod_u64u64_unsafe+0x26>
10001964:	46bc      	mov	ip, r7
10001966:	4f0d      	ldr	r7, [pc, #52]	@ (1000199c <udiv0+0x1a>)
10001968:	6638      	str	r0, [r7, #96]	@ 0x60
1000196a:	667a      	str	r2, [r7, #100]	@ 0x64
1000196c:	2100      	movs	r1, #0
1000196e:	2300      	movs	r3, #0
10001970:	e7ff      	b.n	10001972 <divmod_u64u64_unsafe+0x1a>
10001972:	e7ff      	b.n	10001974 <divmod_u64u64_unsafe+0x1c>
10001974:	e7ff      	b.n	10001976 <divmod_u64u64_unsafe+0x1e>
10001976:	6f7a      	ldr	r2, [r7, #116]	@ 0x74
10001978:	6f38      	ldr	r0, [r7, #112]	@ 0x70
1000197a:	4667      	mov	r7, ip
1000197c:	4770      	bx	lr
1000197e:	2800      	cmp	r0, #0
10001980:	d001      	beq.n	10001986 <udiv0+0x4>

10001982 <udiv0>:
10001982:	4807      	ldr	r0, [pc, #28]	@ (100019a0 <udiv0+0x1e>)
10001984:	0001      	movs	r1, r0
10001986:	b500      	push	{lr}
10001988:	f003 ffda 	bl	10005940 <____aeabi_ldiv0_veneer>
1000198c:	2200      	movs	r2, #0
1000198e:	2300      	movs	r3, #0
10001990:	bd00      	pop	{pc}
10001992:	0002      	movs	r2, r0
10001994:	000b      	movs	r3, r1
10001996:	2000      	movs	r0, #0
10001998:	2100      	movs	r1, #0
1000199a:	4770      	bx	lr
1000199c:	d0000000 	.word	0xd0000000
100019a0:	ffffffff 	.word	0xffffffff

100019a4 <y64>:
100019a4:	2b00      	cmp	r3, #0
100019a6:	d000      	beq.n	100019aa <y64+0x6>
100019a8:	e0bf      	b.n	10001b2a <y64_x48>
100019aa:	0c13      	lsrs	r3, r2, #16
100019ac:	d128      	bne.n	10001a00 <y64_x32>
100019ae:	2a00      	cmp	r2, #0
100019b0:	d0e7      	beq.n	10001982 <udiv0>
100019b2:	b480      	push	{r7}
100019b4:	4f11      	ldr	r7, [pc, #68]	@ (100019fc <y64+0x58>)
100019b6:	6639      	str	r1, [r7, #96]	@ 0x60
100019b8:	667a      	str	r2, [r7, #100]	@ 0x64
100019ba:	e7ff      	b.n	100019bc <y64+0x18>
100019bc:	e7ff      	b.n	100019be <y64+0x1a>
100019be:	b430      	push	{r4, r5}
100019c0:	0c04      	lsrs	r4, r0, #16
100019c2:	6f7b      	ldr	r3, [r7, #116]	@ 0x74
100019c4:	6f39      	ldr	r1, [r7, #112]	@ 0x70
100019c6:	041b      	lsls	r3, r3, #16
100019c8:	4323      	orrs	r3, r4
100019ca:	663b      	str	r3, [r7, #96]	@ 0x60
100019cc:	667a      	str	r2, [r7, #100]	@ 0x64
100019ce:	e7ff      	b.n	100019d0 <y64+0x2c>
100019d0:	e7ff      	b.n	100019d2 <y64+0x2e>
100019d2:	e7ff      	b.n	100019d4 <y64+0x30>
100019d4:	46c0      	nop			@ (mov r8, r8)
100019d6:	b284      	uxth	r4, r0
100019d8:	6f7b      	ldr	r3, [r7, #116]	@ 0x74
100019da:	6f3d      	ldr	r5, [r7, #112]	@ 0x70
100019dc:	041b      	lsls	r3, r3, #16
100019de:	4323      	orrs	r3, r4
100019e0:	663b      	str	r3, [r7, #96]	@ 0x60
100019e2:	667a      	str	r2, [r7, #100]	@ 0x64
100019e4:	e7ff      	b.n	100019e6 <y64+0x42>
100019e6:	e7ff      	b.n	100019e8 <y64+0x44>
100019e8:	46c0      	nop			@ (mov r8, r8)
100019ea:	2300      	movs	r3, #0
100019ec:	042c      	lsls	r4, r5, #16
100019ee:	0c2d      	lsrs	r5, r5, #16
100019f0:	6f7a      	ldr	r2, [r7, #116]	@ 0x74
100019f2:	6f38      	ldr	r0, [r7, #112]	@ 0x70
100019f4:	1900      	adds	r0, r0, r4
100019f6:	4169      	adcs	r1, r5
100019f8:	bcb0      	pop	{r4, r5, r7}
100019fa:	4770      	bx	lr
100019fc:	d0000000 	.word	0xd0000000

10001a00 <y64_x32>:
10001a00:	b5f0      	push	{r4, r5, r6, r7, lr}
10001a02:	4694      	mov	ip, r2
10001a04:	2500      	movs	r5, #0
10001a06:	0e14      	lsrs	r4, r2, #24
10001a08:	d101      	bne.n	10001a0e <y64_x32+0xe>
10001a0a:	0212      	lsls	r2, r2, #8
10001a0c:	3508      	adds	r5, #8
10001a0e:	0f14      	lsrs	r4, r2, #28
10001a10:	d101      	bne.n	10001a16 <y64_x32+0x16>
10001a12:	0112      	lsls	r2, r2, #4
10001a14:	3504      	adds	r5, #4
10001a16:	0f94      	lsrs	r4, r2, #30
10001a18:	d101      	bne.n	10001a1e <y64_x32+0x1e>
10001a1a:	0092      	lsls	r2, r2, #2
10001a1c:	3502      	adds	r5, #2
10001a1e:	0fd4      	lsrs	r4, r2, #31
10001a20:	d101      	bne.n	10001a26 <y64_x32+0x26>
10001a22:	0052      	lsls	r2, r2, #1
10001a24:	3501      	adds	r5, #1
10001a26:	0bd4      	lsrs	r4, r2, #15
10001a28:	3401      	adds	r4, #1
10001a2a:	4f25      	ldr	r7, [pc, #148]	@ (10001ac0 <y64_x32+0xc0>)
10001a2c:	667c      	str	r4, [r7, #100]	@ 0x64
10001a2e:	4c25      	ldr	r4, [pc, #148]	@ (10001ac4 <y64_x32+0xc4>)
10001a30:	663c      	str	r4, [r7, #96]	@ 0x60
10001a32:	0c0e      	lsrs	r6, r1, #16
10001a34:	b293      	uxth	r3, r2
10001a36:	e7ff      	b.n	10001a38 <y64_x32+0x38>
10001a38:	e7ff      	b.n	10001a3a <y64_x32+0x3a>
10001a3a:	e7ff      	b.n	10001a3c <y64_x32+0x3c>
10001a3c:	6f3c      	ldr	r4, [r7, #112]	@ 0x70
10001a3e:	4366      	muls	r6, r4
10001a40:	0c36      	lsrs	r6, r6, #16
10001a42:	0377      	lsls	r7, r6, #13
10001a44:	46be      	mov	lr, r7
10001a46:	4373      	muls	r3, r6
10001a48:	0bdf      	lsrs	r7, r3, #15
10001a4a:	045b      	lsls	r3, r3, #17
10001a4c:	1ac0      	subs	r0, r0, r3
10001a4e:	41b9      	sbcs	r1, r7
10001a50:	0c13      	lsrs	r3, r2, #16
10001a52:	4373      	muls	r3, r6
10001a54:	18db      	adds	r3, r3, r3
10001a56:	1ac9      	subs	r1, r1, r3
10001a58:	08ce      	lsrs	r6, r1, #3
10001a5a:	4366      	muls	r6, r4
10001a5c:	0c36      	lsrs	r6, r6, #16
10001a5e:	44b6      	add	lr, r6
10001a60:	b293      	uxth	r3, r2
10001a62:	4373      	muls	r3, r6
10001a64:	0f1f      	lsrs	r7, r3, #28
10001a66:	011b      	lsls	r3, r3, #4
10001a68:	1ac0      	subs	r0, r0, r3
10001a6a:	41b9      	sbcs	r1, r7
10001a6c:	0c13      	lsrs	r3, r2, #16
10001a6e:	4373      	muls	r3, r6
10001a70:	0b1f      	lsrs	r7, r3, #12
10001a72:	051b      	lsls	r3, r3, #20
10001a74:	1ac0      	subs	r0, r0, r3
10001a76:	41b9      	sbcs	r1, r7
10001a78:	0d86      	lsrs	r6, r0, #22
10001a7a:	028f      	lsls	r7, r1, #10
10001a7c:	433e      	orrs	r6, r7
10001a7e:	4366      	muls	r6, r4
10001a80:	0c36      	lsrs	r6, r6, #16
10001a82:	2d09      	cmp	r5, #9
10001a84:	db24      	blt.n	10001ad0 <last0>
10001a86:	0a52      	lsrs	r2, r2, #9
10001a88:	4372      	muls	r2, r6
10001a8a:	1a80      	subs	r0, r0, r2
10001a8c:	0377      	lsls	r7, r6, #13
10001a8e:	0a46      	lsrs	r6, r0, #9
10001a90:	4366      	muls	r6, r4
10001a92:	0c36      	lsrs	r6, r6, #16
10001a94:	2316      	movs	r3, #22
10001a96:	1b5b      	subs	r3, r3, r5
10001a98:	40de      	lsrs	r6, r3
10001a9a:	40df      	lsrs	r7, r3
10001a9c:	19bf      	adds	r7, r7, r6
10001a9e:	4664      	mov	r4, ip
10001aa0:	4366      	muls	r6, r4
10001aa2:	1b82      	subs	r2, r0, r6
10001aa4:	4670      	mov	r0, lr
10001aa6:	3504      	adds	r5, #4
10001aa8:	3306      	adds	r3, #6
10001aaa:	0001      	movs	r1, r0
10001aac:	40d9      	lsrs	r1, r3
10001aae:	40a8      	lsls	r0, r5
10001ab0:	19c0      	adds	r0, r0, r7
10001ab2:	d300      	bcc.n	10001ab6 <y64_x32+0xb6>
10001ab4:	3101      	adds	r1, #1
10001ab6:	42a2      	cmp	r2, r4
10001ab8:	d206      	bcs.n	10001ac8 <y64_x32+0xc8>
10001aba:	2300      	movs	r3, #0
10001abc:	bdf0      	pop	{r4, r5, r6, r7, pc}
10001abe:	0000      	.short	0x0000
10001ac0:	d0000000 	.word	0xd0000000
10001ac4:	ffffffff 	.word	0xffffffff
10001ac8:	1b12      	subs	r2, r2, r4
10001aca:	3001      	adds	r0, #1
10001acc:	d3f3      	bcc.n	10001ab6 <y64_x32+0xb6>
10001ace:	e7f1      	b.n	10001ab4 <y64_x32+0xb4>

10001ad0 <last0>:
10001ad0:	2709      	movs	r7, #9
10001ad2:	1b7f      	subs	r7, r7, r5
10001ad4:	40fe      	lsrs	r6, r7
10001ad6:	4664      	mov	r4, ip
10001ad8:	b2a2      	uxth	r2, r4
10001ada:	4372      	muls	r2, r6
10001adc:	1a80      	subs	r0, r0, r2
10001ade:	d200      	bcs.n	10001ae2 <last0+0x12>
10001ae0:	3901      	subs	r1, #1
10001ae2:	0c22      	lsrs	r2, r4, #16
10001ae4:	4372      	muls	r2, r6
10001ae6:	0c13      	lsrs	r3, r2, #16
10001ae8:	0412      	lsls	r2, r2, #16
10001aea:	1a82      	subs	r2, r0, r2
10001aec:	4199      	sbcs	r1, r3
10001aee:	000b      	movs	r3, r1
10001af0:	4670      	mov	r0, lr
10001af2:	3504      	adds	r5, #4
10001af4:	3713      	adds	r7, #19
10001af6:	0001      	movs	r1, r0
10001af8:	40f9      	lsrs	r1, r7
10001afa:	40a8      	lsls	r0, r5
10001afc:	1980      	adds	r0, r0, r6
10001afe:	d300      	bcc.n	10001b02 <last0+0x32>
10001b00:	3101      	adds	r1, #1
10001b02:	2b00      	cmp	r3, #0
10001b04:	d102      	bne.n	10001b0c <last0+0x3c>
10001b06:	42a2      	cmp	r2, r4
10001b08:	d20a      	bcs.n	10001b20 <last0+0x50>
10001b0a:	bdf0      	pop	{r4, r5, r6, r7, pc}
10001b0c:	3001      	adds	r0, #1
10001b0e:	d300      	bcc.n	10001b12 <last0+0x42>
10001b10:	3101      	adds	r1, #1
10001b12:	1b12      	subs	r2, r2, r4
10001b14:	d2fa      	bcs.n	10001b0c <last0+0x3c>
10001b16:	3b01      	subs	r3, #1
10001b18:	d1f8      	bne.n	10001b0c <last0+0x3c>
10001b1a:	42a2      	cmp	r2, r4
10001b1c:	d200      	bcs.n	10001b20 <last0+0x50>
10001b1e:	bdf0      	pop	{r4, r5, r6, r7, pc}
10001b20:	3001      	adds	r0, #1
10001b22:	d300      	bcc.n	10001b26 <last0+0x56>
10001b24:	3101      	adds	r1, #1
10001b26:	1b12      	subs	r2, r2, r4
10001b28:	e7f7      	b.n	10001b1a <last0+0x4a>

10001b2a <y64_x48>:
10001b2a:	b5f0      	push	{r4, r5, r6, r7, lr}
10001b2c:	0c1c      	lsrs	r4, r3, #16
10001b2e:	d000      	beq.n	10001b32 <y64_x48+0x8>
10001b30:	e080      	b.n	10001c34 <y64_x64>
10001b32:	b40c      	push	{r2, r3}
10001b34:	2500      	movs	r5, #0
10001b36:	0a1c      	lsrs	r4, r3, #8
10001b38:	d104      	bne.n	10001b44 <y64_x48+0x1a>
10001b3a:	021b      	lsls	r3, r3, #8
10001b3c:	0e16      	lsrs	r6, r2, #24
10001b3e:	4333      	orrs	r3, r6
10001b40:	0212      	lsls	r2, r2, #8
10001b42:	3508      	adds	r5, #8
10001b44:	0b1c      	lsrs	r4, r3, #12
10001b46:	d104      	bne.n	10001b52 <y64_x48+0x28>
10001b48:	011b      	lsls	r3, r3, #4
10001b4a:	0f16      	lsrs	r6, r2, #28
10001b4c:	4333      	orrs	r3, r6
10001b4e:	0112      	lsls	r2, r2, #4
10001b50:	3504      	adds	r5, #4
10001b52:	0b9c      	lsrs	r4, r3, #14
10001b54:	d104      	bne.n	10001b60 <y64_x48+0x36>
10001b56:	009b      	lsls	r3, r3, #2
10001b58:	0f96      	lsrs	r6, r2, #30
10001b5a:	4333      	orrs	r3, r6
10001b5c:	0092      	lsls	r2, r2, #2
10001b5e:	3502      	adds	r5, #2
10001b60:	0bdc      	lsrs	r4, r3, #15
10001b62:	d102      	bne.n	10001b6a <y64_x48+0x40>
10001b64:	1892      	adds	r2, r2, r2
10001b66:	415b      	adcs	r3, r3
10001b68:	3501      	adds	r5, #1
10001b6a:	001c      	movs	r4, r3
10001b6c:	1897      	adds	r7, r2, r2
10001b6e:	4164      	adcs	r4, r4
10001b70:	3401      	adds	r4, #1
10001b72:	4f46      	ldr	r7, [pc, #280]	@ (10001c8c <y64_x64+0x58>)
10001b74:	667c      	str	r4, [r7, #100]	@ 0x64
10001b76:	4c46      	ldr	r4, [pc, #280]	@ (10001c90 <y64_x64+0x5c>)
10001b78:	663c      	str	r4, [r7, #96]	@ 0x60
10001b7a:	0c0e      	lsrs	r6, r1, #16
10001b7c:	e7ff      	b.n	10001b7e <y64_x48+0x54>
10001b7e:	e7ff      	b.n	10001b80 <y64_x48+0x56>
10001b80:	e7ff      	b.n	10001b82 <y64_x48+0x58>
10001b82:	46c0      	nop			@ (mov r8, r8)
10001b84:	6f3c      	ldr	r4, [r7, #112]	@ 0x70
10001b86:	4366      	muls	r6, r4
10001b88:	0c36      	lsrs	r6, r6, #16
10001b8a:	0377      	lsls	r7, r6, #13
10001b8c:	46be      	mov	lr, r7
10001b8e:	b297      	uxth	r7, r2
10001b90:	4377      	muls	r7, r6
10001b92:	1bc0      	subs	r0, r0, r7
10001b94:	d200      	bcs.n	10001b98 <y64_x48+0x6e>
10001b96:	3901      	subs	r1, #1
10001b98:	1bc0      	subs	r0, r0, r7
10001b9a:	d200      	bcs.n	10001b9e <y64_x48+0x74>
10001b9c:	3901      	subs	r1, #1
10001b9e:	b29f      	uxth	r7, r3
10001ba0:	4377      	muls	r7, r6
10001ba2:	1bc9      	subs	r1, r1, r7
10001ba4:	1bc9      	subs	r1, r1, r7
10001ba6:	0c17      	lsrs	r7, r2, #16
10001ba8:	4377      	muls	r7, r6
10001baa:	047e      	lsls	r6, r7, #17
10001bac:	0bff      	lsrs	r7, r7, #15
10001bae:	1b80      	subs	r0, r0, r6
10001bb0:	41b9      	sbcs	r1, r7
10001bb2:	08ce      	lsrs	r6, r1, #3
10001bb4:	4366      	muls	r6, r4
10001bb6:	0c36      	lsrs	r6, r6, #16
10001bb8:	2d0c      	cmp	r5, #12
10001bba:	db33      	blt.n	10001c24 <last1>
10001bbc:	44b6      	add	lr, r6
10001bbe:	0b12      	lsrs	r2, r2, #12
10001bc0:	051f      	lsls	r7, r3, #20
10001bc2:	433a      	orrs	r2, r7
10001bc4:	0b1b      	lsrs	r3, r3, #12
10001bc6:	b297      	uxth	r7, r2
10001bc8:	4377      	muls	r7, r6
10001bca:	1bc0      	subs	r0, r0, r7
10001bcc:	d200      	bcs.n	10001bd0 <y64_x48+0xa6>
10001bce:	3901      	subs	r1, #1
10001bd0:	b29f      	uxth	r7, r3
10001bd2:	4377      	muls	r7, r6
10001bd4:	1bc9      	subs	r1, r1, r7
10001bd6:	0c17      	lsrs	r7, r2, #16
10001bd8:	4377      	muls	r7, r6
10001bda:	043e      	lsls	r6, r7, #16
10001bdc:	0c3f      	lsrs	r7, r7, #16
10001bde:	1b80      	subs	r0, r0, r6
10001be0:	41b9      	sbcs	r1, r7
10001be2:	0d86      	lsrs	r6, r0, #22
10001be4:	028f      	lsls	r7, r1, #10
10001be6:	433e      	orrs	r6, r7
10001be8:	4366      	muls	r6, r4
10001bea:	2729      	movs	r7, #41	@ 0x29
10001bec:	1b7f      	subs	r7, r7, r5
10001bee:	40fe      	lsrs	r6, r7
10001bf0:	3d0c      	subs	r5, #12
10001bf2:	4677      	mov	r7, lr
10001bf4:	40af      	lsls	r7, r5
10001bf6:	19bf      	adds	r7, r7, r6
10001bf8:	bc30      	pop	{r4, r5}
10001bfa:	b2a2      	uxth	r2, r4
10001bfc:	b2ab      	uxth	r3, r5
10001bfe:	4372      	muls	r2, r6
10001c00:	4373      	muls	r3, r6
10001c02:	1a80      	subs	r0, r0, r2
10001c04:	4199      	sbcs	r1, r3
10001c06:	0c22      	lsrs	r2, r4, #16
10001c08:	4372      	muls	r2, r6
10001c0a:	0c13      	lsrs	r3, r2, #16
10001c0c:	0412      	lsls	r2, r2, #16
10001c0e:	1a80      	subs	r0, r0, r2
10001c10:	4199      	sbcs	r1, r3
10001c12:	0002      	movs	r2, r0
10001c14:	000b      	movs	r3, r1
10001c16:	3701      	adds	r7, #1
10001c18:	1b00      	subs	r0, r0, r4
10001c1a:	41a9      	sbcs	r1, r5
10001c1c:	d2f9      	bcs.n	10001c12 <y64_x48+0xe8>
10001c1e:	1e78      	subs	r0, r7, #1
10001c20:	2100      	movs	r1, #0
10001c22:	bdf0      	pop	{r4, r5, r6, r7, pc}

10001c24 <last1>:
10001c24:	270c      	movs	r7, #12
10001c26:	1b7f      	subs	r7, r7, r5
10001c28:	40fe      	lsrs	r6, r7
10001c2a:	4677      	mov	r7, lr
10001c2c:	0b7f      	lsrs	r7, r7, #13
10001c2e:	40af      	lsls	r7, r5
10001c30:	19ff      	adds	r7, r7, r7
10001c32:	e7e0      	b.n	10001bf6 <y64_x48+0xcc>

10001c34 <y64_x64>:
10001c34:	2400      	movs	r4, #0
10001c36:	1c5d      	adds	r5, r3, #1
10001c38:	d007      	beq.n	10001c4a <y64_x64+0x16>
10001c3a:	4f14      	ldr	r7, [pc, #80]	@ (10001c8c <y64_x64+0x58>)
10001c3c:	667d      	str	r5, [r7, #100]	@ 0x64
10001c3e:	6639      	str	r1, [r7, #96]	@ 0x60
10001c40:	e7ff      	b.n	10001c42 <y64_x64+0xe>
10001c42:	e7ff      	b.n	10001c44 <y64_x64+0x10>
10001c44:	e7ff      	b.n	10001c46 <y64_x64+0x12>
10001c46:	e7ff      	b.n	10001c48 <y64_x64+0x14>
10001c48:	6f3c      	ldr	r4, [r7, #112]	@ 0x70
10001c4a:	b295      	uxth	r5, r2
10001c4c:	b29e      	uxth	r6, r3
10001c4e:	4365      	muls	r5, r4
10001c50:	4366      	muls	r6, r4
10001c52:	1b40      	subs	r0, r0, r5
10001c54:	41b1      	sbcs	r1, r6
10001c56:	0c15      	lsrs	r5, r2, #16
10001c58:	0c1e      	lsrs	r6, r3, #16
10001c5a:	4365      	muls	r5, r4
10001c5c:	4366      	muls	r6, r4
10001c5e:	0436      	lsls	r6, r6, #16
10001c60:	0c2f      	lsrs	r7, r5, #16
10001c62:	433e      	orrs	r6, r7
10001c64:	042d      	lsls	r5, r5, #16
10001c66:	1b40      	subs	r0, r0, r5
10001c68:	41b1      	sbcs	r1, r6
10001c6a:	4299      	cmp	r1, r3
10001c6c:	d204      	bcs.n	10001c78 <y64_x64+0x44>
10001c6e:	0002      	movs	r2, r0
10001c70:	000b      	movs	r3, r1
10001c72:	0020      	movs	r0, r4
10001c74:	2100      	movs	r1, #0
10001c76:	bdf0      	pop	{r4, r5, r6, r7, pc}
10001c78:	d101      	bne.n	10001c7e <y64_x64+0x4a>
10001c7a:	4290      	cmp	r0, r2
10001c7c:	d3f7      	bcc.n	10001c6e <y64_x64+0x3a>
10001c7e:	1a80      	subs	r0, r0, r2
10001c80:	4199      	sbcs	r1, r3
10001c82:	3401      	adds	r4, #1
10001c84:	4299      	cmp	r1, r3
10001c86:	d3f2      	bcc.n	10001c6e <y64_x64+0x3a>
10001c88:	e7f6      	b.n	10001c78 <y64_x64+0x44>
10001c8a:	0000      	.short	0x0000
10001c8c:	d0000000 	.word	0xd0000000
10001c90:	ffffffff 	.word	0xffffffff

10001c94 <__aeabi_double_init>:
10001c94:	2313      	movs	r3, #19
10001c96:	b570      	push	{r4, r5, r6, lr}
10001c98:	781d      	ldrb	r5, [r3, #0]
10001c9a:	2d01      	cmp	r5, #1
10001c9c:	d019      	beq.n	10001cd2 <__aeabi_double_init+0x3e>
10001c9e:	dd14      	ble.n	10001cca <__aeabi_double_init+0x36>
10001ca0:	481f      	ldr	r0, [pc, #124]	@ (10001d20 <__aeabi_double_init+0x8c>)
10001ca2:	f7ff fc8d 	bl	100015c0 <rom_data_lookup>
10001ca6:	0006      	movs	r6, r0
10001ca8:	481e      	ldr	r0, [pc, #120]	@ (10001d24 <__aeabi_double_init+0x90>)
10001caa:	f7ff fc89 	bl	100015c0 <rom_data_lookup>
10001cae:	4c1e      	ldr	r4, [pc, #120]	@ (10001d28 <__aeabi_double_init+0x94>)
10001cb0:	2280      	movs	r2, #128	@ 0x80
10001cb2:	0031      	movs	r1, r6
10001cb4:	0020      	movs	r0, r4
10001cb6:	f000 f8c5 	bl	10001e44 <__wrap___aeabi_memcpy>
10001cba:	2d02      	cmp	r5, #2
10001cbc:	d02d      	beq.n	10001d1a <__aeabi_double_init+0x86>
10001cbe:	481b      	ldr	r0, [pc, #108]	@ (10001d2c <__aeabi_double_init+0x98>)
10001cc0:	f7ff fc76 	bl	100015b0 <rom_func_lookup>
10001cc4:	4b1a      	ldr	r3, [pc, #104]	@ (10001d30 <__aeabi_double_init+0x9c>)
10001cc6:	6018      	str	r0, [r3, #0]
10001cc8:	bd70      	pop	{r4, r5, r6, pc}
10001cca:	4b1a      	ldr	r3, [pc, #104]	@ (10001d34 <__aeabi_double_init+0xa0>)
10001ccc:	4c16      	ldr	r4, [pc, #88]	@ (10001d28 <__aeabi_double_init+0x94>)
10001cce:	64a3      	str	r3, [r4, #72]	@ 0x48
10001cd0:	e7f5      	b.n	10001cbe <__aeabi_double_init+0x2a>
10001cd2:	4b18      	ldr	r3, [pc, #96]	@ (10001d34 <__aeabi_double_init+0xa0>)
10001cd4:	4c14      	ldr	r4, [pc, #80]	@ (10001d28 <__aeabi_double_init+0x94>)
10001cd6:	6023      	str	r3, [r4, #0]
10001cd8:	6063      	str	r3, [r4, #4]
10001cda:	60a3      	str	r3, [r4, #8]
10001cdc:	60e3      	str	r3, [r4, #12]
10001cde:	6123      	str	r3, [r4, #16]
10001ce0:	6163      	str	r3, [r4, #20]
10001ce2:	61a3      	str	r3, [r4, #24]
10001ce4:	61e3      	str	r3, [r4, #28]
10001ce6:	6223      	str	r3, [r4, #32]
10001ce8:	6263      	str	r3, [r4, #36]	@ 0x24
10001cea:	62a3      	str	r3, [r4, #40]	@ 0x28
10001cec:	62e3      	str	r3, [r4, #44]	@ 0x2c
10001cee:	6323      	str	r3, [r4, #48]	@ 0x30
10001cf0:	6363      	str	r3, [r4, #52]	@ 0x34
10001cf2:	63a3      	str	r3, [r4, #56]	@ 0x38
10001cf4:	63e3      	str	r3, [r4, #60]	@ 0x3c
10001cf6:	6423      	str	r3, [r4, #64]	@ 0x40
10001cf8:	6463      	str	r3, [r4, #68]	@ 0x44
10001cfa:	64a3      	str	r3, [r4, #72]	@ 0x48
10001cfc:	64e3      	str	r3, [r4, #76]	@ 0x4c
10001cfe:	6523      	str	r3, [r4, #80]	@ 0x50
10001d00:	6563      	str	r3, [r4, #84]	@ 0x54
10001d02:	65a3      	str	r3, [r4, #88]	@ 0x58
10001d04:	65e3      	str	r3, [r4, #92]	@ 0x5c
10001d06:	6623      	str	r3, [r4, #96]	@ 0x60
10001d08:	6663      	str	r3, [r4, #100]	@ 0x64
10001d0a:	66a3      	str	r3, [r4, #104]	@ 0x68
10001d0c:	66e3      	str	r3, [r4, #108]	@ 0x6c
10001d0e:	6723      	str	r3, [r4, #112]	@ 0x70
10001d10:	6763      	str	r3, [r4, #116]	@ 0x74
10001d12:	67a3      	str	r3, [r4, #120]	@ 0x78
10001d14:	67e3      	str	r3, [r4, #124]	@ 0x7c
10001d16:	64a3      	str	r3, [r4, #72]	@ 0x48
10001d18:	e7d1      	b.n	10001cbe <__aeabi_double_init+0x2a>
10001d1a:	4b06      	ldr	r3, [pc, #24]	@ (10001d34 <__aeabi_double_init+0xa0>)
10001d1c:	64a3      	str	r3, [r4, #72]	@ 0x48
10001d1e:	e7ce      	b.n	10001cbe <__aeabi_double_init+0x2a>
10001d20:	00004453 	.word	0x00004453
10001d24:	00004653 	.word	0x00004653
10001d28:	200011d8 	.word	0x200011d8
10001d2c:	0000334c 	.word	0x0000334c
10001d30:	20002348 	.word	0x20002348
10001d34:	10001d39 	.word	0x10001d39

10001d38 <double_table_shim_on_use_helper>:
10001d38:	b507      	push	{r0, r1, r2, lr}
10001d3a:	4660      	mov	r0, ip
10001d3c:	8801      	ldrh	r1, [r0, #0]
10001d3e:	0a0a      	lsrs	r2, r1, #8
10001d40:	3002      	adds	r0, #2
10001d42:	2adf      	cmp	r2, #223	@ 0xdf
10001d44:	d1fa      	bne.n	10001d3c <double_table_shim_on_use_helper+0x4>
10001d46:	b2c9      	uxtb	r1, r1
10001d48:	0882      	lsrs	r2, r0, #2
10001d4a:	d304      	bcc.n	10001d56 <double_table_shim_on_use_helper+0x1e>
10001d4c:	8802      	ldrh	r2, [r0, #0]
10001d4e:	8840      	ldrh	r0, [r0, #2]
10001d50:	0400      	lsls	r0, r0, #16
10001d52:	4310      	orrs	r0, r2
10001d54:	e000      	b.n	10001d58 <double_table_shim_on_use_helper+0x20>
10001d56:	6800      	ldr	r0, [r0, #0]
10001d58:	4a01      	ldr	r2, [pc, #4]	@ (10001d60 <double_table_shim_on_use_helper+0x28>)
10001d5a:	5050      	str	r0, [r2, r1]
10001d5c:	9003      	str	r0, [sp, #12]
10001d5e:	bd07      	pop	{r0, r1, r2, pc}
10001d60:	200011d8 	.word	0x200011d8

10001d64 <__wrap___aeabi_lmul>:
10001d64:	4351      	muls	r1, r2
10001d66:	4343      	muls	r3, r0
10001d68:	18c9      	adds	r1, r1, r3
10001d6a:	468c      	mov	ip, r1
10001d6c:	0c11      	lsrs	r1, r2, #16
10001d6e:	b283      	uxth	r3, r0
10001d70:	434b      	muls	r3, r1
10001d72:	b410      	push	{r4}
10001d74:	0c04      	lsrs	r4, r0, #16
10001d76:	4361      	muls	r1, r4
10001d78:	b292      	uxth	r2, r2
10001d7a:	b280      	uxth	r0, r0
10001d7c:	4350      	muls	r0, r2
10001d7e:	4362      	muls	r2, r4
10001d80:	041c      	lsls	r4, r3, #16
10001d82:	0c1b      	lsrs	r3, r3, #16
10001d84:	1900      	adds	r0, r0, r4
10001d86:	bc10      	pop	{r4}
10001d88:	4159      	adcs	r1, r3
10001d8a:	0413      	lsls	r3, r2, #16
10001d8c:	0c12      	lsrs	r2, r2, #16
10001d8e:	18c0      	adds	r0, r0, r3
10001d90:	4151      	adcs	r1, r2
10001d92:	4461      	add	r1, ip
10001d94:	4770      	bx	lr
	...

10001d98 <__aeabi_float_init>:
10001d98:	2313      	movs	r3, #19
10001d9a:	b510      	push	{r4, lr}
10001d9c:	4812      	ldr	r0, [pc, #72]	@ (10001de8 <__aeabi_float_init+0x50>)
10001d9e:	781c      	ldrb	r4, [r3, #0]
10001da0:	f7ff fc0e 	bl	100015c0 <rom_data_lookup>
10001da4:	0001      	movs	r1, r0
10001da6:	2c01      	cmp	r4, #1
10001da8:	d00a      	beq.n	10001dc0 <__aeabi_float_init+0x28>
10001daa:	dd03      	ble.n	10001db4 <__aeabi_float_init+0x1c>
10001dac:	2280      	movs	r2, #128	@ 0x80
10001dae:	480f      	ldr	r0, [pc, #60]	@ (10001dec <__aeabi_float_init+0x54>)
10001db0:	f000 f848 	bl	10001e44 <__wrap___aeabi_memcpy>
10001db4:	480e      	ldr	r0, [pc, #56]	@ (10001df0 <__aeabi_float_init+0x58>)
10001db6:	f7ff fbfb 	bl	100015b0 <rom_func_lookup>
10001dba:	4b0e      	ldr	r3, [pc, #56]	@ (10001df4 <__aeabi_float_init+0x5c>)
10001dbc:	6018      	str	r0, [r3, #0]
10001dbe:	bd10      	pop	{r4, pc}
10001dc0:	4c0a      	ldr	r4, [pc, #40]	@ (10001dec <__aeabi_float_init+0x54>)
10001dc2:	2254      	movs	r2, #84	@ 0x54
10001dc4:	0020      	movs	r0, r4
10001dc6:	f000 f83d 	bl	10001e44 <__wrap___aeabi_memcpy>
10001dca:	4b0b      	ldr	r3, [pc, #44]	@ (10001df8 <__aeabi_float_init+0x60>)
10001dcc:	6563      	str	r3, [r4, #84]	@ 0x54
10001dce:	65a3      	str	r3, [r4, #88]	@ 0x58
10001dd0:	65e3      	str	r3, [r4, #92]	@ 0x5c
10001dd2:	6623      	str	r3, [r4, #96]	@ 0x60
10001dd4:	6663      	str	r3, [r4, #100]	@ 0x64
10001dd6:	66a3      	str	r3, [r4, #104]	@ 0x68
10001dd8:	66e3      	str	r3, [r4, #108]	@ 0x6c
10001dda:	6723      	str	r3, [r4, #112]	@ 0x70
10001ddc:	6763      	str	r3, [r4, #116]	@ 0x74
10001dde:	67a3      	str	r3, [r4, #120]	@ 0x78
10001de0:	67e3      	str	r3, [r4, #124]	@ 0x7c
10001de2:	6223      	str	r3, [r4, #32]
10001de4:	61e3      	str	r3, [r4, #28]
10001de6:	e7e5      	b.n	10001db4 <__aeabi_float_init+0x1c>
10001de8:	00004653 	.word	0x00004653
10001dec:	200012d8 	.word	0x200012d8
10001df0:	0000334c 	.word	0x0000334c
10001df4:	20002348 	.word	0x20002348
10001df8:	10001dfd 	.word	0x10001dfd

10001dfc <float_table_shim_on_use_helper>:
10001dfc:	b507      	push	{r0, r1, r2, lr}
10001dfe:	4660      	mov	r0, ip
10001e00:	8801      	ldrh	r1, [r0, #0]
10001e02:	0a0a      	lsrs	r2, r1, #8
10001e04:	3002      	adds	r0, #2
10001e06:	2adf      	cmp	r2, #223	@ 0xdf
10001e08:	d1fa      	bne.n	10001e00 <float_table_shim_on_use_helper+0x4>
10001e0a:	b2c9      	uxtb	r1, r1
10001e0c:	0882      	lsrs	r2, r0, #2
10001e0e:	d304      	bcc.n	10001e1a <float_table_shim_on_use_helper+0x1e>
10001e10:	8802      	ldrh	r2, [r0, #0]
10001e12:	8840      	ldrh	r0, [r0, #2]
10001e14:	0400      	lsls	r0, r0, #16
10001e16:	4310      	orrs	r0, r2
10001e18:	e000      	b.n	10001e1c <float_table_shim_on_use_helper+0x20>
10001e1a:	6800      	ldr	r0, [r0, #0]
10001e1c:	4a01      	ldr	r2, [pc, #4]	@ (10001e24 <float_table_shim_on_use_helper+0x28>)
10001e1e:	5050      	str	r0, [r2, r1]
10001e20:	9003      	str	r0, [sp, #12]
10001e22:	bd07      	pop	{r0, r1, r2, pc}
10001e24:	200012d8 	.word	0x200012d8

10001e28 <__aeabi_mem_init>:
10001e28:	4801      	ldr	r0, [pc, #4]	@ (10001e30 <__aeabi_mem_init+0x8>)
10001e2a:	2104      	movs	r1, #4
10001e2c:	4b01      	ldr	r3, [pc, #4]	@ (10001e34 <__aeabi_mem_init+0xc>)
10001e2e:	4718      	bx	r3
10001e30:	20000ff0 	.word	0x20000ff0
10001e34:	100015d1 	.word	0x100015d1

10001e38 <__wrap_memset>:
10001e38:	4b01      	ldr	r3, [pc, #4]	@ (10001e40 <__wrap_memset+0x8>)
10001e3a:	681b      	ldr	r3, [r3, #0]
10001e3c:	4718      	bx	r3
10001e3e:	0000      	.short	0x0000
10001e40:	20000ff0 	.word	0x20000ff0

10001e44 <__wrap___aeabi_memcpy>:
10001e44:	4b01      	ldr	r3, [pc, #4]	@ (10001e4c <__wrap___aeabi_memcpy+0x8>)
10001e46:	685b      	ldr	r3, [r3, #4]
10001e48:	4718      	bx	r3
10001e4a:	0000      	.short	0x0000
10001e4c:	20000ff0 	.word	0x20000ff0

10001e50 <_out_char>:
10001e50:	b510      	push	{r4, lr}
10001e52:	2800      	cmp	r0, #0
10001e54:	d100      	bne.n	10001e58 <_out_char+0x8>
10001e56:	bd10      	pop	{r4, pc}
10001e58:	f000 f924 	bl	100020a4 <__wrap_putchar>
10001e5c:	e7fb      	b.n	10001e56 <_out_char+0x6>
10001e5e:	46c0      	nop			@ (mov r8, r8)

10001e60 <weak_raw_vprintf>:
10001e60:	b510      	push	{r4, lr}
10001e62:	4a09      	ldr	r2, [pc, #36]	@ (10001e88 <weak_raw_vprintf+0x28>)
10001e64:	0003      	movs	r3, r0
10001e66:	6814      	ldr	r4, [r2, #0]
10001e68:	b084      	sub	sp, #16
10001e6a:	2c00      	cmp	r4, #0
10001e6c:	d008      	beq.n	10001e80 <weak_raw_vprintf+0x20>
10001e6e:	2201      	movs	r2, #1
10001e70:	9100      	str	r1, [sp, #0]
10001e72:	4806      	ldr	r0, [pc, #24]	@ (10001e8c <weak_raw_vprintf+0x2c>)
10001e74:	4252      	negs	r2, r2
10001e76:	a903      	add	r1, sp, #12
10001e78:	47a0      	blx	r4
10001e7a:	2001      	movs	r0, #1
10001e7c:	b004      	add	sp, #16
10001e7e:	bd10      	pop	{r4, pc}
10001e80:	f000 f95c 	bl	1000213c <__wrap_puts>
10001e84:	2000      	movs	r0, #0
10001e86:	e7f9      	b.n	10001e7c <weak_raw_vprintf+0x1c>
10001e88:	20002088 	.word	0x20002088
10001e8c:	10001e51 	.word	0x10001e51

10001e90 <_exit>:
10001e90:	be00      	bkpt	0x0000
10001e92:	e7fd      	b.n	10001e90 <_exit>

10001e94 <exit>:
10001e94:	b510      	push	{r4, lr}
10001e96:	f7ff fffb 	bl	10001e90 <_exit>
10001e9a:	46c0      	nop			@ (mov r8, r8)

10001e9c <runtime_init>:
10001e9c:	b570      	push	{r4, r5, r6, lr}
10001e9e:	f7ff fbe9 	bl	10001674 <runtime_run_initializers>
10001ea2:	4d07      	ldr	r5, [pc, #28]	@ (10001ec0 <runtime_init+0x24>)
10001ea4:	4e07      	ldr	r6, [pc, #28]	@ (10001ec4 <runtime_init+0x28>)
10001ea6:	42b5      	cmp	r5, r6
10001ea8:	d209      	bcs.n	10001ebe <runtime_init+0x22>
10001eaa:	2400      	movs	r4, #0
10001eac:	3e01      	subs	r6, #1
10001eae:	1b76      	subs	r6, r6, r5
10001eb0:	08b6      	lsrs	r6, r6, #2
10001eb2:	cd08      	ldmia	r5!, {r3}
10001eb4:	4798      	blx	r3
10001eb6:	0023      	movs	r3, r4
10001eb8:	3401      	adds	r4, #1
10001eba:	42b3      	cmp	r3, r6
10001ebc:	d1f9      	bne.n	10001eb2 <runtime_init+0x16>
10001ebe:	bd70      	pop	{r4, r5, r6, pc}
10001ec0:	10005a0c 	.word	0x10005a0c
10001ec4:	10005a1c 	.word	0x10005a1c

10001ec8 <stdio_out_chars_no_crlf>:
10001ec8:	0003      	movs	r3, r0
10001eca:	b510      	push	{r4, lr}
10001ecc:	0008      	movs	r0, r1
10001ece:	0011      	movs	r1, r2
10001ed0:	681b      	ldr	r3, [r3, #0]
10001ed2:	4798      	blx	r3
10001ed4:	bd10      	pop	{r4, pc}
10001ed6:	46c0      	nop			@ (mov r8, r8)

10001ed8 <stdio_out_chars_crlf>:
10001ed8:	b5f0      	push	{r4, r5, r6, r7, lr}
10001eda:	46c6      	mov	lr, r8
10001edc:	b500      	push	{lr}
10001ede:	7d43      	ldrb	r3, [r0, #21]
10001ee0:	0007      	movs	r7, r0
10001ee2:	000d      	movs	r5, r1
10001ee4:	0016      	movs	r6, r2
10001ee6:	2b00      	cmp	r3, #0
10001ee8:	d038      	beq.n	10001f5c <stdio_out_chars_crlf+0x84>
10001eea:	2a00      	cmp	r2, #0
10001eec:	dd2e      	ble.n	10001f4c <stdio_out_chars_crlf+0x74>
10001eee:	2100      	movs	r1, #0
10001ef0:	1e6a      	subs	r2, r5, #1
10001ef2:	4690      	mov	r8, r2
10001ef4:	5c6a      	ldrb	r2, [r5, r1]
10001ef6:	7d03      	ldrb	r3, [r0, #20]
10001ef8:	1c4c      	adds	r4, r1, #1
10001efa:	2000      	movs	r0, #0
10001efc:	2a0a      	cmp	r2, #10
10001efe:	d00c      	beq.n	10001f1a <stdio_out_chars_crlf+0x42>
10001f00:	42a6      	cmp	r6, r4
10001f02:	d016      	beq.n	10001f32 <stdio_out_chars_crlf+0x5a>
10001f04:	4643      	mov	r3, r8
10001f06:	5d1b      	ldrb	r3, [r3, r4]
10001f08:	0021      	movs	r1, r4
10001f0a:	3b0d      	subs	r3, #13
10001f0c:	425a      	negs	r2, r3
10001f0e:	4153      	adcs	r3, r2
10001f10:	5c6a      	ldrb	r2, [r5, r1]
10001f12:	b2db      	uxtb	r3, r3
10001f14:	1c4c      	adds	r4, r1, #1
10001f16:	2a0a      	cmp	r2, #10
10001f18:	d1f2      	bne.n	10001f00 <stdio_out_chars_crlf+0x28>
10001f1a:	2b00      	cmp	r3, #0
10001f1c:	d1f0      	bne.n	10001f00 <stdio_out_chars_crlf+0x28>
10001f1e:	4288      	cmp	r0, r1
10001f20:	db17      	blt.n	10001f52 <stdio_out_chars_crlf+0x7a>
10001f22:	2102      	movs	r1, #2
10001f24:	4810      	ldr	r0, [pc, #64]	@ (10001f68 <stdio_out_chars_crlf+0x90>)
10001f26:	683b      	ldr	r3, [r7, #0]
10001f28:	4798      	blx	r3
10001f2a:	42a6      	cmp	r6, r4
10001f2c:	d007      	beq.n	10001f3e <stdio_out_chars_crlf+0x66>
10001f2e:	0020      	movs	r0, r4
10001f30:	e7e8      	b.n	10001f04 <stdio_out_chars_crlf+0x2c>
10001f32:	4286      	cmp	r6, r0
10001f34:	dd03      	ble.n	10001f3e <stdio_out_chars_crlf+0x66>
10001f36:	1a31      	subs	r1, r6, r0
10001f38:	683b      	ldr	r3, [r7, #0]
10001f3a:	1828      	adds	r0, r5, r0
10001f3c:	4798      	blx	r3
10001f3e:	19ad      	adds	r5, r5, r6
10001f40:	3d01      	subs	r5, #1
10001f42:	782b      	ldrb	r3, [r5, #0]
10001f44:	3b0d      	subs	r3, #13
10001f46:	425a      	negs	r2, r3
10001f48:	4153      	adcs	r3, r2
10001f4a:	753b      	strb	r3, [r7, #20]
10001f4c:	bc80      	pop	{r7}
10001f4e:	46b8      	mov	r8, r7
10001f50:	bdf0      	pop	{r4, r5, r6, r7, pc}
10001f52:	1a09      	subs	r1, r1, r0
10001f54:	683b      	ldr	r3, [r7, #0]
10001f56:	1828      	adds	r0, r5, r0
10001f58:	4798      	blx	r3
10001f5a:	e7e2      	b.n	10001f22 <stdio_out_chars_crlf+0x4a>
10001f5c:	6803      	ldr	r3, [r0, #0]
10001f5e:	0011      	movs	r1, r2
10001f60:	0028      	movs	r0, r5
10001f62:	4798      	blx	r3
10001f64:	e7f2      	b.n	10001f4c <stdio_out_chars_crlf+0x74>
10001f66:	46c0      	nop			@ (mov r8, r8)
10001f68:	10005bec 	.word	0x10005bec

10001f6c <stdio_put_string>:
10001f6c:	b5f0      	push	{r4, r5, r6, r7, lr}
10001f6e:	46de      	mov	lr, fp
10001f70:	4657      	mov	r7, sl
10001f72:	464e      	mov	r6, r9
10001f74:	4645      	mov	r5, r8
10001f76:	b5e0      	push	{r5, r6, r7, lr}
10001f78:	b085      	sub	sp, #20
10001f7a:	0017      	movs	r7, r2
10001f7c:	001c      	movs	r4, r3
10001f7e:	0006      	movs	r6, r0
10001f80:	000d      	movs	r5, r1
10001f82:	f7ff f95f 	bl	10001244 <time_us_64>
10001f86:	2300      	movs	r3, #0
10001f88:	4a31      	ldr	r2, [pc, #196]	@ (10002050 <stdio_put_string+0xe4>)
10001f8a:	1812      	adds	r2, r2, r0
10001f8c:	414b      	adcs	r3, r1
10001f8e:	2180      	movs	r1, #128	@ 0x80
10001f90:	0609      	lsls	r1, r1, #24
10001f92:	428b      	cmp	r3, r1
10001f94:	d302      	bcc.n	10001f9c <stdio_put_string+0x30>
10001f96:	2201      	movs	r2, #1
10001f98:	4b2e      	ldr	r3, [pc, #184]	@ (10002054 <stdio_put_string+0xe8>)
10001f9a:	4252      	negs	r2, r2
10001f9c:	492e      	ldr	r1, [pc, #184]	@ (10002058 <stdio_put_string+0xec>)
10001f9e:	0008      	movs	r0, r1
10001fa0:	468a      	mov	sl, r1
10001fa2:	f003 fcf5 	bl	10005990 <__mutex_try_enter_block_until_veneer>
10001fa6:	9001      	str	r0, [sp, #4]
10001fa8:	1c6b      	adds	r3, r5, #1
10001faa:	d103      	bne.n	10001fb4 <stdio_put_string+0x48>
10001fac:	0030      	movs	r0, r6
10001fae:	f003 fc21 	bl	100057f4 <strlen>
10001fb2:	0005      	movs	r5, r0
10001fb4:	2c00      	cmp	r4, #0
10001fb6:	d026      	beq.n	10002006 <stdio_put_string+0x9a>
10001fb8:	4b28      	ldr	r3, [pc, #160]	@ (1000205c <stdio_put_string+0xf0>)
10001fba:	4698      	mov	r8, r3
10001fbc:	4b28      	ldr	r3, [pc, #160]	@ (10002060 <stdio_put_string+0xf4>)
10001fbe:	681c      	ldr	r4, [r3, #0]
10001fc0:	2c00      	cmp	r4, #0
10001fc2:	d015      	beq.n	10001ff0 <stdio_put_string+0x84>
10001fc4:	2f00      	cmp	r7, #0
10001fc6:	d121      	bne.n	1000200c <stdio_put_string+0xa0>
10001fc8:	4f26      	ldr	r7, [pc, #152]	@ (10002064 <stdio_put_string+0xf8>)
10001fca:	e002      	b.n	10001fd2 <stdio_put_string+0x66>
10001fcc:	6924      	ldr	r4, [r4, #16]
10001fce:	2c00      	cmp	r4, #0
10001fd0:	d00e      	beq.n	10001ff0 <stdio_put_string+0x84>
10001fd2:	6823      	ldr	r3, [r4, #0]
10001fd4:	2b00      	cmp	r3, #0
10001fd6:	d0f9      	beq.n	10001fcc <stdio_put_string+0x60>
10001fd8:	683b      	ldr	r3, [r7, #0]
10001fda:	2b00      	cmp	r3, #0
10001fdc:	d001      	beq.n	10001fe2 <stdio_put_string+0x76>
10001fde:	429c      	cmp	r4, r3
10001fe0:	d1f4      	bne.n	10001fcc <stdio_put_string+0x60>
10001fe2:	0020      	movs	r0, r4
10001fe4:	002a      	movs	r2, r5
10001fe6:	0031      	movs	r1, r6
10001fe8:	47c0      	blx	r8
10001fea:	6924      	ldr	r4, [r4, #16]
10001fec:	2c00      	cmp	r4, #0
10001fee:	d1f0      	bne.n	10001fd2 <stdio_put_string+0x66>
10001ff0:	9b01      	ldr	r3, [sp, #4]
10001ff2:	2b00      	cmp	r3, #0
10001ff4:	d128      	bne.n	10002048 <stdio_put_string+0xdc>
10001ff6:	0028      	movs	r0, r5
10001ff8:	b005      	add	sp, #20
10001ffa:	bcf0      	pop	{r4, r5, r6, r7}
10001ffc:	46bb      	mov	fp, r7
10001ffe:	46b2      	mov	sl, r6
10002000:	46a9      	mov	r9, r5
10002002:	46a0      	mov	r8, r4
10002004:	bdf0      	pop	{r4, r5, r6, r7, pc}
10002006:	4b18      	ldr	r3, [pc, #96]	@ (10002068 <stdio_put_string+0xfc>)
10002008:	4698      	mov	r8, r3
1000200a:	e7d7      	b.n	10001fbc <stdio_put_string+0x50>
1000200c:	4b15      	ldr	r3, [pc, #84]	@ (10002064 <stdio_put_string+0xf8>)
1000200e:	4699      	mov	r9, r3
10002010:	ab02      	add	r3, sp, #8
10002012:	1ddf      	adds	r7, r3, #7
10002014:	230a      	movs	r3, #10
10002016:	469b      	mov	fp, r3
10002018:	e002      	b.n	10002020 <stdio_put_string+0xb4>
1000201a:	6924      	ldr	r4, [r4, #16]
1000201c:	2c00      	cmp	r4, #0
1000201e:	d0e7      	beq.n	10001ff0 <stdio_put_string+0x84>
10002020:	6823      	ldr	r3, [r4, #0]
10002022:	2b00      	cmp	r3, #0
10002024:	d0f9      	beq.n	1000201a <stdio_put_string+0xae>
10002026:	464b      	mov	r3, r9
10002028:	681b      	ldr	r3, [r3, #0]
1000202a:	2b00      	cmp	r3, #0
1000202c:	d001      	beq.n	10002032 <stdio_put_string+0xc6>
1000202e:	42a3      	cmp	r3, r4
10002030:	d1f3      	bne.n	1000201a <stdio_put_string+0xae>
10002032:	002a      	movs	r2, r5
10002034:	0031      	movs	r1, r6
10002036:	0020      	movs	r0, r4
10002038:	47c0      	blx	r8
1000203a:	465b      	mov	r3, fp
1000203c:	2201      	movs	r2, #1
1000203e:	0039      	movs	r1, r7
10002040:	0020      	movs	r0, r4
10002042:	703b      	strb	r3, [r7, #0]
10002044:	47c0      	blx	r8
10002046:	e7e8      	b.n	1000201a <stdio_put_string+0xae>
10002048:	4650      	mov	r0, sl
1000204a:	f003 fc71 	bl	10005930 <__mutex_exit_veneer>
1000204e:	e7d2      	b.n	10001ff6 <stdio_put_string+0x8a>
10002050:	000f4240 	.word	0x000f4240
10002054:	7fffffff 	.word	0x7fffffff
10002058:	20001044 	.word	0x20001044
1000205c:	10001ed9 	.word	0x10001ed9
10002060:	20001c7c 	.word	0x20001c7c
10002064:	20001c84 	.word	0x20001c84
10002068:	10001ec9 	.word	0x10001ec9

1000206c <stdio_set_driver_enabled>:
1000206c:	4a0a      	ldr	r2, [pc, #40]	@ (10002098 <stdio_set_driver_enabled+0x2c>)
1000206e:	6813      	ldr	r3, [r2, #0]
10002070:	2b00      	cmp	r3, #0
10002072:	d105      	bne.n	10002080 <stdio_set_driver_enabled+0x14>
10002074:	e00c      	b.n	10002090 <stdio_set_driver_enabled+0x24>
10002076:	001a      	movs	r2, r3
10002078:	691b      	ldr	r3, [r3, #16]
1000207a:	3210      	adds	r2, #16
1000207c:	2b00      	cmp	r3, #0
1000207e:	d007      	beq.n	10002090 <stdio_set_driver_enabled+0x24>
10002080:	4298      	cmp	r0, r3
10002082:	d1f8      	bne.n	10002076 <stdio_set_driver_enabled+0xa>
10002084:	2900      	cmp	r1, #0
10002086:	d102      	bne.n	1000208e <stdio_set_driver_enabled+0x22>
10002088:	6903      	ldr	r3, [r0, #16]
1000208a:	6013      	str	r3, [r2, #0]
1000208c:	6101      	str	r1, [r0, #16]
1000208e:	4770      	bx	lr
10002090:	2900      	cmp	r1, #0
10002092:	d0fc      	beq.n	1000208e <stdio_set_driver_enabled+0x22>
10002094:	6010      	str	r0, [r2, #0]
10002096:	e7fa      	b.n	1000208e <stdio_set_driver_enabled+0x22>
10002098:	20001c7c 	.word	0x20001c7c

1000209c <stdio_init_all>:
1000209c:	b510      	push	{r4, lr}
1000209e:	f000 fa8d 	bl	100025bc <stdio_usb_init>
100020a2:	bd10      	pop	{r4, pc}

100020a4 <__wrap_putchar>:
100020a4:	b5f0      	push	{r4, r5, r6, r7, lr}
100020a6:	46ce      	mov	lr, r9
100020a8:	4647      	mov	r7, r8
100020aa:	b580      	push	{r7, lr}
100020ac:	b083      	sub	sp, #12
100020ae:	466b      	mov	r3, sp
100020b0:	0006      	movs	r6, r0
100020b2:	1ddd      	adds	r5, r3, #7
100020b4:	7028      	strb	r0, [r5, #0]
100020b6:	f7ff f8c5 	bl	10001244 <time_us_64>
100020ba:	2300      	movs	r3, #0
100020bc:	4a1a      	ldr	r2, [pc, #104]	@ (10002128 <__wrap_putchar+0x84>)
100020be:	1812      	adds	r2, r2, r0
100020c0:	414b      	adcs	r3, r1
100020c2:	2180      	movs	r1, #128	@ 0x80
100020c4:	0609      	lsls	r1, r1, #24
100020c6:	428b      	cmp	r3, r1
100020c8:	d302      	bcc.n	100020d0 <__wrap_putchar+0x2c>
100020ca:	2201      	movs	r2, #1
100020cc:	4b17      	ldr	r3, [pc, #92]	@ (1000212c <__wrap_putchar+0x88>)
100020ce:	4252      	negs	r2, r2
100020d0:	4917      	ldr	r1, [pc, #92]	@ (10002130 <__wrap_putchar+0x8c>)
100020d2:	0008      	movs	r0, r1
100020d4:	4688      	mov	r8, r1
100020d6:	f003 fc5b 	bl	10005990 <__mutex_try_enter_block_until_veneer>
100020da:	4b16      	ldr	r3, [pc, #88]	@ (10002134 <__wrap_putchar+0x90>)
100020dc:	4681      	mov	r9, r0
100020de:	681c      	ldr	r4, [r3, #0]
100020e0:	2c00      	cmp	r4, #0
100020e2:	d014      	beq.n	1000210e <__wrap_putchar+0x6a>
100020e4:	4f14      	ldr	r7, [pc, #80]	@ (10002138 <__wrap_putchar+0x94>)
100020e6:	e002      	b.n	100020ee <__wrap_putchar+0x4a>
100020e8:	6924      	ldr	r4, [r4, #16]
100020ea:	2c00      	cmp	r4, #0
100020ec:	d00f      	beq.n	1000210e <__wrap_putchar+0x6a>
100020ee:	6823      	ldr	r3, [r4, #0]
100020f0:	2b00      	cmp	r3, #0
100020f2:	d0f9      	beq.n	100020e8 <__wrap_putchar+0x44>
100020f4:	683b      	ldr	r3, [r7, #0]
100020f6:	2b00      	cmp	r3, #0
100020f8:	d001      	beq.n	100020fe <__wrap_putchar+0x5a>
100020fa:	429c      	cmp	r4, r3
100020fc:	d1f4      	bne.n	100020e8 <__wrap_putchar+0x44>
100020fe:	0020      	movs	r0, r4
10002100:	2201      	movs	r2, #1
10002102:	0029      	movs	r1, r5
10002104:	f7ff fee8 	bl	10001ed8 <stdio_out_chars_crlf>
10002108:	6924      	ldr	r4, [r4, #16]
1000210a:	2c00      	cmp	r4, #0
1000210c:	d1ef      	bne.n	100020ee <__wrap_putchar+0x4a>
1000210e:	464b      	mov	r3, r9
10002110:	2b00      	cmp	r3, #0
10002112:	d105      	bne.n	10002120 <__wrap_putchar+0x7c>
10002114:	0030      	movs	r0, r6
10002116:	b003      	add	sp, #12
10002118:	bcc0      	pop	{r6, r7}
1000211a:	46b9      	mov	r9, r7
1000211c:	46b0      	mov	r8, r6
1000211e:	bdf0      	pop	{r4, r5, r6, r7, pc}
10002120:	4640      	mov	r0, r8
10002122:	f003 fc05 	bl	10005930 <__mutex_exit_veneer>
10002126:	e7f5      	b.n	10002114 <__wrap_putchar+0x70>
10002128:	000f4240 	.word	0x000f4240
1000212c:	7fffffff 	.word	0x7fffffff
10002130:	20001044 	.word	0x20001044
10002134:	20001c7c 	.word	0x20001c7c
10002138:	20001c84 	.word	0x20001c84

1000213c <__wrap_puts>:
1000213c:	b570      	push	{r4, r5, r6, lr}
1000213e:	0004      	movs	r4, r0
10002140:	f003 fb58 	bl	100057f4 <strlen>
10002144:	2301      	movs	r3, #1
10002146:	0001      	movs	r1, r0
10002148:	0005      	movs	r5, r0
1000214a:	2201      	movs	r2, #1
1000214c:	0020      	movs	r0, r4
1000214e:	f7ff ff0d 	bl	10001f6c <stdio_put_string>
10002152:	4b08      	ldr	r3, [pc, #32]	@ (10002174 <__wrap_puts+0x38>)
10002154:	681c      	ldr	r4, [r3, #0]
10002156:	2c00      	cmp	r4, #0
10002158:	d006      	beq.n	10002168 <__wrap_puts+0x2c>
1000215a:	6863      	ldr	r3, [r4, #4]
1000215c:	2b00      	cmp	r3, #0
1000215e:	d005      	beq.n	1000216c <__wrap_puts+0x30>
10002160:	4798      	blx	r3
10002162:	6924      	ldr	r4, [r4, #16]
10002164:	2c00      	cmp	r4, #0
10002166:	d1f8      	bne.n	1000215a <__wrap_puts+0x1e>
10002168:	0028      	movs	r0, r5
1000216a:	bd70      	pop	{r4, r5, r6, pc}
1000216c:	6924      	ldr	r4, [r4, #16]
1000216e:	2c00      	cmp	r4, #0
10002170:	d1f3      	bne.n	1000215a <__wrap_puts+0x1e>
10002172:	e7f9      	b.n	10002168 <__wrap_puts+0x2c>
10002174:	20001c7c 	.word	0x20001c7c

10002178 <resetd_init>:
10002178:	4770      	bx	lr
1000217a:	46c0      	nop			@ (mov r8, r8)

1000217c <resetd_reset>:
1000217c:	2200      	movs	r2, #0
1000217e:	4b01      	ldr	r3, [pc, #4]	@ (10002184 <resetd_reset+0x8>)
10002180:	701a      	strb	r2, [r3, #0]
10002182:	4770      	bx	lr
10002184:	200223de 	.word	0x200223de

10002188 <resetd_open>:
10002188:	794b      	ldrb	r3, [r1, #5]
1000218a:	2000      	movs	r0, #0
1000218c:	2bff      	cmp	r3, #255	@ 0xff
1000218e:	d10b      	bne.n	100021a8 <resetd_open+0x20>
10002190:	798b      	ldrb	r3, [r1, #6]
10002192:	2b00      	cmp	r3, #0
10002194:	d108      	bne.n	100021a8 <resetd_open+0x20>
10002196:	79cb      	ldrb	r3, [r1, #7]
10002198:	2b01      	cmp	r3, #1
1000219a:	d105      	bne.n	100021a8 <resetd_open+0x20>
1000219c:	2a08      	cmp	r2, #8
1000219e:	d903      	bls.n	100021a8 <resetd_open+0x20>
100021a0:	4b02      	ldr	r3, [pc, #8]	@ (100021ac <resetd_open+0x24>)
100021a2:	788a      	ldrb	r2, [r1, #2]
100021a4:	3009      	adds	r0, #9
100021a6:	701a      	strb	r2, [r3, #0]
100021a8:	4770      	bx	lr
100021aa:	46c0      	nop			@ (mov r8, r8)
100021ac:	200223de 	.word	0x200223de

100021b0 <resetd_xfer_cb>:
100021b0:	2001      	movs	r0, #1
100021b2:	4770      	bx	lr

100021b4 <resetd_control_xfer_cb>:
100021b4:	b510      	push	{r4, lr}
100021b6:	2901      	cmp	r1, #1
100021b8:	d001      	beq.n	100021be <resetd_control_xfer_cb+0xa>
100021ba:	2001      	movs	r0, #1
100021bc:	bd10      	pop	{r4, pc}
100021be:	4913      	ldr	r1, [pc, #76]	@ (1000220c <resetd_control_xfer_cb+0x58>)
100021c0:	7953      	ldrb	r3, [r2, #5]
100021c2:	7910      	ldrb	r0, [r2, #4]
100021c4:	7809      	ldrb	r1, [r1, #0]
100021c6:	021b      	lsls	r3, r3, #8
100021c8:	4303      	orrs	r3, r0
100021ca:	2000      	movs	r0, #0
100021cc:	4299      	cmp	r1, r3
100021ce:	d1f5      	bne.n	100021bc <resetd_control_xfer_cb+0x8>
100021d0:	7853      	ldrb	r3, [r2, #1]
100021d2:	2b01      	cmp	r3, #1
100021d4:	d008      	beq.n	100021e8 <resetd_control_xfer_cb+0x34>
100021d6:	2b02      	cmp	r3, #2
100021d8:	d1f0      	bne.n	100021bc <resetd_control_xfer_cb+0x8>
100021da:	2000      	movs	r0, #0
100021dc:	2264      	movs	r2, #100	@ 0x64
100021de:	2100      	movs	r1, #0
100021e0:	f7ff f990 	bl	10001504 <watchdog_reboot>
100021e4:	2001      	movs	r0, #1
100021e6:	e7e9      	b.n	100021bc <resetd_control_xfer_cb+0x8>
100021e8:	78d3      	ldrb	r3, [r2, #3]
100021ea:	7891      	ldrb	r1, [r2, #2]
100021ec:	021b      	lsls	r3, r3, #8
100021ee:	4319      	orrs	r1, r3
100021f0:	05db      	lsls	r3, r3, #23
100021f2:	d507      	bpl.n	10002204 <resetd_control_xfer_cb+0x50>
100021f4:	0a4a      	lsrs	r2, r1, #9
100021f6:	0010      	movs	r0, r2
100021f8:	2301      	movs	r3, #1
100021fa:	401a      	ands	r2, r3
100021fc:	337e      	adds	r3, #126	@ 0x7e
100021fe:	4019      	ands	r1, r3
10002200:	f7ff fa08 	bl	10001614 <rom_reset_usb_boot_extra>
10002204:	2001      	movs	r0, #1
10002206:	0a4a      	lsrs	r2, r1, #9
10002208:	4240      	negs	r0, r0
1000220a:	e7f5      	b.n	100021f8 <resetd_control_xfer_cb+0x44>
1000220c:	200223de 	.word	0x200223de

10002210 <tud_descriptor_bos_cb>:
10002210:	4800      	ldr	r0, [pc, #0]	@ (10002214 <tud_descriptor_bos_cb+0x4>)
10002212:	4770      	bx	lr
10002214:	10005cb8 	.word	0x10005cb8

10002218 <tud_vendor_control_xfer_cb>:
10002218:	b570      	push	{r4, r5, r6, lr}
1000221a:	0005      	movs	r5, r0
1000221c:	0014      	movs	r4, r2
1000221e:	2001      	movs	r0, #1
10002220:	2901      	cmp	r1, #1
10002222:	d109      	bne.n	10002238 <tud_vendor_control_xfer_cb+0x20>
10002224:	7853      	ldrb	r3, [r2, #1]
10002226:	2000      	movs	r0, #0
10002228:	2b01      	cmp	r3, #1
1000222a:	d105      	bne.n	10002238 <tud_vendor_control_xfer_cb+0x20>
1000222c:	7963      	ldrb	r3, [r4, #5]
1000222e:	7912      	ldrb	r2, [r2, #4]
10002230:	021b      	lsls	r3, r3, #8
10002232:	4313      	orrs	r3, r2
10002234:	2b07      	cmp	r3, #7
10002236:	d000      	beq.n	1000223a <tud_vendor_control_xfer_cb+0x22>
10002238:	bd70      	pop	{r4, r5, r6, pc}
1000223a:	0021      	movs	r1, r4
1000223c:	0028      	movs	r0, r5
1000223e:	4a02      	ldr	r2, [pc, #8]	@ (10002248 <tud_vendor_control_xfer_cb+0x30>)
10002240:	339f      	adds	r3, #159	@ 0x9f
10002242:	f001 fa63 	bl	1000370c <tud_control_xfer>
10002246:	e7f7      	b.n	10002238 <tud_vendor_control_xfer_cb+0x20>
10002248:	10005c10 	.word	0x10005c10

1000224c <usbd_app_driver_get_cb>:
1000224c:	2301      	movs	r3, #1
1000224e:	7003      	strb	r3, [r0, #0]
10002250:	4800      	ldr	r0, [pc, #0]	@ (10002254 <usbd_app_driver_get_cb+0x8>)
10002252:	4770      	bx	lr
10002254:	10005bf0 	.word	0x10005bf0

10002258 <tud_cdc_line_coding_cb>:
10002258:	784b      	ldrb	r3, [r1, #1]
1000225a:	780a      	ldrb	r2, [r1, #0]
1000225c:	021b      	lsls	r3, r3, #8
1000225e:	4313      	orrs	r3, r2
10002260:	788a      	ldrb	r2, [r1, #2]
10002262:	b510      	push	{r4, lr}
10002264:	0412      	lsls	r2, r2, #16
10002266:	431a      	orrs	r2, r3
10002268:	78cb      	ldrb	r3, [r1, #3]
1000226a:	061b      	lsls	r3, r3, #24
1000226c:	4313      	orrs	r3, r2
1000226e:	2296      	movs	r2, #150	@ 0x96
10002270:	00d2      	lsls	r2, r2, #3
10002272:	4293      	cmp	r3, r2
10002274:	d000      	beq.n	10002278 <tud_cdc_line_coding_cb+0x20>
10002276:	bd10      	pop	{r4, pc}
10002278:	2200      	movs	r2, #0
1000227a:	2001      	movs	r0, #1
1000227c:	0011      	movs	r1, r2
1000227e:	4240      	negs	r0, r0
10002280:	f7ff f9c8 	bl	10001614 <rom_reset_usb_boot_extra>

10002284 <stdio_usb_set_chars_available_callback>:
10002284:	4b02      	ldr	r3, [pc, #8]	@ (10002290 <stdio_usb_set_chars_available_callback+0xc>)
10002286:	6018      	str	r0, [r3, #0]
10002288:	4b02      	ldr	r3, [pc, #8]	@ (10002294 <stdio_usb_set_chars_available_callback+0x10>)
1000228a:	6019      	str	r1, [r3, #0]
1000228c:	4770      	bx	lr
1000228e:	46c0      	nop			@ (mov r8, r8)
10002290:	20001c1c 	.word	0x20001c1c
10002294:	20001c20 	.word	0x20001c20

10002298 <usb_irq>:
10002298:	b510      	push	{r4, lr}
1000229a:	4b02      	ldr	r3, [pc, #8]	@ (100022a4 <usb_irq+0xc>)
1000229c:	7818      	ldrb	r0, [r3, #0]
1000229e:	f7fe f9bb 	bl	10000618 <irq_set_pending>
100022a2:	bd10      	pop	{r4, pc}
100022a4:	200223df 	.word	0x200223df

100022a8 <timer_task>:
100022a8:	4b15      	ldr	r3, [pc, #84]	@ (10002300 <timer_task+0x58>)
100022aa:	b570      	push	{r4, r5, r6, lr}
100022ac:	681a      	ldr	r2, [r3, #0]
100022ae:	2a00      	cmp	r2, #0
100022b0:	d022      	beq.n	100022f8 <timer_task+0x50>
100022b2:	f3ef 8110 	mrs	r1, PRIMASK
100022b6:	b672      	cpsid	i
100022b8:	6810      	ldr	r0, [r2, #0]
100022ba:	2800      	cmp	r0, #0
100022bc:	d0fc      	beq.n	100022b8 <timer_task+0x10>
100022be:	f3bf 8f5f 	dmb	sy
100022c2:	2000      	movs	r0, #0
100022c4:	4a0f      	ldr	r2, [pc, #60]	@ (10002304 <timer_task+0x5c>)
100022c6:	6059      	str	r1, [r3, #4]
100022c8:	7010      	strb	r0, [r2, #0]
100022ca:	681b      	ldr	r3, [r3, #0]
100022cc:	f3bf 8f5f 	dmb	sy
100022d0:	6018      	str	r0, [r3, #0]
100022d2:	f381 8810 	msr	PRIMASK, r1
100022d6:	2400      	movs	r4, #0
100022d8:	2500      	movs	r5, #0
100022da:	4e0b      	ldr	r6, [pc, #44]	@ (10002308 <timer_task+0x60>)
100022dc:	7830      	ldrb	r0, [r6, #0]
100022de:	f7fe f98f 	bl	10000600 <irq_is_enabled>
100022e2:	2800      	cmp	r0, #0
100022e4:	d104      	bne.n	100022f0 <timer_task+0x48>
100022e6:	2400      	movs	r4, #0
100022e8:	2500      	movs	r5, #0
100022ea:	0029      	movs	r1, r5
100022ec:	0020      	movs	r0, r4
100022ee:	bd70      	pop	{r4, r5, r6, pc}
100022f0:	7830      	ldrb	r0, [r6, #0]
100022f2:	f7fe f991 	bl	10000618 <irq_set_pending>
100022f6:	e7f8      	b.n	100022ea <timer_task+0x42>
100022f8:	24fa      	movs	r4, #250	@ 0xfa
100022fa:	2500      	movs	r5, #0
100022fc:	00a4      	lsls	r4, r4, #2
100022fe:	e7ec      	b.n	100022da <timer_task+0x32>
10002300:	20002094 	.word	0x20002094
10002304:	200223e0 	.word	0x200223e0
10002308:	200223df 	.word	0x200223df

1000230c <stdio_usb_in_chars>:
1000230c:	b570      	push	{r4, r5, r6, lr}
1000230e:	0004      	movs	r4, r0
10002310:	2000      	movs	r0, #0
10002312:	000e      	movs	r6, r1
10002314:	f001 fb1a 	bl	1000394c <tud_cdc_n_connected>
10002318:	2800      	cmp	r0, #0
1000231a:	d036      	beq.n	1000238a <stdio_usb_in_chars+0x7e>
1000231c:	2000      	movs	r0, #0
1000231e:	f001 fb2b 	bl	10003978 <tud_cdc_n_available>
10002322:	2800      	cmp	r0, #0
10002324:	d031      	beq.n	1000238a <stdio_usb_in_chars+0x7e>
10002326:	f7fe ff8d 	bl	10001244 <time_us_64>
1000232a:	2300      	movs	r3, #0
1000232c:	4a18      	ldr	r2, [pc, #96]	@ (10002390 <stdio_usb_in_chars+0x84>)
1000232e:	1812      	adds	r2, r2, r0
10002330:	414b      	adcs	r3, r1
10002332:	2180      	movs	r1, #128	@ 0x80
10002334:	0609      	lsls	r1, r1, #24
10002336:	428b      	cmp	r3, r1
10002338:	d216      	bcs.n	10002368 <stdio_usb_in_chars+0x5c>
1000233a:	4d16      	ldr	r5, [pc, #88]	@ (10002394 <stdio_usb_in_chars+0x88>)
1000233c:	0028      	movs	r0, r5
1000233e:	f003 fb27 	bl	10005990 <__mutex_try_enter_block_until_veneer>
10002342:	2800      	cmp	r0, #0
10002344:	d021      	beq.n	1000238a <stdio_usb_in_chars+0x7e>
10002346:	2000      	movs	r0, #0
10002348:	f001 fb00 	bl	1000394c <tud_cdc_n_connected>
1000234c:	2800      	cmp	r0, #0
1000234e:	d10f      	bne.n	10002370 <stdio_usb_in_chars+0x64>
10002350:	2001      	movs	r0, #1
10002352:	2100      	movs	r1, #0
10002354:	4240      	negs	r0, r0
10002356:	f000 fd09 	bl	10002d6c <tud_task_ext>
1000235a:	2403      	movs	r4, #3
1000235c:	4264      	negs	r4, r4
1000235e:	0028      	movs	r0, r5
10002360:	f003 fae6 	bl	10005930 <__mutex_exit_veneer>
10002364:	0020      	movs	r0, r4
10002366:	bd70      	pop	{r4, r5, r6, pc}
10002368:	2201      	movs	r2, #1
1000236a:	4b0b      	ldr	r3, [pc, #44]	@ (10002398 <stdio_usb_in_chars+0x8c>)
1000236c:	4252      	negs	r2, r2
1000236e:	e7e4      	b.n	1000233a <stdio_usb_in_chars+0x2e>
10002370:	2000      	movs	r0, #0
10002372:	f001 fb01 	bl	10003978 <tud_cdc_n_available>
10002376:	2800      	cmp	r0, #0
10002378:	d0ea      	beq.n	10002350 <stdio_usb_in_chars+0x44>
1000237a:	0021      	movs	r1, r4
1000237c:	0032      	movs	r2, r6
1000237e:	2000      	movs	r0, #0
10002380:	f001 fb04 	bl	1000398c <tud_cdc_n_read>
10002384:	1e04      	subs	r4, r0, #0
10002386:	d1ea      	bne.n	1000235e <stdio_usb_in_chars+0x52>
10002388:	e7e7      	b.n	1000235a <stdio_usb_in_chars+0x4e>
1000238a:	2403      	movs	r4, #3
1000238c:	4264      	negs	r4, r4
1000238e:	e7e9      	b.n	10002364 <stdio_usb_in_chars+0x58>
10002390:	000f4240 	.word	0x000f4240
10002394:	20002350 	.word	0x20002350
10002398:	7fffffff 	.word	0x7fffffff

1000239c <stdio_usb_out_flush>:
1000239c:	b510      	push	{r4, lr}
1000239e:	f7fe ff51 	bl	10001244 <time_us_64>
100023a2:	2300      	movs	r3, #0
100023a4:	4a0e      	ldr	r2, [pc, #56]	@ (100023e0 <stdio_usb_out_flush+0x44>)
100023a6:	1812      	adds	r2, r2, r0
100023a8:	414b      	adcs	r3, r1
100023aa:	2180      	movs	r1, #128	@ 0x80
100023ac:	0609      	lsls	r1, r1, #24
100023ae:	428b      	cmp	r3, r1
100023b0:	d302      	bcc.n	100023b8 <stdio_usb_out_flush+0x1c>
100023b2:	2201      	movs	r2, #1
100023b4:	4b0b      	ldr	r3, [pc, #44]	@ (100023e4 <stdio_usb_out_flush+0x48>)
100023b6:	4252      	negs	r2, r2
100023b8:	4c0b      	ldr	r4, [pc, #44]	@ (100023e8 <stdio_usb_out_flush+0x4c>)
100023ba:	0020      	movs	r0, r4
100023bc:	f003 fae8 	bl	10005990 <__mutex_try_enter_block_until_veneer>
100023c0:	2800      	cmp	r0, #0
100023c2:	d00c      	beq.n	100023de <stdio_usb_out_flush+0x42>
100023c4:	2001      	movs	r0, #1
100023c6:	2100      	movs	r1, #0
100023c8:	4240      	negs	r0, r0
100023ca:	f000 fccf 	bl	10002d6c <tud_task_ext>
100023ce:	2000      	movs	r0, #0
100023d0:	f001 fb26 	bl	10003a20 <tud_cdc_n_write_flush>
100023d4:	2800      	cmp	r0, #0
100023d6:	d1f5      	bne.n	100023c4 <stdio_usb_out_flush+0x28>
100023d8:	0020      	movs	r0, r4
100023da:	f003 faa9 	bl	10005930 <__mutex_exit_veneer>
100023de:	bd10      	pop	{r4, pc}
100023e0:	000f4240 	.word	0x000f4240
100023e4:	7fffffff 	.word	0x7fffffff
100023e8:	20002350 	.word	0x20002350

100023ec <stdio_usb_out_chars>:
100023ec:	b5f8      	push	{r3, r4, r5, r6, r7, lr}
100023ee:	46de      	mov	lr, fp
100023f0:	4657      	mov	r7, sl
100023f2:	b580      	push	{r7, lr}
100023f4:	0005      	movs	r5, r0
100023f6:	000c      	movs	r4, r1
100023f8:	f7fe ff24 	bl	10001244 <time_us_64>
100023fc:	2300      	movs	r3, #0
100023fe:	4a37      	ldr	r2, [pc, #220]	@ (100024dc <stdio_usb_out_chars+0xf0>)
10002400:	1812      	adds	r2, r2, r0
10002402:	414b      	adcs	r3, r1
10002404:	2180      	movs	r1, #128	@ 0x80
10002406:	0609      	lsls	r1, r1, #24
10002408:	428b      	cmp	r3, r1
1000240a:	d302      	bcc.n	10002412 <stdio_usb_out_chars+0x26>
1000240c:	2201      	movs	r2, #1
1000240e:	4b34      	ldr	r3, [pc, #208]	@ (100024e0 <stdio_usb_out_chars+0xf4>)
10002410:	4252      	negs	r2, r2
10002412:	4934      	ldr	r1, [pc, #208]	@ (100024e4 <stdio_usb_out_chars+0xf8>)
10002414:	0008      	movs	r0, r1
10002416:	468a      	mov	sl, r1
10002418:	f003 faba 	bl	10005990 <__mutex_try_enter_block_until_veneer>
1000241c:	2800      	cmp	r0, #0
1000241e:	d103      	bne.n	10002428 <stdio_usb_out_chars+0x3c>
10002420:	bcc0      	pop	{r6, r7}
10002422:	46bb      	mov	fp, r7
10002424:	46b2      	mov	sl, r6
10002426:	bdf8      	pop	{r3, r4, r5, r6, r7, pc}
10002428:	2000      	movs	r0, #0
1000242a:	f001 fa8f 	bl	1000394c <tud_cdc_n_connected>
1000242e:	2800      	cmp	r0, #0
10002430:	d04a      	beq.n	100024c8 <stdio_usb_out_chars+0xdc>
10002432:	2600      	movs	r6, #0
10002434:	2c00      	cmp	r4, #0
10002436:	dd43      	ble.n	100024c0 <stdio_usb_out_chars+0xd4>
10002438:	4b2b      	ldr	r3, [pc, #172]	@ (100024e8 <stdio_usb_out_chars+0xfc>)
1000243a:	469b      	mov	fp, r3
1000243c:	e014      	b.n	10002468 <stdio_usb_out_chars+0x7c>
1000243e:	19a9      	adds	r1, r5, r6
10002440:	2000      	movs	r0, #0
10002442:	f001 fb27 	bl	10003a94 <tud_cdc_n_write>
10002446:	0007      	movs	r7, r0
10002448:	2001      	movs	r0, #1
1000244a:	2100      	movs	r1, #0
1000244c:	4240      	negs	r0, r0
1000244e:	f000 fc8d 	bl	10002d6c <tud_task_ext>
10002452:	2000      	movs	r0, #0
10002454:	f001 fae4 	bl	10003a20 <tud_cdc_n_write_flush>
10002458:	f7fe fef4 	bl	10001244 <time_us_64>
1000245c:	4b22      	ldr	r3, [pc, #136]	@ (100024e8 <stdio_usb_out_chars+0xfc>)
1000245e:	19f6      	adds	r6, r6, r7
10002460:	6018      	str	r0, [r3, #0]
10002462:	6059      	str	r1, [r3, #4]
10002464:	42b4      	cmp	r4, r6
10002466:	dd2b      	ble.n	100024c0 <stdio_usb_out_chars+0xd4>
10002468:	2000      	movs	r0, #0
1000246a:	f001 fb33 	bl	10003ad4 <tud_cdc_n_write_available>
1000246e:	1ba7      	subs	r7, r4, r6
10002470:	0002      	movs	r2, r0
10002472:	42b8      	cmp	r0, r7
10002474:	dd00      	ble.n	10002478 <stdio_usb_out_chars+0x8c>
10002476:	003a      	movs	r2, r7
10002478:	2a00      	cmp	r2, #0
1000247a:	d1e0      	bne.n	1000243e <stdio_usb_out_chars+0x52>
1000247c:	2001      	movs	r0, #1
1000247e:	2100      	movs	r1, #0
10002480:	4240      	negs	r0, r0
10002482:	f000 fc73 	bl	10002d6c <tud_task_ext>
10002486:	2000      	movs	r0, #0
10002488:	f001 faca 	bl	10003a20 <tud_cdc_n_write_flush>
1000248c:	2000      	movs	r0, #0
1000248e:	f001 fa5d 	bl	1000394c <tud_cdc_n_connected>
10002492:	2800      	cmp	r0, #0
10002494:	d014      	beq.n	100024c0 <stdio_usb_out_chars+0xd4>
10002496:	2000      	movs	r0, #0
10002498:	f001 fb1c 	bl	10003ad4 <tud_cdc_n_write_available>
1000249c:	2800      	cmp	r0, #0
1000249e:	d1e1      	bne.n	10002464 <stdio_usb_out_chars+0x78>
100024a0:	f7fe fed0 	bl	10001244 <time_us_64>
100024a4:	465b      	mov	r3, fp
100024a6:	000f      	movs	r7, r1
100024a8:	681a      	ldr	r2, [r3, #0]
100024aa:	685b      	ldr	r3, [r3, #4]
100024ac:	2100      	movs	r1, #0
100024ae:	4684      	mov	ip, r0
100024b0:	480e      	ldr	r0, [pc, #56]	@ (100024ec <stdio_usb_out_chars+0x100>)
100024b2:	1812      	adds	r2, r2, r0
100024b4:	414b      	adcs	r3, r1
100024b6:	429f      	cmp	r7, r3
100024b8:	d802      	bhi.n	100024c0 <stdio_usb_out_chars+0xd4>
100024ba:	d1d3      	bne.n	10002464 <stdio_usb_out_chars+0x78>
100024bc:	4594      	cmp	ip, r2
100024be:	d9d1      	bls.n	10002464 <stdio_usb_out_chars+0x78>
100024c0:	4650      	mov	r0, sl
100024c2:	f003 fa35 	bl	10005930 <__mutex_exit_veneer>
100024c6:	e7ab      	b.n	10002420 <stdio_usb_out_chars+0x34>
100024c8:	2000      	movs	r0, #0
100024ca:	2100      	movs	r1, #0
100024cc:	4b06      	ldr	r3, [pc, #24]	@ (100024e8 <stdio_usb_out_chars+0xfc>)
100024ce:	6018      	str	r0, [r3, #0]
100024d0:	6059      	str	r1, [r3, #4]
100024d2:	4650      	mov	r0, sl
100024d4:	f003 fa2c 	bl	10005930 <__mutex_exit_veneer>
100024d8:	e7a2      	b.n	10002420 <stdio_usb_out_chars+0x34>
100024da:	46c0      	nop			@ (mov r8, r8)
100024dc:	000f4240 	.word	0x000f4240
100024e0:	7fffffff 	.word	0x7fffffff
100024e4:	20002350 	.word	0x20002350
100024e8:	200011d0 	.word	0x200011d0
100024ec:	0007a120 	.word	0x0007a120

100024f0 <low_priority_worker_irq>:
100024f0:	b530      	push	{r4, r5, lr}
100024f2:	4c2b      	ldr	r4, [pc, #172]	@ (100025a0 <low_priority_worker_irq+0xb0>)
100024f4:	b085      	sub	sp, #20
100024f6:	2100      	movs	r1, #0
100024f8:	0020      	movs	r0, r4
100024fa:	f003 fa39 	bl	10005970 <__mutex_try_enter_veneer>
100024fe:	2800      	cmp	r0, #0
10002500:	d11c      	bne.n	1000253c <low_priority_worker_irq+0x4c>
10002502:	4b28      	ldr	r3, [pc, #160]	@ (100025a4 <low_priority_worker_irq+0xb4>)
10002504:	681a      	ldr	r2, [r3, #0]
10002506:	2a00      	cmp	r2, #0
10002508:	d016      	beq.n	10002538 <low_priority_worker_irq+0x48>
1000250a:	f3ef 8110 	mrs	r1, PRIMASK
1000250e:	b672      	cpsid	i
10002510:	6810      	ldr	r0, [r2, #0]
10002512:	2800      	cmp	r0, #0
10002514:	d0fc      	beq.n	10002510 <low_priority_worker_irq+0x20>
10002516:	f3bf 8f5f 	dmb	sy
1000251a:	2401      	movs	r4, #1
1000251c:	4822      	ldr	r0, [pc, #136]	@ (100025a8 <low_priority_worker_irq+0xb8>)
1000251e:	6059      	str	r1, [r3, #4]
10002520:	7802      	ldrb	r2, [r0, #0]
10002522:	681b      	ldr	r3, [r3, #0]
10002524:	b2d2      	uxtb	r2, r2
10002526:	7004      	strb	r4, [r0, #0]
10002528:	f3bf 8f5f 	dmb	sy
1000252c:	2000      	movs	r0, #0
1000252e:	6018      	str	r0, [r3, #0]
10002530:	f381 8810 	msr	PRIMASK, r1
10002534:	2a00      	cmp	r2, #0
10002536:	d017      	beq.n	10002568 <low_priority_worker_irq+0x78>
10002538:	b005      	add	sp, #20
1000253a:	bd30      	pop	{r4, r5, pc}
1000253c:	2001      	movs	r0, #1
1000253e:	2100      	movs	r1, #0
10002540:	4240      	negs	r0, r0
10002542:	f000 fc13 	bl	10002d6c <tud_task_ext>
10002546:	2000      	movs	r0, #0
10002548:	f001 fa16 	bl	10003978 <tud_cdc_n_available>
1000254c:	0005      	movs	r5, r0
1000254e:	0020      	movs	r0, r4
10002550:	f003 f9ee 	bl	10005930 <__mutex_exit_veneer>
10002554:	2d00      	cmp	r5, #0
10002556:	d0ef      	beq.n	10002538 <low_priority_worker_irq+0x48>
10002558:	4b14      	ldr	r3, [pc, #80]	@ (100025ac <low_priority_worker_irq+0xbc>)
1000255a:	681b      	ldr	r3, [r3, #0]
1000255c:	2b00      	cmp	r3, #0
1000255e:	d0eb      	beq.n	10002538 <low_priority_worker_irq+0x48>
10002560:	4a13      	ldr	r2, [pc, #76]	@ (100025b0 <low_priority_worker_irq+0xc0>)
10002562:	6810      	ldr	r0, [r2, #0]
10002564:	4798      	blx	r3
10002566:	e7e7      	b.n	10002538 <low_priority_worker_irq+0x48>
10002568:	f7fe fc5a 	bl	10000e20 <alarm_pool_get_default>
1000256c:	0004      	movs	r4, r0
1000256e:	f7fe fe69 	bl	10001244 <time_us_64>
10002572:	22fa      	movs	r2, #250	@ 0xfa
10002574:	2300      	movs	r3, #0
10002576:	0092      	lsls	r2, r2, #2
10002578:	1812      	adds	r2, r2, r0
1000257a:	414b      	adcs	r3, r1
1000257c:	2180      	movs	r1, #128	@ 0x80
1000257e:	0609      	lsls	r1, r1, #24
10002580:	428b      	cmp	r3, r1
10002582:	d302      	bcc.n	1000258a <low_priority_worker_irq+0x9a>
10002584:	2201      	movs	r2, #1
10002586:	4b0b      	ldr	r3, [pc, #44]	@ (100025b4 <low_priority_worker_irq+0xc4>)
10002588:	4252      	negs	r2, r2
1000258a:	2101      	movs	r1, #1
1000258c:	9102      	str	r1, [sp, #8]
1000258e:	2100      	movs	r1, #0
10002590:	9101      	str	r1, [sp, #4]
10002592:	4909      	ldr	r1, [pc, #36]	@ (100025b8 <low_priority_worker_irq+0xc8>)
10002594:	0020      	movs	r0, r4
10002596:	9100      	str	r1, [sp, #0]
10002598:	f7fe fc46 	bl	10000e28 <alarm_pool_add_alarm_at>
1000259c:	e7cc      	b.n	10002538 <low_priority_worker_irq+0x48>
1000259e:	46c0      	nop			@ (mov r8, r8)
100025a0:	20002350 	.word	0x20002350
100025a4:	20002094 	.word	0x20002094
100025a8:	200223e0 	.word	0x200223e0
100025ac:	20001c1c 	.word	0x20001c1c
100025b0:	20001c20 	.word	0x20001c20
100025b4:	7fffffff 	.word	0x7fffffff
100025b8:	100022a9 	.word	0x100022a9

100025bc <stdio_usb_init>:
100025bc:	23d0      	movs	r3, #208	@ 0xd0
100025be:	b510      	push	{r4, lr}
100025c0:	061b      	lsls	r3, r3, #24
100025c2:	b084      	sub	sp, #16
100025c4:	681c      	ldr	r4, [r3, #0]
100025c6:	f7fe fc2b 	bl	10000e20 <alarm_pool_get_default>
100025ca:	f7fe fd29 	bl	10001020 <alarm_pool_core_num>
100025ce:	42a0      	cmp	r0, r4
100025d0:	d002      	beq.n	100025d8 <stdio_usb_init+0x1c>
100025d2:	2000      	movs	r0, #0
100025d4:	b004      	add	sp, #16
100025d6:	bd10      	pop	{r4, pc}
100025d8:	4b2a      	ldr	r3, [pc, #168]	@ (10002684 <stdio_usb_init+0xc8>)
100025da:	2100      	movs	r1, #0
100025dc:	2000      	movs	r0, #0
100025de:	781b      	ldrb	r3, [r3, #0]
100025e0:	f001 fd78 	bl	100040d4 <tusb_rhport_init>
100025e4:	4828      	ldr	r0, [pc, #160]	@ (10002688 <stdio_usb_init+0xcc>)
100025e6:	6803      	ldr	r3, [r0, #0]
100025e8:	2b00      	cmp	r3, #0
100025ea:	d047      	beq.n	1000267c <stdio_usb_init+0xc0>
100025ec:	2001      	movs	r0, #1
100025ee:	f7fe f9ab 	bl	10000948 <user_irq_claim_unused>
100025f2:	23ff      	movs	r3, #255	@ 0xff
100025f4:	4c25      	ldr	r4, [pc, #148]	@ (1000268c <stdio_usb_init+0xd0>)
100025f6:	4926      	ldr	r1, [pc, #152]	@ (10002690 <stdio_usb_init+0xd4>)
100025f8:	7020      	strb	r0, [r4, #0]
100025fa:	4018      	ands	r0, r3
100025fc:	f7fe f826 	bl	1000064c <irq_set_exclusive_handler>
10002600:	7820      	ldrb	r0, [r4, #0]
10002602:	2101      	movs	r1, #1
10002604:	f7fd ffea 	bl	100005dc <irq_set_enabled>
10002608:	2005      	movs	r0, #5
1000260a:	f7fe f80d 	bl	10000628 <irq_has_shared_handler>
1000260e:	2800      	cmp	r0, #0
10002610:	d126      	bne.n	10002660 <stdio_usb_init+0xa4>
10002612:	2208      	movs	r2, #8
10002614:	2100      	movs	r1, #0
10002616:	481f      	ldr	r0, [pc, #124]	@ (10002694 <stdio_usb_init+0xd8>)
10002618:	f7ff fc0e 	bl	10001e38 <__wrap_memset>
1000261c:	f7fe fc00 	bl	10000e20 <alarm_pool_get_default>
10002620:	0004      	movs	r4, r0
10002622:	f7fe fe0f 	bl	10001244 <time_us_64>
10002626:	22fa      	movs	r2, #250	@ 0xfa
10002628:	2300      	movs	r3, #0
1000262a:	0092      	lsls	r2, r2, #2
1000262c:	1812      	adds	r2, r2, r0
1000262e:	414b      	adcs	r3, r1
10002630:	2180      	movs	r1, #128	@ 0x80
10002632:	0609      	lsls	r1, r1, #24
10002634:	428b      	cmp	r3, r1
10002636:	d302      	bcc.n	1000263e <stdio_usb_init+0x82>
10002638:	2201      	movs	r2, #1
1000263a:	4b17      	ldr	r3, [pc, #92]	@ (10002698 <stdio_usb_init+0xdc>)
1000263c:	4252      	negs	r2, r2
1000263e:	2101      	movs	r1, #1
10002640:	9102      	str	r1, [sp, #8]
10002642:	2100      	movs	r1, #0
10002644:	9101      	str	r1, [sp, #4]
10002646:	4915      	ldr	r1, [pc, #84]	@ (1000269c <stdio_usb_init+0xe0>)
10002648:	0020      	movs	r0, r4
1000264a:	9100      	str	r1, [sp, #0]
1000264c:	f7fe fbec 	bl	10000e28 <alarm_pool_add_alarm_at>
10002650:	2800      	cmp	r0, #0
10002652:	dbbe      	blt.n	100025d2 <stdio_usb_init+0x16>
10002654:	4812      	ldr	r0, [pc, #72]	@ (100026a0 <stdio_usb_init+0xe4>)
10002656:	2101      	movs	r1, #1
10002658:	f7ff fd08 	bl	1000206c <stdio_set_driver_enabled>
1000265c:	2001      	movs	r0, #1
1000265e:	e7b9      	b.n	100025d4 <stdio_usb_init+0x18>
10002660:	2001      	movs	r0, #1
10002662:	f7fd ff89 	bl	10000578 <spin_lock_claim_unused>
10002666:	4b0b      	ldr	r3, [pc, #44]	@ (10002694 <stdio_usb_init+0xd8>)
10002668:	0001      	movs	r1, r0
1000266a:	0018      	movs	r0, r3
1000266c:	f7fe f9d0 	bl	10000a10 <critical_section_init_with_lock_num>
10002670:	2200      	movs	r2, #0
10002672:	2005      	movs	r0, #5
10002674:	490b      	ldr	r1, [pc, #44]	@ (100026a4 <stdio_usb_init+0xe8>)
10002676:	f7fe f813 	bl	100006a0 <irq_add_shared_handler>
1000267a:	e7eb      	b.n	10002654 <stdio_usb_init+0x98>
1000267c:	f7fe f9ac 	bl	100009d8 <mutex_init>
10002680:	e7b4      	b.n	100025ec <stdio_usb_init+0x30>
10002682:	46c0      	nop			@ (mov r8, r8)
10002684:	10005e6c 	.word	0x10005e6c
10002688:	20002350 	.word	0x20002350
1000268c:	200223df 	.word	0x200223df
10002690:	100024f1 	.word	0x100024f1
10002694:	20002094 	.word	0x20002094
10002698:	7fffffff 	.word	0x7fffffff
1000269c:	100022a9 	.word	0x100022a9
100026a0:	20001000 	.word	0x20001000
100026a4:	10002299 	.word	0x10002299

100026a8 <tud_descriptor_device_cb>:
100026a8:	4800      	ldr	r0, [pc, #0]	@ (100026ac <tud_descriptor_device_cb+0x4>)
100026aa:	4770      	bx	lr
100026ac:	10005d54 	.word	0x10005d54

100026b0 <tud_descriptor_configuration_cb>:
100026b0:	4800      	ldr	r0, [pc, #0]	@ (100026b4 <tud_descriptor_configuration_cb+0x4>)
100026b2:	4770      	bx	lr
100026b4:	10005d00 	.word	0x10005d00

100026b8 <tud_descriptor_string_cb>:
100026b8:	b510      	push	{r4, lr}
100026ba:	0004      	movs	r4, r0
100026bc:	4817      	ldr	r0, [pc, #92]	@ (1000271c <tud_descriptor_string_cb+0x64>)
100026be:	7803      	ldrb	r3, [r0, #0]
100026c0:	2b00      	cmp	r3, #0
100026c2:	d020      	beq.n	10002706 <tud_descriptor_string_cb+0x4e>
100026c4:	2c00      	cmp	r4, #0
100026c6:	d106      	bne.n	100026d6 <tud_descriptor_string_cb+0x1e>
100026c8:	4b15      	ldr	r3, [pc, #84]	@ (10002720 <tud_descriptor_string_cb+0x68>)
100026ca:	4816      	ldr	r0, [pc, #88]	@ (10002724 <tud_descriptor_string_cb+0x6c>)
100026cc:	8043      	strh	r3, [r0, #2]
100026ce:	3b06      	subs	r3, #6
100026d0:	3bff      	subs	r3, #255	@ 0xff
100026d2:	8003      	strh	r3, [r0, #0]
100026d4:	bd10      	pop	{r4, pc}
100026d6:	2c05      	cmp	r4, #5
100026d8:	d819      	bhi.n	1000270e <tud_descriptor_string_cb+0x56>
100026da:	4b13      	ldr	r3, [pc, #76]	@ (10002728 <tud_descriptor_string_cb+0x70>)
100026dc:	00a4      	lsls	r4, r4, #2
100026de:	58e0      	ldr	r0, [r4, r3]
100026e0:	4912      	ldr	r1, [pc, #72]	@ (1000272c <tud_descriptor_string_cb+0x74>)
100026e2:	2301      	movs	r3, #1
100026e4:	3801      	subs	r0, #1
100026e6:	e004      	b.n	100026f2 <tud_descriptor_string_cb+0x3a>
100026e8:	3301      	adds	r3, #1
100026ea:	800a      	strh	r2, [r1, #0]
100026ec:	3102      	adds	r1, #2
100026ee:	2b14      	cmp	r3, #20
100026f0:	d00f      	beq.n	10002712 <tud_descriptor_string_cb+0x5a>
100026f2:	5cc2      	ldrb	r2, [r0, r3]
100026f4:	2a00      	cmp	r2, #0
100026f6:	d1f7      	bne.n	100026e8 <tud_descriptor_string_cb+0x30>
100026f8:	22c0      	movs	r2, #192	@ 0xc0
100026fa:	b2db      	uxtb	r3, r3
100026fc:	005b      	lsls	r3, r3, #1
100026fe:	0092      	lsls	r2, r2, #2
10002700:	4808      	ldr	r0, [pc, #32]	@ (10002724 <tud_descriptor_string_cb+0x6c>)
10002702:	4313      	orrs	r3, r2
10002704:	e7e5      	b.n	100026d2 <tud_descriptor_string_cb+0x1a>
10002706:	2111      	movs	r1, #17
10002708:	f000 f81a 	bl	10002740 <pico_get_unique_board_id_string>
1000270c:	e7da      	b.n	100026c4 <tud_descriptor_string_cb+0xc>
1000270e:	2000      	movs	r0, #0
10002710:	e7e0      	b.n	100026d4 <tud_descriptor_string_cb+0x1c>
10002712:	23ca      	movs	r3, #202	@ 0xca
10002714:	4803      	ldr	r0, [pc, #12]	@ (10002724 <tud_descriptor_string_cb+0x6c>)
10002716:	009b      	lsls	r3, r3, #2
10002718:	e7db      	b.n	100026d2 <tud_descriptor_string_cb+0x1a>
1000271a:	46c0      	nop			@ (mov r8, r8)
1000271c:	20022358 	.word	0x20022358
10002720:	00000409 	.word	0x00000409
10002724:	20001c54 	.word	0x20001c54
10002728:	10005ce8 	.word	0x10005ce8
1000272c:	20001c56 	.word	0x20001c56

10002730 <_retrieve_unique_id_on_boot>:
10002730:	b510      	push	{r4, lr}
10002732:	4802      	ldr	r0, [pc, #8]	@ (1000273c <_retrieve_unique_id_on_boot+0xc>)
10002734:	f000 f8d8 	bl	100028e8 <flash_get_unique_id>
10002738:	bd10      	pop	{r4, pc}
1000273a:	46c0      	nop			@ (mov r8, r8)
1000273c:	20002340 	.word	0x20002340

10002740 <pico_get_unique_board_id_string>:
10002740:	b530      	push	{r4, r5, lr}
10002742:	1e4b      	subs	r3, r1, #1
10002744:	2901      	cmp	r1, #1
10002746:	d100      	bne.n	1000274a <pico_get_unique_board_id_string+0xa>
10002748:	e0a7      	b.n	1000289a <pico_get_unique_board_id_string+0x15a>
1000274a:	4a66      	ldr	r2, [pc, #408]	@ (100028e4 <pico_get_unique_board_id_string+0x1a4>)
1000274c:	7811      	ldrb	r1, [r2, #0]
1000274e:	090d      	lsrs	r5, r1, #4
10002750:	002c      	movs	r4, r5
10002752:	3430      	adds	r4, #48	@ 0x30
10002754:	299f      	cmp	r1, #159	@ 0x9f
10002756:	d900      	bls.n	1000275a <pico_get_unique_board_id_string+0x1a>
10002758:	e0a2      	b.n	100028a0 <pico_get_unique_board_id_string+0x160>
1000275a:	7004      	strb	r4, [r0, #0]
1000275c:	2b01      	cmp	r3, #1
1000275e:	d100      	bne.n	10002762 <pico_get_unique_board_id_string+0x22>
10002760:	e0be      	b.n	100028e0 <pico_get_unique_board_id_string+0x1a0>
10002762:	210f      	movs	r1, #15
10002764:	7814      	ldrb	r4, [r2, #0]
10002766:	4021      	ands	r1, r4
10002768:	000c      	movs	r4, r1
1000276a:	3430      	adds	r4, #48	@ 0x30
1000276c:	2909      	cmp	r1, #9
1000276e:	d900      	bls.n	10002772 <pico_get_unique_board_id_string+0x32>
10002770:	e098      	b.n	100028a4 <pico_get_unique_board_id_string+0x164>
10002772:	7044      	strb	r4, [r0, #1]
10002774:	2b02      	cmp	r3, #2
10002776:	d100      	bne.n	1000277a <pico_get_unique_board_id_string+0x3a>
10002778:	e0b2      	b.n	100028e0 <pico_get_unique_board_id_string+0x1a0>
1000277a:	7854      	ldrb	r4, [r2, #1]
1000277c:	0925      	lsrs	r5, r4, #4
1000277e:	0029      	movs	r1, r5
10002780:	3130      	adds	r1, #48	@ 0x30
10002782:	2c9f      	cmp	r4, #159	@ 0x9f
10002784:	d900      	bls.n	10002788 <pico_get_unique_board_id_string+0x48>
10002786:	e090      	b.n	100028aa <pico_get_unique_board_id_string+0x16a>
10002788:	7081      	strb	r1, [r0, #2]
1000278a:	2b03      	cmp	r3, #3
1000278c:	d100      	bne.n	10002790 <pico_get_unique_board_id_string+0x50>
1000278e:	e0a7      	b.n	100028e0 <pico_get_unique_board_id_string+0x1a0>
10002790:	210f      	movs	r1, #15
10002792:	4021      	ands	r1, r4
10002794:	000c      	movs	r4, r1
10002796:	3430      	adds	r4, #48	@ 0x30
10002798:	2909      	cmp	r1, #9
1000279a:	d900      	bls.n	1000279e <pico_get_unique_board_id_string+0x5e>
1000279c:	e087      	b.n	100028ae <pico_get_unique_board_id_string+0x16e>
1000279e:	70c4      	strb	r4, [r0, #3]
100027a0:	2b04      	cmp	r3, #4
100027a2:	d100      	bne.n	100027a6 <pico_get_unique_board_id_string+0x66>
100027a4:	e09c      	b.n	100028e0 <pico_get_unique_board_id_string+0x1a0>
100027a6:	7894      	ldrb	r4, [r2, #2]
100027a8:	0925      	lsrs	r5, r4, #4
100027aa:	0029      	movs	r1, r5
100027ac:	3130      	adds	r1, #48	@ 0x30
100027ae:	2c9f      	cmp	r4, #159	@ 0x9f
100027b0:	d900      	bls.n	100027b4 <pico_get_unique_board_id_string+0x74>
100027b2:	e07f      	b.n	100028b4 <pico_get_unique_board_id_string+0x174>
100027b4:	7101      	strb	r1, [r0, #4]
100027b6:	2b05      	cmp	r3, #5
100027b8:	d100      	bne.n	100027bc <pico_get_unique_board_id_string+0x7c>
100027ba:	e091      	b.n	100028e0 <pico_get_unique_board_id_string+0x1a0>
100027bc:	210f      	movs	r1, #15
100027be:	4021      	ands	r1, r4
100027c0:	000c      	movs	r4, r1
100027c2:	3430      	adds	r4, #48	@ 0x30
100027c4:	2909      	cmp	r1, #9
100027c6:	d900      	bls.n	100027ca <pico_get_unique_board_id_string+0x8a>
100027c8:	e076      	b.n	100028b8 <pico_get_unique_board_id_string+0x178>
100027ca:	7144      	strb	r4, [r0, #5]
100027cc:	2b06      	cmp	r3, #6
100027ce:	d100      	bne.n	100027d2 <pico_get_unique_board_id_string+0x92>
100027d0:	e086      	b.n	100028e0 <pico_get_unique_board_id_string+0x1a0>
100027d2:	78d4      	ldrb	r4, [r2, #3]
100027d4:	0925      	lsrs	r5, r4, #4
100027d6:	0029      	movs	r1, r5
100027d8:	3130      	adds	r1, #48	@ 0x30
100027da:	2c9f      	cmp	r4, #159	@ 0x9f
100027dc:	d900      	bls.n	100027e0 <pico_get_unique_board_id_string+0xa0>
100027de:	e06e      	b.n	100028be <pico_get_unique_board_id_string+0x17e>
100027e0:	7181      	strb	r1, [r0, #6]
100027e2:	2b07      	cmp	r3, #7
100027e4:	d100      	bne.n	100027e8 <pico_get_unique_board_id_string+0xa8>
100027e6:	e07b      	b.n	100028e0 <pico_get_unique_board_id_string+0x1a0>
100027e8:	210f      	movs	r1, #15
100027ea:	4021      	ands	r1, r4
100027ec:	000c      	movs	r4, r1
100027ee:	3430      	adds	r4, #48	@ 0x30
100027f0:	2909      	cmp	r1, #9
100027f2:	d866      	bhi.n	100028c2 <pico_get_unique_board_id_string+0x182>
100027f4:	71c4      	strb	r4, [r0, #7]
100027f6:	2b08      	cmp	r3, #8
100027f8:	d100      	bne.n	100027fc <pico_get_unique_board_id_string+0xbc>
100027fa:	e071      	b.n	100028e0 <pico_get_unique_board_id_string+0x1a0>
100027fc:	7914      	ldrb	r4, [r2, #4]
100027fe:	0925      	lsrs	r5, r4, #4
10002800:	0029      	movs	r1, r5
10002802:	3130      	adds	r1, #48	@ 0x30
10002804:	2c9f      	cmp	r4, #159	@ 0x9f
10002806:	d85f      	bhi.n	100028c8 <pico_get_unique_board_id_string+0x188>
10002808:	7201      	strb	r1, [r0, #8]
1000280a:	2b09      	cmp	r3, #9
1000280c:	d068      	beq.n	100028e0 <pico_get_unique_board_id_string+0x1a0>
1000280e:	210f      	movs	r1, #15
10002810:	4021      	ands	r1, r4
10002812:	000c      	movs	r4, r1
10002814:	3430      	adds	r4, #48	@ 0x30
10002816:	2909      	cmp	r1, #9
10002818:	d858      	bhi.n	100028cc <pico_get_unique_board_id_string+0x18c>
1000281a:	7244      	strb	r4, [r0, #9]
1000281c:	2b0a      	cmp	r3, #10
1000281e:	d05f      	beq.n	100028e0 <pico_get_unique_board_id_string+0x1a0>
10002820:	7954      	ldrb	r4, [r2, #5]
10002822:	0925      	lsrs	r5, r4, #4
10002824:	0029      	movs	r1, r5
10002826:	3130      	adds	r1, #48	@ 0x30
10002828:	2c9f      	cmp	r4, #159	@ 0x9f
1000282a:	d852      	bhi.n	100028d2 <pico_get_unique_board_id_string+0x192>
1000282c:	7281      	strb	r1, [r0, #10]
1000282e:	2b0b      	cmp	r3, #11
10002830:	d056      	beq.n	100028e0 <pico_get_unique_board_id_string+0x1a0>
10002832:	210f      	movs	r1, #15
10002834:	4021      	ands	r1, r4
10002836:	000c      	movs	r4, r1
10002838:	3430      	adds	r4, #48	@ 0x30
1000283a:	2909      	cmp	r1, #9
1000283c:	d84b      	bhi.n	100028d6 <pico_get_unique_board_id_string+0x196>
1000283e:	72c4      	strb	r4, [r0, #11]
10002840:	2b0c      	cmp	r3, #12
10002842:	d04d      	beq.n	100028e0 <pico_get_unique_board_id_string+0x1a0>
10002844:	7994      	ldrb	r4, [r2, #6]
10002846:	0925      	lsrs	r5, r4, #4
10002848:	0029      	movs	r1, r5
1000284a:	3130      	adds	r1, #48	@ 0x30
1000284c:	2c9f      	cmp	r4, #159	@ 0x9f
1000284e:	d900      	bls.n	10002852 <pico_get_unique_board_id_string+0x112>
10002850:	3107      	adds	r1, #7
10002852:	7301      	strb	r1, [r0, #12]
10002854:	2b0d      	cmp	r3, #13
10002856:	d043      	beq.n	100028e0 <pico_get_unique_board_id_string+0x1a0>
10002858:	210f      	movs	r1, #15
1000285a:	4021      	ands	r1, r4
1000285c:	000c      	movs	r4, r1
1000285e:	3430      	adds	r4, #48	@ 0x30
10002860:	2909      	cmp	r1, #9
10002862:	d901      	bls.n	10002868 <pico_get_unique_board_id_string+0x128>
10002864:	3137      	adds	r1, #55	@ 0x37
10002866:	000c      	movs	r4, r1
10002868:	7344      	strb	r4, [r0, #13]
1000286a:	2b0e      	cmp	r3, #14
1000286c:	d038      	beq.n	100028e0 <pico_get_unique_board_id_string+0x1a0>
1000286e:	79d1      	ldrb	r1, [r2, #7]
10002870:	090c      	lsrs	r4, r1, #4
10002872:	0022      	movs	r2, r4
10002874:	3230      	adds	r2, #48	@ 0x30
10002876:	299f      	cmp	r1, #159	@ 0x9f
10002878:	d900      	bls.n	1000287c <pico_get_unique_board_id_string+0x13c>
1000287a:	3207      	adds	r2, #7
1000287c:	7382      	strb	r2, [r0, #14]
1000287e:	2b0f      	cmp	r3, #15
10002880:	d02e      	beq.n	100028e0 <pico_get_unique_board_id_string+0x1a0>
10002882:	220f      	movs	r2, #15
10002884:	400a      	ands	r2, r1
10002886:	0011      	movs	r1, r2
10002888:	3137      	adds	r1, #55	@ 0x37
1000288a:	2a09      	cmp	r2, #9
1000288c:	d801      	bhi.n	10002892 <pico_get_unique_board_id_string+0x152>
1000288e:	3230      	adds	r2, #48	@ 0x30
10002890:	0011      	movs	r1, r2
10002892:	73c1      	strb	r1, [r0, #15]
10002894:	2b10      	cmp	r3, #16
10002896:	d023      	beq.n	100028e0 <pico_get_unique_board_id_string+0x1a0>
10002898:	3010      	adds	r0, #16
1000289a:	2300      	movs	r3, #0
1000289c:	7003      	strb	r3, [r0, #0]
1000289e:	bd30      	pop	{r4, r5, pc}
100028a0:	3407      	adds	r4, #7
100028a2:	e75a      	b.n	1000275a <pico_get_unique_board_id_string+0x1a>
100028a4:	3137      	adds	r1, #55	@ 0x37
100028a6:	000c      	movs	r4, r1
100028a8:	e763      	b.n	10002772 <pico_get_unique_board_id_string+0x32>
100028aa:	3107      	adds	r1, #7
100028ac:	e76c      	b.n	10002788 <pico_get_unique_board_id_string+0x48>
100028ae:	3137      	adds	r1, #55	@ 0x37
100028b0:	000c      	movs	r4, r1
100028b2:	e774      	b.n	1000279e <pico_get_unique_board_id_string+0x5e>
100028b4:	3107      	adds	r1, #7
100028b6:	e77d      	b.n	100027b4 <pico_get_unique_board_id_string+0x74>
100028b8:	3137      	adds	r1, #55	@ 0x37
100028ba:	000c      	movs	r4, r1
100028bc:	e785      	b.n	100027ca <pico_get_unique_board_id_string+0x8a>
100028be:	3107      	adds	r1, #7
100028c0:	e78e      	b.n	100027e0 <pico_get_unique_board_id_string+0xa0>
100028c2:	3137      	adds	r1, #55	@ 0x37
100028c4:	000c      	movs	r4, r1
100028c6:	e795      	b.n	100027f4 <pico_get_unique_board_id_string+0xb4>
100028c8:	3107      	adds	r1, #7
100028ca:	e79d      	b.n	10002808 <pico_get_unique_board_id_string+0xc8>
100028cc:	3137      	adds	r1, #55	@ 0x37
100028ce:	000c      	movs	r4, r1
100028d0:	e7a3      	b.n	1000281a <pico_get_unique_board_id_string+0xda>
100028d2:	3107      	adds	r1, #7
100028d4:	e7aa      	b.n	1000282c <pico_get_unique_board_id_string+0xec>
100028d6:	3137      	adds	r1, #55	@ 0x37
100028d8:	000c      	movs	r4, r1
100028da:	72c4      	strb	r4, [r0, #11]
100028dc:	2b0c      	cmp	r3, #12
100028de:	d1b1      	bne.n	10002844 <pico_get_unique_board_id_string+0x104>
100028e0:	18c0      	adds	r0, r0, r3
100028e2:	e7da      	b.n	1000289a <pico_get_unique_board_id_string+0x15a>
100028e4:	20002340 	.word	0x20002340

100028e8 <flash_get_unique_id>:
100028e8:	b510      	push	{r4, lr}
100028ea:	b088      	sub	sp, #32
100028ec:	0004      	movs	r4, r0
100028ee:	220d      	movs	r2, #13
100028f0:	2100      	movs	r1, #0
100028f2:	4668      	mov	r0, sp
100028f4:	f7ff faa0 	bl	10001e38 <__wrap_memset>
100028f8:	220d      	movs	r2, #13
100028fa:	2100      	movs	r1, #0
100028fc:	a804      	add	r0, sp, #16
100028fe:	f7ff fa9b 	bl	10001e38 <__wrap_memset>
10002902:	234b      	movs	r3, #75	@ 0x4b
10002904:	466a      	mov	r2, sp
10002906:	4668      	mov	r0, sp
10002908:	7013      	strb	r3, [r2, #0]
1000290a:	a904      	add	r1, sp, #16
1000290c:	220d      	movs	r2, #13
1000290e:	f003 f807 	bl	10005920 <__flash_do_cmd_veneer>
10002912:	2115      	movs	r1, #21
10002914:	2208      	movs	r2, #8
10002916:	0020      	movs	r0, r4
10002918:	4469      	add	r1, sp
1000291a:	f7ff fa93 	bl	10001e44 <__wrap___aeabi_memcpy>
1000291e:	b008      	add	sp, #32
10002920:	bd10      	pop	{r4, pc}
10002922:	46c0      	nop			@ (mov r8, r8)

10002924 <dcd_init>:
10002924:	b5f8      	push	{r3, r4, r5, r6, r7, lr}
10002926:	f000 f943 	bl	10002bb0 <rp2040_usb_init>
1000292a:	230c      	movs	r3, #12
1000292c:	4d19      	ldr	r5, [pc, #100]	@ (10002994 <dcd_init+0x70>)
1000292e:	22ff      	movs	r2, #255	@ 0xff
10002930:	67ab      	str	r3, [r5, #120]	@ 0x78
10002932:	2005      	movs	r0, #5
10002934:	4918      	ldr	r1, [pc, #96]	@ (10002998 <dcd_init+0x74>)
10002936:	f7fd feb3 	bl	100006a0 <irq_add_shared_handler>
1000293a:	4c18      	ldr	r4, [pc, #96]	@ (1000299c <dcd_init+0x78>)
1000293c:	2240      	movs	r2, #64	@ 0x40
1000293e:	2100      	movs	r1, #0
10002940:	0020      	movs	r0, r4
10002942:	f7ff fa79 	bl	10001e38 <__wrap_memset>
10002946:	2740      	movs	r7, #64	@ 0x40
10002948:	2300      	movs	r3, #0
1000294a:	2601      	movs	r6, #1
1000294c:	2121      	movs	r1, #33	@ 0x21
1000294e:	4a14      	ldr	r2, [pc, #80]	@ (100029a0 <dcd_init+0x7c>)
10002950:	7066      	strb	r6, [r4, #1]
10002952:	8327      	strh	r7, [r4, #24]
10002954:	60a2      	str	r2, [r4, #8]
10002956:	6013      	str	r3, [r2, #0]
10002958:	5463      	strb	r3, [r4, r1]
1000295a:	315f      	adds	r1, #95	@ 0x5f
1000295c:	8461      	strh	r1, [r4, #34]	@ 0x22
1000295e:	3945      	subs	r1, #69	@ 0x45
10002960:	5463      	strb	r3, [r4, r1]
10002962:	4a10      	ldr	r2, [pc, #64]	@ (100029a4 <dcd_init+0x80>)
10002964:	4910      	ldr	r1, [pc, #64]	@ (100029a8 <dcd_init+0x84>)
10002966:	6063      	str	r3, [r4, #4]
10002968:	60e2      	str	r2, [r4, #12]
1000296a:	8727      	strh	r7, [r4, #56]	@ 0x38
1000296c:	62a1      	str	r1, [r4, #40]	@ 0x28
1000296e:	600b      	str	r3, [r1, #0]
10002970:	6263      	str	r3, [r4, #36]	@ 0x24
10002972:	62e2      	str	r2, [r4, #44]	@ 0x2c
10002974:	f002 ffec 	bl	10005950 <__reset_non_control_endpoints_veneer>
10002978:	2380      	movs	r3, #128	@ 0x80
1000297a:	059b      	lsls	r3, r3, #22
1000297c:	642e      	str	r6, [r5, #64]	@ 0x40
1000297e:	64eb      	str	r3, [r5, #76]	@ 0x4c
10002980:	2390      	movs	r3, #144	@ 0x90
10002982:	4a0a      	ldr	r2, [pc, #40]	@ (100029ac <dcd_init+0x88>)
10002984:	2001      	movs	r0, #1
10002986:	50ea      	str	r2, [r5, r3]
10002988:	2280      	movs	r2, #128	@ 0x80
1000298a:	4b09      	ldr	r3, [pc, #36]	@ (100029b0 <dcd_init+0x8c>)
1000298c:	0252      	lsls	r2, r2, #9
1000298e:	64da      	str	r2, [r3, #76]	@ 0x4c
10002990:	bdf8      	pop	{r3, r4, r5, r6, r7, pc}
10002992:	46c0      	nop			@ (mov r8, r8)
10002994:	50110000 	.word	0x50110000
10002998:	20000475 	.word	0x20000475
1000299c:	20001c88 	.word	0x20001c88
100029a0:	50100084 	.word	0x50100084
100029a4:	50100100 	.word	0x50100100
100029a8:	50100080 	.word	0x50100080
100029ac:	0001d010 	.word	0x0001d010
100029b0:	50112000 	.word	0x50112000

100029b4 <dcd_int_enable>:
100029b4:	b510      	push	{r4, lr}
100029b6:	2101      	movs	r1, #1
100029b8:	2005      	movs	r0, #5
100029ba:	f7fd fe0f 	bl	100005dc <irq_set_enabled>
100029be:	bd10      	pop	{r4, pc}

100029c0 <dcd_set_address>:
100029c0:	b510      	push	{r4, lr}
100029c2:	2200      	movs	r2, #0
100029c4:	2100      	movs	r1, #0
100029c6:	4802      	ldr	r0, [pc, #8]	@ (100029d0 <dcd_set_address+0x10>)
100029c8:	f000 f912 	bl	10002bf0 <hw_endpoint_xfer_start>
100029cc:	bd10      	pop	{r4, pc}
100029ce:	46c0      	nop			@ (mov r8, r8)
100029d0:	20001ca8 	.word	0x20001ca8

100029d4 <dcd_sof_enable>:
100029d4:	4b04      	ldr	r3, [pc, #16]	@ (100029e8 <dcd_sof_enable+0x14>)
100029d6:	7019      	strb	r1, [r3, #0]
100029d8:	2900      	cmp	r1, #0
100029da:	d004      	beq.n	100029e6 <dcd_sof_enable+0x12>
100029dc:	2180      	movs	r1, #128	@ 0x80
100029de:	2390      	movs	r3, #144	@ 0x90
100029e0:	4a02      	ldr	r2, [pc, #8]	@ (100029ec <dcd_sof_enable+0x18>)
100029e2:	0289      	lsls	r1, r1, #10
100029e4:	50d1      	str	r1, [r2, r3]
100029e6:	4770      	bx	lr
100029e8:	200223d9 	.word	0x200223d9
100029ec:	50112000 	.word	0x50112000

100029f0 <dcd_edpt0_status_complete>:
100029f0:	780b      	ldrb	r3, [r1, #0]
100029f2:	065b      	lsls	r3, r3, #25
100029f4:	d102      	bne.n	100029fc <dcd_edpt0_status_complete+0xc>
100029f6:	784b      	ldrb	r3, [r1, #1]
100029f8:	2b05      	cmp	r3, #5
100029fa:	d000      	beq.n	100029fe <dcd_edpt0_status_complete+0xe>
100029fc:	4770      	bx	lr
100029fe:	788a      	ldrb	r2, [r1, #2]
10002a00:	4b01      	ldr	r3, [pc, #4]	@ (10002a08 <dcd_edpt0_status_complete+0x18>)
10002a02:	601a      	str	r2, [r3, #0]
10002a04:	e7fa      	b.n	100029fc <dcd_edpt0_status_complete+0xc>
10002a06:	46c0      	nop			@ (mov r8, r8)
10002a08:	50110000 	.word	0x50110000

10002a0c <dcd_edpt_open>:
10002a0c:	b5f0      	push	{r4, r5, r6, r7, lr}
10002a0e:	46c6      	mov	lr, r8
10002a10:	78c8      	ldrb	r0, [r1, #3]
10002a12:	b500      	push	{lr}
10002a14:	0780      	lsls	r0, r0, #30
10002a16:	0f83      	lsrs	r3, r0, #30
10002a18:	0018      	movs	r0, r3
10002a1a:	2b01      	cmp	r3, #1
10002a1c:	d060      	beq.n	10002ae0 <dcd_edpt_open+0xd4>
10002a1e:	788f      	ldrb	r7, [r1, #2]
10002a20:	790a      	ldrb	r2, [r1, #4]
10002a22:	794b      	ldrb	r3, [r1, #5]
10002a24:	217f      	movs	r1, #127	@ 0x7f
10002a26:	4039      	ands	r1, r7
10002a28:	09fc      	lsrs	r4, r7, #7
10002a2a:	021b      	lsls	r3, r3, #8
10002a2c:	004e      	lsls	r6, r1, #1
10002a2e:	4313      	orrs	r3, r2
10002a30:	4d33      	ldr	r5, [pc, #204]	@ (10002b00 <dcd_edpt_open+0xf4>)
10002a32:	1932      	adds	r2, r6, r4
10002a34:	0152      	lsls	r2, r2, #5
10002a36:	18aa      	adds	r2, r5, r2
10002a38:	7097      	strb	r7, [r2, #2]
10002a3a:	2701      	movs	r7, #1
10002a3c:	4067      	eors	r7, r4
10002a3e:	7057      	strb	r7, [r2, #1]
10002a40:	2700      	movs	r7, #0
10002a42:	055b      	lsls	r3, r3, #21
10002a44:	0d5b      	lsrs	r3, r3, #21
10002a46:	70d7      	strb	r7, [r2, #3]
10002a48:	8313      	strh	r3, [r2, #24]
10002a4a:	76d0      	strb	r0, [r2, #27]
10002a4c:	46b8      	mov	r8, r7
10002a4e:	00ca      	lsls	r2, r1, #3
10002a50:	2c01      	cmp	r4, #1
10002a52:	d032      	beq.n	10002aba <dcd_edpt_open+0xae>
10002a54:	4f2b      	ldr	r7, [pc, #172]	@ (10002b04 <dcd_edpt_open+0xf8>)
10002a56:	46bc      	mov	ip, r7
10002a58:	018f      	lsls	r7, r1, #6
10002a5a:	4462      	add	r2, ip
10002a5c:	46bc      	mov	ip, r7
10002a5e:	44ac      	add	ip, r5
10002a60:	4667      	mov	r7, ip
10002a62:	60ba      	str	r2, [r7, #8]
10002a64:	4647      	mov	r7, r8
10002a66:	6017      	str	r7, [r2, #0]
10002a68:	2900      	cmp	r1, #0
10002a6a:	d032      	beq.n	10002ad2 <dcd_edpt_open+0xc6>
10002a6c:	4a26      	ldr	r2, [pc, #152]	@ (10002b08 <dcd_edpt_open+0xfc>)
10002a6e:	00c9      	lsls	r1, r1, #3
10002a70:	4690      	mov	r8, r2
10002a72:	4662      	mov	r2, ip
10002a74:	4441      	add	r1, r8
10002a76:	6051      	str	r1, [r2, #4]
10002a78:	223f      	movs	r2, #63	@ 0x3f
10002a7a:	333f      	adds	r3, #63	@ 0x3f
10002a7c:	4393      	bics	r3, r2
10002a7e:	2802      	cmp	r0, #2
10002a80:	d037      	beq.n	10002af2 <dcd_edpt_open+0xe6>
10002a82:	4922      	ldr	r1, [pc, #136]	@ (10002b0c <dcd_edpt_open+0x100>)
10002a84:	1937      	adds	r7, r6, r4
10002a86:	680a      	ldr	r2, [r1, #0]
10002a88:	017f      	lsls	r7, r7, #5
10002a8a:	18d3      	adds	r3, r2, r3
10002a8c:	600b      	str	r3, [r1, #0]
10002a8e:	4920      	ldr	r1, [pc, #128]	@ (10002b10 <dcd_edpt_open+0x104>)
10002a90:	19ef      	adds	r7, r5, r7
10002a92:	60fa      	str	r2, [r7, #12]
10002a94:	428b      	cmp	r3, r1
10002a96:	d82e      	bhi.n	10002af6 <dcd_edpt_open+0xea>
10002a98:	1936      	adds	r6, r6, r4
10002a9a:	0176      	lsls	r6, r6, #5
10002a9c:	19ad      	adds	r5, r5, r6
10002a9e:	7eeb      	ldrb	r3, [r5, #27]
10002aa0:	491c      	ldr	r1, [pc, #112]	@ (10002b14 <dcd_edpt_open+0x108>)
10002aa2:	069b      	lsls	r3, r3, #26
10002aa4:	404a      	eors	r2, r1
10002aa6:	4313      	orrs	r3, r2
10002aa8:	2280      	movs	r2, #128	@ 0x80
10002aaa:	0612      	lsls	r2, r2, #24
10002aac:	4313      	orrs	r3, r2
10002aae:	686a      	ldr	r2, [r5, #4]
10002ab0:	6013      	str	r3, [r2, #0]
10002ab2:	2001      	movs	r0, #1
10002ab4:	bc80      	pop	{r7}
10002ab6:	46b8      	mov	r8, r7
10002ab8:	bdf0      	pop	{r4, r5, r6, r7, pc}
10002aba:	4f17      	ldr	r7, [pc, #92]	@ (10002b18 <dcd_edpt_open+0x10c>)
10002abc:	46bc      	mov	ip, r7
10002abe:	018f      	lsls	r7, r1, #6
10002ac0:	4462      	add	r2, ip
10002ac2:	46bc      	mov	ip, r7
10002ac4:	44ac      	add	ip, r5
10002ac6:	4667      	mov	r7, ip
10002ac8:	62ba      	str	r2, [r7, #40]	@ 0x28
10002aca:	4647      	mov	r7, r8
10002acc:	6017      	str	r7, [r2, #0]
10002ace:	2900      	cmp	r1, #0
10002ad0:	d108      	bne.n	10002ae4 <dcd_edpt_open+0xd8>
10002ad2:	2300      	movs	r3, #0
10002ad4:	0164      	lsls	r4, r4, #5
10002ad6:	192c      	adds	r4, r5, r4
10002ad8:	6063      	str	r3, [r4, #4]
10002ada:	4b10      	ldr	r3, [pc, #64]	@ (10002b1c <dcd_edpt_open+0x110>)
10002adc:	60e3      	str	r3, [r4, #12]
10002ade:	e7e8      	b.n	10002ab2 <dcd_edpt_open+0xa6>
10002ae0:	2000      	movs	r0, #0
10002ae2:	e7e7      	b.n	10002ab4 <dcd_edpt_open+0xa8>
10002ae4:	4a0b      	ldr	r2, [pc, #44]	@ (10002b14 <dcd_edpt_open+0x108>)
10002ae6:	00c9      	lsls	r1, r1, #3
10002ae8:	4690      	mov	r8, r2
10002aea:	4662      	mov	r2, ip
10002aec:	4441      	add	r1, r8
10002aee:	6251      	str	r1, [r2, #36]	@ 0x24
10002af0:	e7c2      	b.n	10002a78 <dcd_edpt_open+0x6c>
10002af2:	005b      	lsls	r3, r3, #1
10002af4:	e7c5      	b.n	10002a82 <dcd_edpt_open+0x76>
10002af6:	f7fe fdb7 	bl	10001668 <hard_assertion_failure>
10002afa:	68fa      	ldr	r2, [r7, #12]
10002afc:	e7cc      	b.n	10002a98 <dcd_edpt_open+0x8c>
10002afe:	46c0      	nop			@ (mov r8, r8)
10002b00:	20001c88 	.word	0x20001c88
10002b04:	50100084 	.word	0x50100084
10002b08:	50100004 	.word	0x50100004
10002b0c:	20002090 	.word	0x20002090
10002b10:	50100fff 	.word	0x50100fff
10002b14:	50100000 	.word	0x50100000
10002b18:	50100080 	.word	0x50100080
10002b1c:	50100100 	.word	0x50100100

10002b20 <dcd_edpt_close_all>:
10002b20:	b510      	push	{r4, lr}
10002b22:	f002 ff15 	bl	10005950 <__reset_non_control_endpoints_veneer>
10002b26:	bd10      	pop	{r4, pc}

10002b28 <dcd_edpt_xfer>:
10002b28:	b510      	push	{r4, lr}
10002b2a:	207f      	movs	r0, #127	@ 0x7f
10002b2c:	000c      	movs	r4, r1
10002b2e:	4020      	ands	r0, r4
10002b30:	0040      	lsls	r0, r0, #1
10002b32:	09e4      	lsrs	r4, r4, #7
10002b34:	0011      	movs	r1, r2
10002b36:	1900      	adds	r0, r0, r4
10002b38:	001a      	movs	r2, r3
10002b3a:	4b03      	ldr	r3, [pc, #12]	@ (10002b48 <dcd_edpt_xfer+0x20>)
10002b3c:	0140      	lsls	r0, r0, #5
10002b3e:	18c0      	adds	r0, r0, r3
10002b40:	f000 f856 	bl	10002bf0 <hw_endpoint_xfer_start>
10002b44:	2001      	movs	r0, #1
10002b46:	bd10      	pop	{r4, pc}
10002b48:	20001c88 	.word	0x20001c88

10002b4c <dcd_edpt_stall>:
10002b4c:	237f      	movs	r3, #127	@ 0x7f
10002b4e:	0018      	movs	r0, r3
10002b50:	b510      	push	{r4, lr}
10002b52:	4008      	ands	r0, r1
10002b54:	09ca      	lsrs	r2, r1, #7
10002b56:	420b      	tst	r3, r1
10002b58:	d103      	bne.n	10002b62 <dcd_edpt_stall+0x16>
10002b5a:	4907      	ldr	r1, [pc, #28]	@ (10002b78 <dcd_edpt_stall+0x2c>)
10002b5c:	3b7d      	subs	r3, #125	@ 0x7d
10002b5e:	1a9b      	subs	r3, r3, r2
10002b60:	668b      	str	r3, [r1, #104]	@ 0x68
10002b62:	0040      	lsls	r0, r0, #1
10002b64:	1880      	adds	r0, r0, r2
10002b66:	2280      	movs	r2, #128	@ 0x80
10002b68:	4b04      	ldr	r3, [pc, #16]	@ (10002b7c <dcd_edpt_stall+0x30>)
10002b6a:	0140      	lsls	r0, r0, #5
10002b6c:	2100      	movs	r1, #0
10002b6e:	18c0      	adds	r0, r0, r3
10002b70:	0112      	lsls	r2, r2, #4
10002b72:	f002 ff25 	bl	100059c0 <___hw_endpoint_buffer_control_update32_veneer>
10002b76:	bd10      	pop	{r4, pc}
10002b78:	50112000 	.word	0x50112000
10002b7c:	20001c88 	.word	0x20001c88

10002b80 <dcd_edpt_clear_stall>:
10002b80:	227f      	movs	r2, #127	@ 0x7f
10002b82:	0013      	movs	r3, r2
10002b84:	b510      	push	{r4, lr}
10002b86:	400b      	ands	r3, r1
10002b88:	420a      	tst	r2, r1
10002b8a:	d100      	bne.n	10002b8e <dcd_edpt_clear_stall+0xe>
10002b8c:	bd10      	pop	{r4, pc}
10002b8e:	09c9      	lsrs	r1, r1, #7
10002b90:	005b      	lsls	r3, r3, #1
10002b92:	185b      	adds	r3, r3, r1
10002b94:	4804      	ldr	r0, [pc, #16]	@ (10002ba8 <dcd_edpt_clear_stall+0x28>)
10002b96:	015b      	lsls	r3, r3, #5
10002b98:	18c0      	adds	r0, r0, r3
10002b9a:	2300      	movs	r3, #0
10002b9c:	2200      	movs	r2, #0
10002b9e:	4903      	ldr	r1, [pc, #12]	@ (10002bac <dcd_edpt_clear_stall+0x2c>)
10002ba0:	70c3      	strb	r3, [r0, #3]
10002ba2:	f002 ff0d 	bl	100059c0 <___hw_endpoint_buffer_control_update32_veneer>
10002ba6:	e7f1      	b.n	10002b8c <dcd_edpt_clear_stall+0xc>
10002ba8:	20001c88 	.word	0x20001c88
10002bac:	fffff7ff 	.word	0xfffff7ff

10002bb0 <rp2040_usb_init>:
10002bb0:	2280      	movs	r2, #128	@ 0x80
10002bb2:	4b0a      	ldr	r3, [pc, #40]	@ (10002bdc <rp2040_usb_init+0x2c>)
10002bb4:	0452      	lsls	r2, r2, #17
10002bb6:	b510      	push	{r4, lr}
10002bb8:	601a      	str	r2, [r3, #0]
10002bba:	4b09      	ldr	r3, [pc, #36]	@ (10002be0 <rp2040_usb_init+0x30>)
10002bbc:	4909      	ldr	r1, [pc, #36]	@ (10002be4 <rp2040_usb_init+0x34>)
10002bbe:	601a      	str	r2, [r3, #0]
10002bc0:	0010      	movs	r0, r2
10002bc2:	680b      	ldr	r3, [r1, #0]
10002bc4:	4398      	bics	r0, r3
10002bc6:	d1fb      	bne.n	10002bc0 <rp2040_usb_init+0x10>
10002bc8:	2280      	movs	r2, #128	@ 0x80
10002bca:	2100      	movs	r1, #0
10002bcc:	0152      	lsls	r2, r2, #5
10002bce:	4806      	ldr	r0, [pc, #24]	@ (10002be8 <rp2040_usb_init+0x38>)
10002bd0:	f7ff f932 	bl	10001e38 <__wrap_memset>
10002bd4:	2209      	movs	r2, #9
10002bd6:	4b05      	ldr	r3, [pc, #20]	@ (10002bec <rp2040_usb_init+0x3c>)
10002bd8:	675a      	str	r2, [r3, #116]	@ 0x74
10002bda:	bd10      	pop	{r4, pc}
10002bdc:	4000e000 	.word	0x4000e000
10002be0:	4000f000 	.word	0x4000f000
10002be4:	4000c008 	.word	0x4000c008
10002be8:	50100000 	.word	0x50100000
10002bec:	50110000 	.word	0x50110000

10002bf0 <hw_endpoint_xfer_start>:
10002bf0:	2300      	movs	r3, #0
10002bf2:	b510      	push	{r4, lr}
10002bf4:	82c3      	strh	r3, [r0, #22]
10002bf6:	3301      	adds	r3, #1
10002bf8:	8282      	strh	r2, [r0, #20]
10002bfa:	7683      	strb	r3, [r0, #26]
10002bfc:	6101      	str	r1, [r0, #16]
10002bfe:	0004      	movs	r4, r0
10002c00:	f002 fe86 	bl	10005910 <__e15_is_bulkin_ep_veneer>
10002c04:	2800      	cmp	r0, #0
10002c06:	d004      	beq.n	10002c12 <hw_endpoint_xfer_start+0x22>
10002c08:	2180      	movs	r1, #128	@ 0x80
10002c0a:	2390      	movs	r3, #144	@ 0x90
10002c0c:	4a07      	ldr	r2, [pc, #28]	@ (10002c2c <hw_endpoint_xfer_start+0x3c>)
10002c0e:	0289      	lsls	r1, r1, #10
10002c10:	50d1      	str	r1, [r2, r3]
10002c12:	0020      	movs	r0, r4
10002c14:	f002 fecc 	bl	100059b0 <__e15_is_critical_frame_period_veneer>
10002c18:	2800      	cmp	r0, #0
10002c1a:	d002      	beq.n	10002c22 <hw_endpoint_xfer_start+0x32>
10002c1c:	2301      	movs	r3, #1
10002c1e:	7723      	strb	r3, [r4, #28]
10002c20:	bd10      	pop	{r4, pc}
10002c22:	0020      	movs	r0, r4
10002c24:	f002 febc 	bl	100059a0 <__hw_endpoint_start_next_buffer_veneer>
10002c28:	e7fa      	b.n	10002c20 <hw_endpoint_xfer_start+0x30>
10002c2a:	46c0      	nop			@ (mov r8, r8)
10002c2c:	50112000 	.word	0x50112000

10002c30 <tud_event_hook_cb>:
10002c30:	4770      	bx	lr
10002c32:	46c0      	nop			@ (mov r8, r8)

10002c34 <tud_sof_cb>:
10002c34:	4770      	bx	lr
10002c36:	46c0      	nop			@ (mov r8, r8)

10002c38 <tud_descriptor_device_qualifier_cb>:
10002c38:	2000      	movs	r0, #0
10002c3a:	4770      	bx	lr

10002c3c <tud_descriptor_other_speed_configuration_cb>:
10002c3c:	2000      	movs	r0, #0
10002c3e:	4770      	bx	lr

10002c40 <tud_mount_cb>:
10002c40:	4770      	bx	lr
10002c42:	46c0      	nop			@ (mov r8, r8)

10002c44 <tud_umount_cb>:
10002c44:	4770      	bx	lr
10002c46:	46c0      	nop			@ (mov r8, r8)

10002c48 <tud_suspend_cb>:
10002c48:	4770      	bx	lr
10002c4a:	46c0      	nop			@ (mov r8, r8)

10002c4c <tud_resume_cb>:
10002c4c:	4770      	bx	lr
10002c4e:	46c0      	nop			@ (mov r8, r8)

10002c50 <tud_mounted>:
10002c50:	4b02      	ldr	r3, [pc, #8]	@ (10002c5c <tud_mounted+0xc>)
10002c52:	7858      	ldrb	r0, [r3, #1]
10002c54:	1e43      	subs	r3, r0, #1
10002c56:	4198      	sbcs	r0, r3
10002c58:	b2c0      	uxtb	r0, r0
10002c5a:	4770      	bx	lr
10002c5c:	20001734 	.word	0x20001734

10002c60 <tud_suspended>:
10002c60:	4b02      	ldr	r3, [pc, #8]	@ (10002c6c <tud_suspended+0xc>)
10002c62:	7818      	ldrb	r0, [r3, #0]
10002c64:	0740      	lsls	r0, r0, #29
10002c66:	0fc0      	lsrs	r0, r0, #31
10002c68:	4770      	bx	lr
10002c6a:	46c0      	nop			@ (mov r8, r8)
10002c6c:	20001734 	.word	0x20001734

10002c70 <tud_rhport_init>:
10002c70:	b5f0      	push	{r4, r5, r6, r7, lr}
10002c72:	46d6      	mov	lr, sl
10002c74:	464f      	mov	r7, r9
10002c76:	4646      	mov	r6, r8
10002c78:	b5c0      	push	{r6, r7, lr}
10002c7a:	4b31      	ldr	r3, [pc, #196]	@ (10002d40 <tud_rhport_init+0xd0>)
10002c7c:	0007      	movs	r7, r0
10002c7e:	469a      	mov	sl, r3
10002c80:	781b      	ldrb	r3, [r3, #0]
10002c82:	000e      	movs	r6, r1
10002c84:	2bff      	cmp	r3, #255	@ 0xff
10002c86:	d001      	beq.n	10002c8c <tud_rhport_init+0x1c>
10002c88:	2001      	movs	r0, #1
10002c8a:	e044      	b.n	10002d16 <tud_rhport_init+0xa6>
10002c8c:	2900      	cmp	r1, #0
10002c8e:	d041      	beq.n	10002d14 <tud_rhport_init+0xa4>
10002c90:	2100      	movs	r1, #0
10002c92:	2254      	movs	r2, #84	@ 0x54
10002c94:	482b      	ldr	r0, [pc, #172]	@ (10002d44 <tud_rhport_init+0xd4>)
10002c96:	f7ff f8cf 	bl	10001e38 <__wrap_memset>
10002c9a:	2200      	movs	r2, #0
10002c9c:	4c2a      	ldr	r4, [pc, #168]	@ (10002d48 <tud_rhport_init+0xd8>)
10002c9e:	4b2b      	ldr	r3, [pc, #172]	@ (10002d4c <tud_rhport_init+0xdc>)
10002ca0:	0020      	movs	r0, r4
10002ca2:	701a      	strb	r2, [r3, #0]
10002ca4:	f7fd fe98 	bl	100009d8 <mutex_init>
10002ca8:	4b29      	ldr	r3, [pc, #164]	@ (10002d50 <tud_rhport_init+0xe0>)
10002caa:	601c      	str	r4, [r3, #0]
10002cac:	4c29      	ldr	r4, [pc, #164]	@ (10002d54 <tud_rhport_init+0xe4>)
10002cae:	0020      	movs	r0, r4
10002cb0:	3c14      	subs	r4, #20
10002cb2:	f7fd fe9f 	bl	100009f4 <critical_section_init>
10002cb6:	0020      	movs	r0, r4
10002cb8:	f001 fe32 	bl	10004920 <tu_fifo_clear>
10002cbc:	4b26      	ldr	r3, [pc, #152]	@ (10002d58 <tud_rhport_init+0xe8>)
10002cbe:	4d27      	ldr	r5, [pc, #156]	@ (10002d5c <tud_rhport_init+0xec>)
10002cc0:	601c      	str	r4, [r3, #0]
10002cc2:	4b27      	ldr	r3, [pc, #156]	@ (10002d60 <tud_rhport_init+0xf0>)
10002cc4:	2b00      	cmp	r3, #0
10002cc6:	d02b      	beq.n	10002d20 <tud_rhport_init+0xb0>
10002cc8:	0028      	movs	r0, r5
10002cca:	f7ff fabf 	bl	1000224c <usbd_app_driver_get_cb>
10002cce:	4b25      	ldr	r3, [pc, #148]	@ (10002d64 <tud_rhport_init+0xf4>)
10002cd0:	782a      	ldrb	r2, [r5, #0]
10002cd2:	6018      	str	r0, [r3, #0]
10002cd4:	4924      	ldr	r1, [pc, #144]	@ (10002d68 <tud_rhport_init+0xf8>)
10002cd6:	2400      	movs	r4, #0
10002cd8:	4689      	mov	r9, r1
10002cda:	4922      	ldr	r1, [pc, #136]	@ (10002d64 <tud_rhport_init+0xf4>)
10002cdc:	2300      	movs	r3, #0
10002cde:	4688      	mov	r8, r1
10002ce0:	e010      	b.n	10002d04 <tud_rhport_init+0x94>
10002ce2:	4643      	mov	r3, r8
10002ce4:	681b      	ldr	r3, [r3, #0]
10002ce6:	0162      	lsls	r2, r4, #5
10002ce8:	189b      	adds	r3, r3, r2
10002cea:	2b00      	cmp	r3, #0
10002cec:	d012      	beq.n	10002d14 <tud_rhport_init+0xa4>
10002cee:	685b      	ldr	r3, [r3, #4]
10002cf0:	2b00      	cmp	r3, #0
10002cf2:	d00f      	beq.n	10002d14 <tud_rhport_init+0xa4>
10002cf4:	4798      	blx	r3
10002cf6:	782a      	ldrb	r2, [r5, #0]
10002cf8:	3401      	adds	r4, #1
10002cfa:	b2e4      	uxtb	r4, r4
10002cfc:	1c51      	adds	r1, r2, #1
10002cfe:	0023      	movs	r3, r4
10002d00:	42a1      	cmp	r1, r4
10002d02:	db0f      	blt.n	10002d24 <tud_rhport_init+0xb4>
10002d04:	42a2      	cmp	r2, r4
10002d06:	d8ec      	bhi.n	10002ce2 <tud_rhport_init+0x72>
10002d08:	1a9b      	subs	r3, r3, r2
10002d0a:	015b      	lsls	r3, r3, #5
10002d0c:	444b      	add	r3, r9
10002d0e:	685b      	ldr	r3, [r3, #4]
10002d10:	2b00      	cmp	r3, #0
10002d12:	d1ef      	bne.n	10002cf4 <tud_rhport_init+0x84>
10002d14:	2000      	movs	r0, #0
10002d16:	bce0      	pop	{r5, r6, r7}
10002d18:	46ba      	mov	sl, r7
10002d1a:	46b1      	mov	r9, r6
10002d1c:	46a8      	mov	r8, r5
10002d1e:	bdf0      	pop	{r4, r5, r6, r7, pc}
10002d20:	782a      	ldrb	r2, [r5, #0]
10002d22:	e7d7      	b.n	10002cd4 <tud_rhport_init+0x64>
10002d24:	4653      	mov	r3, sl
10002d26:	0031      	movs	r1, r6
10002d28:	0038      	movs	r0, r7
10002d2a:	701f      	strb	r7, [r3, #0]
10002d2c:	f7ff fdfa 	bl	10002924 <dcd_init>
10002d30:	2800      	cmp	r0, #0
10002d32:	d0ef      	beq.n	10002d14 <tud_rhport_init+0xa4>
10002d34:	0038      	movs	r0, r7
10002d36:	f7ff fe3d 	bl	100029b4 <dcd_int_enable>
10002d3a:	2001      	movs	r0, #1
10002d3c:	e7eb      	b.n	10002d16 <tud_rhport_init+0xa6>
10002d3e:	46c0      	nop			@ (mov r8, r8)
10002d40:	20001034 	.word	0x20001034
10002d44:	20001734 	.word	0x20001734
10002d48:	2000172c 	.word	0x2000172c
10002d4c:	200223da 	.word	0x200223da
10002d50:	20001788 	.word	0x20001788
10002d54:	2000102c 	.word	0x2000102c
10002d58:	2000178c 	.word	0x2000178c
10002d5c:	200223d8 	.word	0x200223d8
10002d60:	1000224d 	.word	0x1000224d
10002d64:	20001588 	.word	0x20001588
10002d68:	10005e10 	.word	0x10005e10

10002d6c <tud_task_ext>:
10002d6c:	b5f0      	push	{r4, r5, r6, r7, lr}
10002d6e:	46de      	mov	lr, fp
10002d70:	4657      	mov	r7, sl
10002d72:	464e      	mov	r6, r9
10002d74:	4645      	mov	r5, r8
10002d76:	b5e0      	push	{r5, r6, r7, lr}
10002d78:	4bc8      	ldr	r3, [pc, #800]	@ (1000309c <tud_task_ext+0x330>)
10002d7a:	b091      	sub	sp, #68	@ 0x44
10002d7c:	9302      	str	r3, [sp, #8]
10002d7e:	781b      	ldrb	r3, [r3, #0]
10002d80:	2bff      	cmp	r3, #255	@ 0xff
10002d82:	d100      	bne.n	10002d86 <tud_task_ext+0x1a>
10002d84:	e13e      	b.n	10003004 <tud_task_ext+0x298>
10002d86:	4bc6      	ldr	r3, [pc, #792]	@ (100030a0 <tud_task_ext+0x334>)
10002d88:	4ec6      	ldr	r6, [pc, #792]	@ (100030a4 <tud_task_ext+0x338>)
10002d8a:	469b      	mov	fp, r3
10002d8c:	465f      	mov	r7, fp
10002d8e:	4bc6      	ldr	r3, [pc, #792]	@ (100030a8 <tud_task_ext+0x33c>)
10002d90:	ac0d      	add	r4, sp, #52	@ 0x34
10002d92:	9301      	str	r3, [sp, #4]
10002d94:	4bc5      	ldr	r3, [pc, #788]	@ (100030ac <tud_task_ext+0x340>)
10002d96:	9300      	str	r3, [sp, #0]
10002d98:	6835      	ldr	r5, [r6, #0]
10002d9a:	696a      	ldr	r2, [r5, #20]
10002d9c:	f3ef 8110 	mrs	r1, PRIMASK
10002da0:	b672      	cpsid	i
10002da2:	6813      	ldr	r3, [r2, #0]
10002da4:	2b00      	cmp	r3, #0
10002da6:	d0fc      	beq.n	10002da2 <tud_task_ext+0x36>
10002da8:	f3bf 8f5f 	dmb	sy
10002dac:	61a9      	str	r1, [r5, #24]
10002dae:	0028      	movs	r0, r5
10002db0:	0021      	movs	r1, r4
10002db2:	f001 fbe3 	bl	1000457c <tu_fifo_read>
10002db6:	696a      	ldr	r2, [r5, #20]
10002db8:	69ab      	ldr	r3, [r5, #24]
10002dba:	f3bf 8f5f 	dmb	sy
10002dbe:	2100      	movs	r1, #0
10002dc0:	6011      	str	r1, [r2, #0]
10002dc2:	f383 8810 	msr	PRIMASK, r3
10002dc6:	2800      	cmp	r0, #0
10002dc8:	d100      	bne.n	10002dcc <tud_task_ext+0x60>
10002dca:	e11b      	b.n	10003004 <tud_task_ext+0x298>
10002dcc:	7863      	ldrb	r3, [r4, #1]
10002dce:	2b08      	cmp	r3, #8
10002dd0:	d8e2      	bhi.n	10002d98 <tud_task_ext+0x2c>
10002dd2:	009b      	lsls	r3, r3, #2
10002dd4:	58fb      	ldr	r3, [r7, r3]
10002dd6:	469f      	mov	pc, r3
10002dd8:	6863      	ldr	r3, [r4, #4]
10002dda:	2b00      	cmp	r3, #0
10002ddc:	d0dc      	beq.n	10002d98 <tud_task_ext+0x2c>
10002dde:	68a0      	ldr	r0, [r4, #8]
10002de0:	4798      	blx	r3
10002de2:	e7d9      	b.n	10002d98 <tud_task_ext+0x2c>
10002de4:	227f      	movs	r2, #127	@ 0x7f
10002de6:	7921      	ldrb	r1, [r4, #4]
10002de8:	4daf      	ldr	r5, [pc, #700]	@ (100030a8 <tud_task_ext+0x33c>)
10002dea:	400a      	ands	r2, r1
10002dec:	0053      	lsls	r3, r2, #1
10002dee:	18eb      	adds	r3, r5, r3
10002df0:	4698      	mov	r8, r3
10002df2:	09c8      	lsrs	r0, r1, #7
10002df4:	4480      	add	r8, r0
10002df6:	4640      	mov	r0, r8
10002df8:	2301      	movs	r3, #1
10002dfa:	3030      	adds	r0, #48	@ 0x30
10002dfc:	7905      	ldrb	r5, [r0, #4]
10002dfe:	439d      	bics	r5, r3
10002e00:	7105      	strb	r5, [r0, #4]
10002e02:	7905      	ldrb	r5, [r0, #4]
10002e04:	3303      	adds	r3, #3
10002e06:	439d      	bics	r5, r3
10002e08:	7105      	strb	r5, [r0, #4]
10002e0a:	2a00      	cmp	r2, #0
10002e0c:	d100      	bne.n	10002e10 <tud_task_ext+0xa4>
10002e0e:	e100      	b.n	10003012 <tud_task_ext+0x2a6>
10002e10:	4643      	mov	r3, r8
10002e12:	4aa7      	ldr	r2, [pc, #668]	@ (100030b0 <tud_task_ext+0x344>)
10002e14:	7d1b      	ldrb	r3, [r3, #20]
10002e16:	7812      	ldrb	r2, [r2, #0]
10002e18:	4293      	cmp	r3, r2
10002e1a:	d300      	bcc.n	10002e1e <tud_task_ext+0xb2>
10002e1c:	e0ef      	b.n	10002ffe <tud_task_ext+0x292>
10002e1e:	4aa5      	ldr	r2, [pc, #660]	@ (100030b4 <tud_task_ext+0x348>)
10002e20:	015b      	lsls	r3, r3, #5
10002e22:	6815      	ldr	r5, [r2, #0]
10002e24:	18ed      	adds	r5, r5, r3
10002e26:	2d00      	cmp	r5, #0
10002e28:	d100      	bne.n	10002e2c <tud_task_ext+0xc0>
10002e2a:	e0eb      	b.n	10003004 <tud_task_ext+0x298>
10002e2c:	68a3      	ldr	r3, [r4, #8]
10002e2e:	7962      	ldrb	r2, [r4, #5]
10002e30:	7820      	ldrb	r0, [r4, #0]
10002e32:	69ad      	ldr	r5, [r5, #24]
10002e34:	47a8      	blx	r5
10002e36:	e7af      	b.n	10002d98 <tud_task_ext+0x2c>
10002e38:	4a9f      	ldr	r2, [pc, #636]	@ (100030b8 <tud_task_ext+0x34c>)
10002e3a:	7813      	ldrb	r3, [r2, #0]
10002e3c:	2b00      	cmp	r3, #0
10002e3e:	d100      	bne.n	10002e42 <tud_task_ext+0xd6>
10002e40:	e0e0      	b.n	10003004 <tud_task_ext+0x298>
10002e42:	7813      	ldrb	r3, [r2, #0]
10002e44:	3b01      	subs	r3, #1
10002e46:	b2db      	uxtb	r3, r3
10002e48:	7013      	strb	r3, [r2, #0]
10002e4a:	7813      	ldrb	r3, [r2, #0]
10002e4c:	2b00      	cmp	r3, #0
10002e4e:	d1a3      	bne.n	10002d98 <tud_task_ext+0x2c>
10002e50:	2201      	movs	r2, #1
10002e52:	4d95      	ldr	r5, [pc, #596]	@ (100030a8 <tud_task_ext+0x33c>)
10002e54:	2101      	movs	r1, #1
10002e56:	782b      	ldrb	r3, [r5, #0]
10002e58:	2004      	movs	r0, #4
10002e5a:	4313      	orrs	r3, r2
10002e5c:	702b      	strb	r3, [r5, #0]
10002e5e:	2334      	movs	r3, #52	@ 0x34
10002e60:	5cea      	ldrb	r2, [r5, r3]
10002e62:	438a      	bics	r2, r1
10002e64:	54ea      	strb	r2, [r5, r3]
10002e66:	5cea      	ldrb	r2, [r5, r3]
10002e68:	4382      	bics	r2, r0
10002e6a:	54ea      	strb	r2, [r5, r3]
10002e6c:	3301      	adds	r3, #1
10002e6e:	5cea      	ldrb	r2, [r5, r3]
10002e70:	438a      	bics	r2, r1
10002e72:	54ea      	strb	r2, [r5, r3]
10002e74:	5cea      	ldrb	r2, [r5, r3]
10002e76:	4382      	bics	r2, r0
10002e78:	54ea      	strb	r2, [r5, r3]
10002e7a:	7823      	ldrb	r3, [r4, #0]
10002e7c:	2000      	movs	r0, #0
10002e7e:	469b      	mov	fp, r3
10002e80:	f000 fca4 	bl	100037cc <usbd_control_set_complete_callback>
10002e84:	2260      	movs	r2, #96	@ 0x60
10002e86:	7923      	ldrb	r3, [r4, #4]
10002e88:	401a      	ands	r2, r3
10002e8a:	2a60      	cmp	r2, #96	@ 0x60
10002e8c:	d100      	bne.n	10002e90 <tud_task_ext+0x124>
10002e8e:	e0ef      	b.n	10003070 <tud_task_ext+0x304>
10002e90:	2a40      	cmp	r2, #64	@ 0x40
10002e92:	d100      	bne.n	10002e96 <tud_task_ext+0x12a>
10002e94:	e0f5      	b.n	10003082 <tud_task_ext+0x316>
10002e96:	06db      	lsls	r3, r3, #27
10002e98:	0edb      	lsrs	r3, r3, #27
10002e9a:	2b01      	cmp	r3, #1
10002e9c:	d100      	bne.n	10002ea0 <tud_task_ext+0x134>
10002e9e:	e113      	b.n	100030c8 <tud_task_ext+0x35c>
10002ea0:	2b02      	cmp	r3, #2
10002ea2:	d100      	bne.n	10002ea6 <tud_task_ext+0x13a>
10002ea4:	e0c7      	b.n	10003036 <tud_task_ext+0x2ca>
10002ea6:	2b00      	cmp	r3, #0
10002ea8:	d000      	beq.n	10002eac <tud_task_ext+0x140>
10002eaa:	e0e1      	b.n	10003070 <tud_task_ext+0x304>
10002eac:	2a20      	cmp	r2, #32
10002eae:	d100      	bne.n	10002eb2 <tud_task_ext+0x146>
10002eb0:	e21c      	b.n	100032ec <tud_task_ext+0x580>
10002eb2:	2a00      	cmp	r2, #0
10002eb4:	d000      	beq.n	10002eb8 <tud_task_ext+0x14c>
10002eb6:	e0db      	b.n	10003070 <tud_task_ext+0x304>
10002eb8:	7963      	ldrb	r3, [r4, #5]
10002eba:	2b09      	cmp	r3, #9
10002ebc:	d900      	bls.n	10002ec0 <tud_task_ext+0x154>
10002ebe:	e0d7      	b.n	10003070 <tud_task_ext+0x304>
10002ec0:	4a7e      	ldr	r2, [pc, #504]	@ (100030bc <tud_task_ext+0x350>)
10002ec2:	009b      	lsls	r3, r3, #2
10002ec4:	58d3      	ldr	r3, [r2, r3]
10002ec6:	469f      	mov	pc, r3
10002ec8:	4d77      	ldr	r5, [pc, #476]	@ (100030a8 <tud_task_ext+0x33c>)
10002eca:	782b      	ldrb	r3, [r5, #0]
10002ecc:	07db      	lsls	r3, r3, #31
10002ece:	d400      	bmi.n	10002ed2 <tud_task_ext+0x166>
10002ed0:	e762      	b.n	10002d98 <tud_task_ext+0x2c>
10002ed2:	f7ff febb 	bl	10002c4c <tud_resume_cb>
10002ed6:	e75f      	b.n	10002d98 <tud_task_ext+0x2c>
10002ed8:	9b01      	ldr	r3, [sp, #4]
10002eda:	78db      	ldrb	r3, [r3, #3]
10002edc:	07db      	lsls	r3, r3, #31
10002ede:	d400      	bmi.n	10002ee2 <tud_task_ext+0x176>
10002ee0:	e75a      	b.n	10002d98 <tud_task_ext+0x2c>
10002ee2:	6860      	ldr	r0, [r4, #4]
10002ee4:	f7ff fea6 	bl	10002c34 <tud_sof_cb>
10002ee8:	e756      	b.n	10002d98 <tud_task_ext+0x2c>
10002eea:	4d6f      	ldr	r5, [pc, #444]	@ (100030a8 <tud_task_ext+0x33c>)
10002eec:	782b      	ldrb	r3, [r5, #0]
10002eee:	07db      	lsls	r3, r3, #31
10002ef0:	d400      	bmi.n	10002ef4 <tud_task_ext+0x188>
10002ef2:	e751      	b.n	10002d98 <tud_task_ext+0x2c>
10002ef4:	7828      	ldrb	r0, [r5, #0]
10002ef6:	0700      	lsls	r0, r0, #28
10002ef8:	0fc0      	lsrs	r0, r0, #31
10002efa:	f7ff fea5 	bl	10002c48 <tud_suspend_cb>
10002efe:	e74b      	b.n	10002d98 <tud_task_ext+0x2c>
10002f00:	7823      	ldrb	r3, [r4, #0]
10002f02:	496a      	ldr	r1, [pc, #424]	@ (100030ac <tud_task_ext+0x340>)
10002f04:	4699      	mov	r9, r3
10002f06:	468b      	mov	fp, r1
10002f08:	4b69      	ldr	r3, [pc, #420]	@ (100030b0 <tud_task_ext+0x344>)
10002f0a:	496a      	ldr	r1, [pc, #424]	@ (100030b4 <tud_task_ext+0x348>)
10002f0c:	4698      	mov	r8, r3
10002f0e:	468a      	mov	sl, r1
10002f10:	0039      	movs	r1, r7
10002f12:	781a      	ldrb	r2, [r3, #0]
10002f14:	4647      	mov	r7, r8
10002f16:	2300      	movs	r3, #0
10002f18:	46b0      	mov	r8, r6
10002f1a:	2500      	movs	r5, #0
10002f1c:	464e      	mov	r6, r9
10002f1e:	4689      	mov	r9, r1
10002f20:	e010      	b.n	10002f44 <tud_task_ext+0x1d8>
10002f22:	4653      	mov	r3, sl
10002f24:	681b      	ldr	r3, [r3, #0]
10002f26:	016a      	lsls	r2, r5, #5
10002f28:	189b      	adds	r3, r3, r2
10002f2a:	2b00      	cmp	r3, #0
10002f2c:	d100      	bne.n	10002f30 <tud_task_ext+0x1c4>
10002f2e:	e076      	b.n	1000301e <tud_task_ext+0x2b2>
10002f30:	68db      	ldr	r3, [r3, #12]
10002f32:	0030      	movs	r0, r6
10002f34:	4798      	blx	r3
10002f36:	783a      	ldrb	r2, [r7, #0]
10002f38:	3501      	adds	r5, #1
10002f3a:	b2ed      	uxtb	r5, r5
10002f3c:	1c51      	adds	r1, r2, #1
10002f3e:	002b      	movs	r3, r5
10002f40:	428d      	cmp	r5, r1
10002f42:	dc44      	bgt.n	10002fce <tud_task_ext+0x262>
10002f44:	4295      	cmp	r5, r2
10002f46:	d3ec      	bcc.n	10002f22 <tud_task_ext+0x1b6>
10002f48:	1a9b      	subs	r3, r3, r2
10002f4a:	015b      	lsls	r3, r3, #5
10002f4c:	445b      	add	r3, fp
10002f4e:	e7ef      	b.n	10002f30 <tud_task_ext+0x1c4>
10002f50:	7823      	ldrb	r3, [r4, #0]
10002f52:	4958      	ldr	r1, [pc, #352]	@ (100030b4 <tud_task_ext+0x348>)
10002f54:	4699      	mov	r9, r3
10002f56:	4b56      	ldr	r3, [pc, #344]	@ (100030b0 <tud_task_ext+0x344>)
10002f58:	468a      	mov	sl, r1
10002f5a:	4698      	mov	r8, r3
10002f5c:	0031      	movs	r1, r6
10002f5e:	46bb      	mov	fp, r7
10002f60:	464e      	mov	r6, r9
10002f62:	781a      	ldrb	r2, [r3, #0]
10002f64:	2500      	movs	r5, #0
10002f66:	2300      	movs	r3, #0
10002f68:	4647      	mov	r7, r8
10002f6a:	4689      	mov	r9, r1
10002f6c:	e00f      	b.n	10002f8e <tud_task_ext+0x222>
10002f6e:	4653      	mov	r3, sl
10002f70:	681b      	ldr	r3, [r3, #0]
10002f72:	016a      	lsls	r2, r5, #5
10002f74:	189b      	adds	r3, r3, r2
10002f76:	2b00      	cmp	r3, #0
10002f78:	d055      	beq.n	10003026 <tud_task_ext+0x2ba>
10002f7a:	68db      	ldr	r3, [r3, #12]
10002f7c:	0030      	movs	r0, r6
10002f7e:	4798      	blx	r3
10002f80:	783a      	ldrb	r2, [r7, #0]
10002f82:	3501      	adds	r5, #1
10002f84:	b2ed      	uxtb	r5, r5
10002f86:	1c51      	adds	r1, r2, #1
10002f88:	002b      	movs	r3, r5
10002f8a:	428d      	cmp	r5, r1
10002f8c:	dc07      	bgt.n	10002f9e <tud_task_ext+0x232>
10002f8e:	4295      	cmp	r5, r2
10002f90:	d3ed      	bcc.n	10002f6e <tud_task_ext+0x202>
10002f92:	1a9b      	subs	r3, r3, r2
10002f94:	9a00      	ldr	r2, [sp, #0]
10002f96:	015b      	lsls	r3, r3, #5
10002f98:	4694      	mov	ip, r2
10002f9a:	4463      	add	r3, ip
10002f9c:	e7ed      	b.n	10002f7a <tud_task_ext+0x20e>
10002f9e:	9d01      	ldr	r5, [sp, #4]
10002fa0:	2254      	movs	r2, #84	@ 0x54
10002fa2:	2100      	movs	r1, #0
10002fa4:	0028      	movs	r0, r5
10002fa6:	f7fe ff47 	bl	10001e38 <__wrap_memset>
10002faa:	2210      	movs	r2, #16
10002fac:	21ff      	movs	r1, #255	@ 0xff
10002fae:	4844      	ldr	r0, [pc, #272]	@ (100030c0 <tud_task_ext+0x354>)
10002fb0:	f7fe ff42 	bl	10001e38 <__wrap_memset>
10002fb4:	0028      	movs	r0, r5
10002fb6:	2220      	movs	r2, #32
10002fb8:	21ff      	movs	r1, #255	@ 0xff
10002fba:	3014      	adds	r0, #20
10002fbc:	464e      	mov	r6, r9
10002fbe:	465f      	mov	r7, fp
10002fc0:	f7fe ff3a 	bl	10001e38 <__wrap_memset>
10002fc4:	f000 fbf8 	bl	100037b8 <usbd_control_reset>
10002fc8:	f7ff fe3c 	bl	10002c44 <tud_umount_cb>
10002fcc:	e6e4      	b.n	10002d98 <tud_task_ext+0x2c>
10002fce:	4d36      	ldr	r5, [pc, #216]	@ (100030a8 <tud_task_ext+0x33c>)
10002fd0:	2254      	movs	r2, #84	@ 0x54
10002fd2:	2100      	movs	r1, #0
10002fd4:	0028      	movs	r0, r5
10002fd6:	f7fe ff2f 	bl	10001e38 <__wrap_memset>
10002fda:	2210      	movs	r2, #16
10002fdc:	21ff      	movs	r1, #255	@ 0xff
10002fde:	1d28      	adds	r0, r5, #4
10002fe0:	f7fe ff2a 	bl	10001e38 <__wrap_memset>
10002fe4:	0028      	movs	r0, r5
10002fe6:	2220      	movs	r2, #32
10002fe8:	21ff      	movs	r1, #255	@ 0xff
10002fea:	3014      	adds	r0, #20
10002fec:	4646      	mov	r6, r8
10002fee:	464f      	mov	r7, r9
10002ff0:	f7fe ff22 	bl	10001e38 <__wrap_memset>
10002ff4:	f000 fbe0 	bl	100037b8 <usbd_control_reset>
10002ff8:	7923      	ldrb	r3, [r4, #4]
10002ffa:	70ab      	strb	r3, [r5, #2]
10002ffc:	e6cc      	b.n	10002d98 <tud_task_ext+0x2c>
10002ffe:	1c50      	adds	r0, r2, #1
10003000:	4298      	cmp	r0, r3
10003002:	da13      	bge.n	1000302c <tud_task_ext+0x2c0>
10003004:	b011      	add	sp, #68	@ 0x44
10003006:	bcf0      	pop	{r4, r5, r6, r7}
10003008:	46bb      	mov	fp, r7
1000300a:	46b2      	mov	sl, r6
1000300c:	46a9      	mov	r9, r5
1000300e:	46a0      	mov	r8, r4
10003010:	bdf0      	pop	{r4, r5, r6, r7, pc}
10003012:	68a3      	ldr	r3, [r4, #8]
10003014:	7962      	ldrb	r2, [r4, #5]
10003016:	7820      	ldrb	r0, [r4, #0]
10003018:	f000 fbec 	bl	100037f4 <usbd_control_xfer_cb>
1000301c:	e6bc      	b.n	10002d98 <tud_task_ext+0x2c>
1000301e:	4646      	mov	r6, r8
10003020:	464f      	mov	r7, r9
10003022:	4d21      	ldr	r5, [pc, #132]	@ (100030a8 <tud_task_ext+0x33c>)
10003024:	e7e6      	b.n	10002ff4 <tud_task_ext+0x288>
10003026:	464e      	mov	r6, r9
10003028:	465f      	mov	r7, fp
1000302a:	e7cb      	b.n	10002fc4 <tud_task_ext+0x258>
1000302c:	4d1f      	ldr	r5, [pc, #124]	@ (100030ac <tud_task_ext+0x340>)
1000302e:	1a9b      	subs	r3, r3, r2
10003030:	015b      	lsls	r3, r3, #5
10003032:	195d      	adds	r5, r3, r5
10003034:	e6fa      	b.n	10002e2c <tud_task_ext+0xc0>
10003036:	2370      	movs	r3, #112	@ 0x70
10003038:	7a21      	ldrb	r1, [r4, #8]
1000303a:	420b      	tst	r3, r1
1000303c:	d118      	bne.n	10003070 <tud_task_ext+0x304>
1000303e:	09c8      	lsrs	r0, r1, #7
10003040:	4682      	mov	sl, r0
10003042:	330f      	adds	r3, #15
10003044:	400b      	ands	r3, r1
10003046:	005b      	lsls	r3, r3, #1
10003048:	4698      	mov	r8, r3
1000304a:	4819      	ldr	r0, [pc, #100]	@ (100030b0 <tud_task_ext+0x344>)
1000304c:	18eb      	adds	r3, r5, r3
1000304e:	4453      	add	r3, sl
10003050:	7d1b      	ldrb	r3, [r3, #20]
10003052:	7800      	ldrb	r0, [r0, #0]
10003054:	4699      	mov	r9, r3
10003056:	4283      	cmp	r3, r0
10003058:	d266      	bcs.n	10003128 <tud_task_ext+0x3bc>
1000305a:	4816      	ldr	r0, [pc, #88]	@ (100030b4 <tud_task_ext+0x348>)
1000305c:	015b      	lsls	r3, r3, #5
1000305e:	6800      	ldr	r0, [r0, #0]
10003060:	4681      	mov	r9, r0
10003062:	4499      	add	r9, r3
10003064:	2a00      	cmp	r2, #0
10003066:	d100      	bne.n	1000306a <tud_task_ext+0x2fe>
10003068:	e15f      	b.n	1000332a <tud_task_ext+0x5be>
1000306a:	464b      	mov	r3, r9
1000306c:	2b00      	cmp	r3, #0
1000306e:	d168      	bne.n	10003142 <tud_task_ext+0x3d6>
10003070:	7820      	ldrb	r0, [r4, #0]
10003072:	2100      	movs	r1, #0
10003074:	f7ff fd6a 	bl	10002b4c <dcd_edpt_stall>
10003078:	2180      	movs	r1, #128	@ 0x80
1000307a:	7820      	ldrb	r0, [r4, #0]
1000307c:	f7ff fd66 	bl	10002b4c <dcd_edpt_stall>
10003080:	e68a      	b.n	10002d98 <tud_task_ext+0x2c>
10003082:	4810      	ldr	r0, [pc, #64]	@ (100030c4 <tud_task_ext+0x358>)
10003084:	f000 fba2 	bl	100037cc <usbd_control_set_complete_callback>
10003088:	2101      	movs	r1, #1
1000308a:	4658      	mov	r0, fp
1000308c:	aa0e      	add	r2, sp, #56	@ 0x38
1000308e:	f7ff f8c3 	bl	10002218 <tud_vendor_control_xfer_cb>
10003092:	2800      	cmp	r0, #0
10003094:	d000      	beq.n	10003098 <tud_task_ext+0x32c>
10003096:	e67f      	b.n	10002d98 <tud_task_ext+0x2c>
10003098:	e7ea      	b.n	10003070 <tud_task_ext+0x304>
1000309a:	46c0      	nop			@ (mov r8, r8)
1000309c:	20001034 	.word	0x20001034
100030a0:	10005d68 	.word	0x10005d68
100030a4:	2000178c 	.word	0x2000178c
100030a8:	20001734 	.word	0x20001734
100030ac:	10005e10 	.word	0x10005e10
100030b0:	200223d8 	.word	0x200223d8
100030b4:	20001588 	.word	0x20001588
100030b8:	200223da 	.word	0x200223da
100030bc:	10005d8c 	.word	0x10005d8c
100030c0:	20001738 	.word	0x20001738
100030c4:	10002219 	.word	0x10002219
100030c8:	7a23      	ldrb	r3, [r4, #8]
100030ca:	2b0f      	cmp	r3, #15
100030cc:	d8d0      	bhi.n	10003070 <tud_task_ext+0x304>
100030ce:	4acf      	ldr	r2, [pc, #828]	@ (1000340c <tud_task_ext+0x6a0>)
100030d0:	18eb      	adds	r3, r5, r3
100030d2:	791b      	ldrb	r3, [r3, #4]
100030d4:	7815      	ldrb	r5, [r2, #0]
100030d6:	42ab      	cmp	r3, r5
100030d8:	d33e      	bcc.n	10003158 <tud_task_ext+0x3ec>
100030da:	1c69      	adds	r1, r5, #1
100030dc:	4299      	cmp	r1, r3
100030de:	dbc7      	blt.n	10003070 <tud_task_ext+0x304>
100030e0:	1b5d      	subs	r5, r3, r5
100030e2:	4bcb      	ldr	r3, [pc, #812]	@ (10003410 <tud_task_ext+0x6a4>)
100030e4:	016d      	lsls	r5, r5, #5
100030e6:	18ed      	adds	r5, r5, r3
100030e8:	6968      	ldr	r0, [r5, #20]
100030ea:	f000 fb6f 	bl	100037cc <usbd_control_set_complete_callback>
100030ee:	2101      	movs	r1, #1
100030f0:	4658      	mov	r0, fp
100030f2:	696b      	ldr	r3, [r5, #20]
100030f4:	aa0e      	add	r2, sp, #56	@ 0x38
100030f6:	4798      	blx	r3
100030f8:	2800      	cmp	r0, #0
100030fa:	d000      	beq.n	100030fe <tud_task_ext+0x392>
100030fc:	e64c      	b.n	10002d98 <tud_task_ext+0x2c>
100030fe:	2260      	movs	r2, #96	@ 0x60
10003100:	0015      	movs	r5, r2
10003102:	7923      	ldrb	r3, [r4, #4]
10003104:	401d      	ands	r5, r3
10003106:	421a      	tst	r2, r3
10003108:	d1b2      	bne.n	10003070 <tud_task_ext+0x304>
1000310a:	7963      	ldrb	r3, [r4, #5]
1000310c:	3b0a      	subs	r3, #10
1000310e:	2b01      	cmp	r3, #1
10003110:	d8ae      	bhi.n	10003070 <tud_task_ext+0x304>
10003112:	f000 fb5b 	bl	100037cc <usbd_control_set_complete_callback>
10003116:	7963      	ldrb	r3, [r4, #5]
10003118:	2b0a      	cmp	r3, #10
1000311a:	d100      	bne.n	1000311e <tud_task_ext+0x3b2>
1000311c:	e199      	b.n	10003452 <tud_task_ext+0x6e6>
1000311e:	4658      	mov	r0, fp
10003120:	a90e      	add	r1, sp, #56	@ 0x38
10003122:	f000 fadd 	bl	100036e0 <tud_control_status>
10003126:	e637      	b.n	10002d98 <tud_task_ext+0x2c>
10003128:	1c43      	adds	r3, r0, #1
1000312a:	454b      	cmp	r3, r9
1000312c:	da00      	bge.n	10003130 <tud_task_ext+0x3c4>
1000312e:	e0f7      	b.n	10003320 <tud_task_ext+0x5b4>
10003130:	464b      	mov	r3, r9
10003132:	1a1b      	subs	r3, r3, r0
10003134:	015b      	lsls	r3, r3, #5
10003136:	4699      	mov	r9, r3
10003138:	48b5      	ldr	r0, [pc, #724]	@ (10003410 <tud_task_ext+0x6a4>)
1000313a:	4481      	add	r9, r0
1000313c:	2a00      	cmp	r2, #0
1000313e:	d100      	bne.n	10003142 <tud_task_ext+0x3d6>
10003140:	e0f3      	b.n	1000332a <tud_task_ext+0x5be>
10003142:	464b      	mov	r3, r9
10003144:	6958      	ldr	r0, [r3, #20]
10003146:	f000 fb41 	bl	100037cc <usbd_control_set_complete_callback>
1000314a:	464b      	mov	r3, r9
1000314c:	2101      	movs	r1, #1
1000314e:	4658      	mov	r0, fp
10003150:	695b      	ldr	r3, [r3, #20]
10003152:	aa0e      	add	r2, sp, #56	@ 0x38
10003154:	4798      	blx	r3
10003156:	e79c      	b.n	10003092 <tud_task_ext+0x326>
10003158:	4aae      	ldr	r2, [pc, #696]	@ (10003414 <tud_task_ext+0x6a8>)
1000315a:	015b      	lsls	r3, r3, #5
1000315c:	6815      	ldr	r5, [r2, #0]
1000315e:	18ed      	adds	r5, r5, r3
10003160:	2d00      	cmp	r5, #0
10003162:	d1c1      	bne.n	100030e8 <tud_task_ext+0x37c>
10003164:	e784      	b.n	10003070 <tud_task_ext+0x304>
10003166:	79a3      	ldrb	r3, [r4, #6]
10003168:	4699      	mov	r9, r3
1000316a:	786b      	ldrb	r3, [r5, #1]
1000316c:	4599      	cmp	r9, r3
1000316e:	d0d6      	beq.n	1000311e <tud_task_ext+0x3b2>
10003170:	786b      	ldrb	r3, [r5, #1]
10003172:	2b00      	cmp	r3, #0
10003174:	d000      	beq.n	10003178 <tud_task_ext+0x40c>
10003176:	e133      	b.n	100033e0 <tud_task_ext+0x674>
10003178:	464b      	mov	r3, r9
1000317a:	706b      	strb	r3, [r5, #1]
1000317c:	2b00      	cmp	r3, #0
1000317e:	d100      	bne.n	10003182 <tud_task_ext+0x416>
10003180:	e12b      	b.n	100033da <tud_task_ext+0x66e>
10003182:	4648      	mov	r0, r9
10003184:	3801      	subs	r0, #1
10003186:	b2c0      	uxtb	r0, r0
10003188:	f7ff fa92 	bl	100026b0 <tud_descriptor_configuration_cb>
1000318c:	2800      	cmp	r0, #0
1000318e:	d100      	bne.n	10003192 <tud_task_ext+0x426>
10003190:	e17e      	b.n	10003490 <tud_task_ext+0x724>
10003192:	7843      	ldrb	r3, [r0, #1]
10003194:	9307      	str	r3, [sp, #28]
10003196:	2b02      	cmp	r3, #2
10003198:	d000      	beq.n	1000319c <tud_task_ext+0x430>
1000319a:	e179      	b.n	10003490 <tud_task_ext+0x724>
1000319c:	2201      	movs	r2, #1
1000319e:	79c1      	ldrb	r1, [r0, #7]
100031a0:	46b1      	mov	r9, r6
100031a2:	118b      	asrs	r3, r1, #6
100031a4:	1149      	asrs	r1, r1, #5
100031a6:	4013      	ands	r3, r2
100031a8:	400a      	ands	r2, r1
100031aa:	2130      	movs	r1, #48	@ 0x30
100031ac:	0112      	lsls	r2, r2, #4
100031ae:	015b      	lsls	r3, r3, #5
100031b0:	4313      	orrs	r3, r2
100031b2:	782a      	ldrb	r2, [r5, #0]
100031b4:	46a8      	mov	r8, r5
100031b6:	438a      	bics	r2, r1
100031b8:	4313      	orrs	r3, r2
100031ba:	702b      	strb	r3, [r5, #0]
100031bc:	2309      	movs	r3, #9
100031be:	469a      	mov	sl, r3
100031c0:	4482      	add	sl, r0
100031c2:	4656      	mov	r6, sl
100031c4:	46ba      	mov	sl, r7
100031c6:	78c3      	ldrb	r3, [r0, #3]
100031c8:	7882      	ldrb	r2, [r0, #2]
100031ca:	021b      	lsls	r3, r3, #8
100031cc:	4313      	orrs	r3, r2
100031ce:	18c3      	adds	r3, r0, r3
100031d0:	9305      	str	r3, [sp, #20]
100031d2:	4b8e      	ldr	r3, [pc, #568]	@ (1000340c <tud_task_ext+0x6a0>)
100031d4:	9304      	str	r3, [sp, #16]
100031d6:	4b8e      	ldr	r3, [pc, #568]	@ (10003410 <tud_task_ext+0x6a4>)
100031d8:	9308      	str	r3, [sp, #32]
100031da:	4b8e      	ldr	r3, [pc, #568]	@ (10003414 <tud_task_ext+0x6a8>)
100031dc:	9309      	str	r3, [sp, #36]	@ 0x24
100031de:	4b8e      	ldr	r3, [pc, #568]	@ (10003418 <tud_task_ext+0x6ac>)
100031e0:	930a      	str	r3, [sp, #40]	@ 0x28
100031e2:	9b05      	ldr	r3, [sp, #20]
100031e4:	42b3      	cmp	r3, r6
100031e6:	d800      	bhi.n	100031ea <tud_task_ext+0x47e>
100031e8:	e155      	b.n	10003496 <tud_task_ext+0x72a>
100031ea:	7873      	ldrb	r3, [r6, #1]
100031ec:	2201      	movs	r2, #1
100031ee:	2b0b      	cmp	r3, #11
100031f0:	d103      	bne.n	100031fa <tud_task_ext+0x48e>
100031f2:	7833      	ldrb	r3, [r6, #0]
100031f4:	78f2      	ldrb	r2, [r6, #3]
100031f6:	18f6      	adds	r6, r6, r3
100031f8:	7873      	ldrb	r3, [r6, #1]
100031fa:	2b04      	cmp	r3, #4
100031fc:	d000      	beq.n	10003200 <tud_task_ext+0x494>
100031fe:	e144      	b.n	1000348a <tud_task_ext+0x71e>
10003200:	9b05      	ldr	r3, [sp, #20]
10003202:	2700      	movs	r7, #0
10003204:	1b9b      	subs	r3, r3, r6
10003206:	b29b      	uxth	r3, r3
10003208:	9306      	str	r3, [sp, #24]
1000320a:	9b04      	ldr	r3, [sp, #16]
1000320c:	920b      	str	r2, [sp, #44]	@ 0x2c
1000320e:	781d      	ldrb	r5, [r3, #0]
10003210:	2300      	movs	r3, #0
10003212:	9303      	str	r3, [sp, #12]
10003214:	e01b      	b.n	1000324e <tud_task_ext+0x4e2>
10003216:	9a09      	ldr	r2, [sp, #36]	@ 0x24
10003218:	017b      	lsls	r3, r7, #5
1000321a:	6815      	ldr	r5, [r2, #0]
1000321c:	18ed      	adds	r5, r5, r3
1000321e:	2d00      	cmp	r5, #0
10003220:	d100      	bne.n	10003224 <tud_task_ext+0x4b8>
10003222:	e132      	b.n	1000348a <tud_task_ext+0x71e>
10003224:	0031      	movs	r1, r6
10003226:	4658      	mov	r0, fp
10003228:	692b      	ldr	r3, [r5, #16]
1000322a:	9a06      	ldr	r2, [sp, #24]
1000322c:	4798      	blx	r3
1000322e:	4684      	mov	ip, r0
10003230:	2808      	cmp	r0, #8
10003232:	d903      	bls.n	1000323c <tud_task_ext+0x4d0>
10003234:	9a06      	ldr	r2, [sp, #24]
10003236:	4282      	cmp	r2, r0
10003238:	d300      	bcc.n	1000323c <tud_task_ext+0x4d0>
1000323a:	e113      	b.n	10003464 <tud_task_ext+0x6f8>
1000323c:	9b04      	ldr	r3, [sp, #16]
1000323e:	3701      	adds	r7, #1
10003240:	781d      	ldrb	r5, [r3, #0]
10003242:	b2ff      	uxtb	r7, r7
10003244:	1c6b      	adds	r3, r5, #1
10003246:	9703      	str	r7, [sp, #12]
10003248:	429f      	cmp	r7, r3
1000324a:	dd00      	ble.n	1000324e <tud_task_ext+0x4e2>
1000324c:	e11d      	b.n	1000348a <tud_task_ext+0x71e>
1000324e:	42bd      	cmp	r5, r7
10003250:	d8e1      	bhi.n	10003216 <tud_task_ext+0x4aa>
10003252:	9b03      	ldr	r3, [sp, #12]
10003254:	1b5d      	subs	r5, r3, r5
10003256:	9b08      	ldr	r3, [sp, #32]
10003258:	016d      	lsls	r5, r5, #5
1000325a:	469c      	mov	ip, r3
1000325c:	4465      	add	r5, ip
1000325e:	e7e1      	b.n	10003224 <tud_task_ext+0x4b8>
10003260:	786b      	ldrb	r3, [r5, #1]
10003262:	aa0c      	add	r2, sp, #48	@ 0x30
10003264:	3202      	adds	r2, #2
10003266:	7013      	strb	r3, [r2, #0]
10003268:	4658      	mov	r0, fp
1000326a:	2301      	movs	r3, #1
1000326c:	a90e      	add	r1, sp, #56	@ 0x38
1000326e:	f000 fa4d 	bl	1000370c <tud_control_xfer>
10003272:	e591      	b.n	10002d98 <tud_task_ext+0x2c>
10003274:	88e3      	ldrh	r3, [r4, #6]
10003276:	0a1a      	lsrs	r2, r3, #8
10003278:	b2d8      	uxtb	r0, r3
1000327a:	2a0f      	cmp	r2, #15
1000327c:	d900      	bls.n	10003280 <tud_task_ext+0x514>
1000327e:	e6f7      	b.n	10003070 <tud_task_ext+0x304>
10003280:	4966      	ldr	r1, [pc, #408]	@ (1000341c <tud_task_ext+0x6b0>)
10003282:	0093      	lsls	r3, r2, #2
10003284:	58cb      	ldr	r3, [r1, r3]
10003286:	469f      	mov	pc, r3
10003288:	a80e      	add	r0, sp, #56	@ 0x38
1000328a:	f000 faa5 	bl	100037d8 <usbd_control_set_request>
1000328e:	4658      	mov	r0, fp
10003290:	79a1      	ldrb	r1, [r4, #6]
10003292:	f7ff fb95 	bl	100029c0 <dcd_set_address>
10003296:	2202      	movs	r2, #2
10003298:	782b      	ldrb	r3, [r5, #0]
1000329a:	4313      	orrs	r3, r2
1000329c:	702b      	strb	r3, [r5, #0]
1000329e:	e57b      	b.n	10002d98 <tud_task_ext+0x2c>
100032a0:	88e3      	ldrh	r3, [r4, #6]
100032a2:	2b01      	cmp	r3, #1
100032a4:	d000      	beq.n	100032a8 <tud_task_ext+0x53c>
100032a6:	e6e3      	b.n	10003070 <tud_task_ext+0x304>
100032a8:	2208      	movs	r2, #8
100032aa:	782b      	ldrb	r3, [r5, #0]
100032ac:	4658      	mov	r0, fp
100032ae:	4393      	bics	r3, r2
100032b0:	a90e      	add	r1, sp, #56	@ 0x38
100032b2:	702b      	strb	r3, [r5, #0]
100032b4:	f000 fa14 	bl	100036e0 <tud_control_status>
100032b8:	e56e      	b.n	10002d98 <tud_task_ext+0x2c>
100032ba:	2002      	movs	r0, #2
100032bc:	7829      	ldrb	r1, [r5, #0]
100032be:	ab0c      	add	r3, sp, #48	@ 0x30
100032c0:	1c9a      	adds	r2, r3, #2
100032c2:	068b      	lsls	r3, r1, #26
100032c4:	0889      	lsrs	r1, r1, #2
100032c6:	0fdb      	lsrs	r3, r3, #31
100032c8:	4001      	ands	r1, r0
100032ca:	430b      	orrs	r3, r1
100032cc:	8013      	strh	r3, [r2, #0]
100032ce:	4658      	mov	r0, fp
100032d0:	2302      	movs	r3, #2
100032d2:	a90e      	add	r1, sp, #56	@ 0x38
100032d4:	f000 fa1a 	bl	1000370c <tud_control_xfer>
100032d8:	e55e      	b.n	10002d98 <tud_task_ext+0x2c>
100032da:	88e3      	ldrh	r3, [r4, #6]
100032dc:	2b01      	cmp	r3, #1
100032de:	d000      	beq.n	100032e2 <tud_task_ext+0x576>
100032e0:	e6c6      	b.n	10003070 <tud_task_ext+0x304>
100032e2:	2208      	movs	r2, #8
100032e4:	782b      	ldrb	r3, [r5, #0]
100032e6:	4313      	orrs	r3, r2
100032e8:	702b      	strb	r3, [r5, #0]
100032ea:	e718      	b.n	1000311e <tud_task_ext+0x3b2>
100032ec:	7a23      	ldrb	r3, [r4, #8]
100032ee:	2b0f      	cmp	r3, #15
100032f0:	d900      	bls.n	100032f4 <tud_task_ext+0x588>
100032f2:	e6bd      	b.n	10003070 <tud_task_ext+0x304>
100032f4:	18eb      	adds	r3, r5, r3
100032f6:	791d      	ldrb	r5, [r3, #4]
100032f8:	4b44      	ldr	r3, [pc, #272]	@ (1000340c <tud_task_ext+0x6a0>)
100032fa:	781b      	ldrb	r3, [r3, #0]
100032fc:	429d      	cmp	r5, r3
100032fe:	d228      	bcs.n	10003352 <tud_task_ext+0x5e6>
10003300:	4b44      	ldr	r3, [pc, #272]	@ (10003414 <tud_task_ext+0x6a8>)
10003302:	016d      	lsls	r5, r5, #5
10003304:	681b      	ldr	r3, [r3, #0]
10003306:	195d      	adds	r5, r3, r5
10003308:	2d00      	cmp	r5, #0
1000330a:	d100      	bne.n	1000330e <tud_task_ext+0x5a2>
1000330c:	e6b0      	b.n	10003070 <tud_task_ext+0x304>
1000330e:	6968      	ldr	r0, [r5, #20]
10003310:	f000 fa5c 	bl	100037cc <usbd_control_set_complete_callback>
10003314:	2101      	movs	r1, #1
10003316:	4658      	mov	r0, fp
10003318:	696b      	ldr	r3, [r5, #20]
1000331a:	aa0e      	add	r2, sp, #56	@ 0x38
1000331c:	4798      	blx	r3
1000331e:	e6b8      	b.n	10003092 <tud_task_ext+0x326>
10003320:	2a00      	cmp	r2, #0
10003322:	d000      	beq.n	10003326 <tud_task_ext+0x5ba>
10003324:	e6a4      	b.n	10003070 <tud_task_ext+0x304>
10003326:	2300      	movs	r3, #0
10003328:	4699      	mov	r9, r3
1000332a:	7962      	ldrb	r2, [r4, #5]
1000332c:	2002      	movs	r0, #2
1000332e:	0013      	movs	r3, r2
10003330:	9203      	str	r2, [sp, #12]
10003332:	4383      	bics	r3, r0
10003334:	2b01      	cmp	r3, #1
10003336:	d015      	beq.n	10003364 <tud_task_ext+0x5f8>
10003338:	2a00      	cmp	r2, #0
1000333a:	d000      	beq.n	1000333e <tud_task_ext+0x5d2>
1000333c:	e698      	b.n	10003070 <tud_task_ext+0x304>
1000333e:	002b      	movs	r3, r5
10003340:	4443      	add	r3, r8
10003342:	4453      	add	r3, sl
10003344:	3330      	adds	r3, #48	@ 0x30
10003346:	791b      	ldrb	r3, [r3, #4]
10003348:	aa0c      	add	r2, sp, #48	@ 0x30
1000334a:	079b      	lsls	r3, r3, #30
1000334c:	0fdb      	lsrs	r3, r3, #31
1000334e:	3202      	adds	r2, #2
10003350:	e7bc      	b.n	100032cc <tud_task_ext+0x560>
10003352:	1c5a      	adds	r2, r3, #1
10003354:	42aa      	cmp	r2, r5
10003356:	da00      	bge.n	1000335a <tud_task_ext+0x5ee>
10003358:	e68a      	b.n	10003070 <tud_task_ext+0x304>
1000335a:	1aed      	subs	r5, r5, r3
1000335c:	4b2c      	ldr	r3, [pc, #176]	@ (10003410 <tud_task_ext+0x6a4>)
1000335e:	016d      	lsls	r5, r5, #5
10003360:	18ed      	adds	r5, r5, r3
10003362:	e7d4      	b.n	1000330e <tud_task_ext+0x5a2>
10003364:	88e3      	ldrh	r3, [r4, #6]
10003366:	2b00      	cmp	r3, #0
10003368:	d112      	bne.n	10003390 <tud_task_ext+0x624>
1000336a:	9b02      	ldr	r3, [sp, #8]
1000336c:	7818      	ldrb	r0, [r3, #0]
1000336e:	9b03      	ldr	r3, [sp, #12]
10003370:	2b01      	cmp	r3, #1
10003372:	d023      	beq.n	100033bc <tud_task_ext+0x650>
10003374:	f7ff fbea 	bl	10002b4c <dcd_edpt_stall>
10003378:	4643      	mov	r3, r8
1000337a:	2102      	movs	r1, #2
1000337c:	18eb      	adds	r3, r5, r3
1000337e:	4453      	add	r3, sl
10003380:	3330      	adds	r3, #48	@ 0x30
10003382:	791a      	ldrb	r2, [r3, #4]
10003384:	430a      	orrs	r2, r1
10003386:	2101      	movs	r1, #1
10003388:	711a      	strb	r2, [r3, #4]
1000338a:	791a      	ldrb	r2, [r3, #4]
1000338c:	430a      	orrs	r2, r1
1000338e:	711a      	strb	r2, [r3, #4]
10003390:	464b      	mov	r3, r9
10003392:	2b00      	cmp	r3, #0
10003394:	d100      	bne.n	10003398 <tud_task_ext+0x62c>
10003396:	e4ff      	b.n	10002d98 <tud_task_ext+0x2c>
10003398:	6958      	ldr	r0, [r3, #20]
1000339a:	f000 fa17 	bl	100037cc <usbd_control_set_complete_callback>
1000339e:	464b      	mov	r3, r9
100033a0:	2101      	movs	r1, #1
100033a2:	695b      	ldr	r3, [r3, #20]
100033a4:	aa0e      	add	r2, sp, #56	@ 0x38
100033a6:	4658      	mov	r0, fp
100033a8:	4798      	blx	r3
100033aa:	2000      	movs	r0, #0
100033ac:	f000 fa0e 	bl	100037cc <usbd_control_set_complete_callback>
100033b0:	2335      	movs	r3, #53	@ 0x35
100033b2:	5ceb      	ldrb	r3, [r5, r3]
100033b4:	07db      	lsls	r3, r3, #31
100033b6:	d500      	bpl.n	100033ba <tud_task_ext+0x64e>
100033b8:	e4ee      	b.n	10002d98 <tud_task_ext+0x2c>
100033ba:	e6b0      	b.n	1000311e <tud_task_ext+0x3b2>
100033bc:	f7ff fbe0 	bl	10002b80 <dcd_edpt_clear_stall>
100033c0:	4643      	mov	r3, r8
100033c2:	2102      	movs	r1, #2
100033c4:	18eb      	adds	r3, r5, r3
100033c6:	4453      	add	r3, sl
100033c8:	3330      	adds	r3, #48	@ 0x30
100033ca:	791a      	ldrb	r2, [r3, #4]
100033cc:	438a      	bics	r2, r1
100033ce:	711a      	strb	r2, [r3, #4]
100033d0:	791a      	ldrb	r2, [r3, #4]
100033d2:	9903      	ldr	r1, [sp, #12]
100033d4:	438a      	bics	r2, r1
100033d6:	711a      	strb	r2, [r3, #4]
100033d8:	e7da      	b.n	10003390 <tud_task_ext+0x624>
100033da:	f7ff fc33 	bl	10002c44 <tud_umount_cb>
100033de:	e69e      	b.n	1000311e <tud_task_ext+0x3b2>
100033e0:	2100      	movs	r1, #0
100033e2:	4658      	mov	r0, fp
100033e4:	f7ff faf6 	bl	100029d4 <dcd_sof_enable>
100033e8:	4658      	mov	r0, fp
100033ea:	f7ff fb99 	bl	10002b20 <dcd_edpt_close_all>
100033ee:	78ab      	ldrb	r3, [r5, #2]
100033f0:	4907      	ldr	r1, [pc, #28]	@ (10003410 <tud_task_ext+0x6a4>)
100033f2:	9303      	str	r3, [sp, #12]
100033f4:	9104      	str	r1, [sp, #16]
100033f6:	4b05      	ldr	r3, [pc, #20]	@ (1000340c <tud_task_ext+0x6a0>)
100033f8:	4906      	ldr	r1, [pc, #24]	@ (10003414 <tud_task_ext+0x6a8>)
100033fa:	4698      	mov	r8, r3
100033fc:	781a      	ldrb	r2, [r3, #0]
100033fe:	9105      	str	r1, [sp, #20]
10003400:	2300      	movs	r3, #0
10003402:	0029      	movs	r1, r5
10003404:	001d      	movs	r5, r3
10003406:	468a      	mov	sl, r1
10003408:	e01b      	b.n	10003442 <tud_task_ext+0x6d6>
1000340a:	46c0      	nop			@ (mov r8, r8)
1000340c:	200223d8 	.word	0x200223d8
10003410:	10005e10 	.word	0x10005e10
10003414:	20001588 	.word	0x20001588
10003418:	20001748 	.word	0x20001748
1000341c:	10005db4 	.word	0x10005db4
10003420:	9b05      	ldr	r3, [sp, #20]
10003422:	016a      	lsls	r2, r5, #5
10003424:	681b      	ldr	r3, [r3, #0]
10003426:	189b      	adds	r3, r3, r2
10003428:	2b00      	cmp	r3, #0
1000342a:	d04d      	beq.n	100034c8 <tud_task_ext+0x75c>
1000342c:	68db      	ldr	r3, [r3, #12]
1000342e:	4658      	mov	r0, fp
10003430:	4798      	blx	r3
10003432:	4643      	mov	r3, r8
10003434:	781a      	ldrb	r2, [r3, #0]
10003436:	3501      	adds	r5, #1
10003438:	b2ed      	uxtb	r5, r5
1000343a:	1c51      	adds	r1, r2, #1
1000343c:	002b      	movs	r3, r5
1000343e:	428d      	cmp	r5, r1
10003440:	dc2e      	bgt.n	100034a0 <tud_task_ext+0x734>
10003442:	4295      	cmp	r5, r2
10003444:	d3ec      	bcc.n	10003420 <tud_task_ext+0x6b4>
10003446:	1a9b      	subs	r3, r3, r2
10003448:	9a04      	ldr	r2, [sp, #16]
1000344a:	015b      	lsls	r3, r3, #5
1000344c:	4694      	mov	ip, r2
1000344e:	4463      	add	r3, ip
10003450:	e7ec      	b.n	1000342c <tud_task_ext+0x6c0>
10003452:	ab0c      	add	r3, sp, #48	@ 0x30
10003454:	1c9a      	adds	r2, r3, #2
10003456:	4658      	mov	r0, fp
10003458:	2301      	movs	r3, #1
1000345a:	a90e      	add	r1, sp, #56	@ 0x38
1000345c:	7015      	strb	r5, [r2, #0]
1000345e:	f000 f955 	bl	1000370c <tud_control_xfer>
10003462:	e499      	b.n	10002d98 <tud_task_ext+0x2c>
10003464:	9a0b      	ldr	r2, [sp, #44]	@ 0x2c
10003466:	2a01      	cmp	r2, #1
10003468:	d04f      	beq.n	1000350a <tud_task_ext+0x79e>
1000346a:	2a00      	cmp	r2, #0
1000346c:	d03c      	beq.n	100034e8 <tud_task_ext+0x77c>
1000346e:	2300      	movs	r3, #0
10003470:	78b0      	ldrb	r0, [r6, #2]
10003472:	e004      	b.n	1000347e <tud_task_ext+0x712>
10003474:	3301      	adds	r3, #1
10003476:	b2db      	uxtb	r3, r3
10003478:	710f      	strb	r7, [r1, #4]
1000347a:	4293      	cmp	r3, r2
1000347c:	d234      	bcs.n	100034e8 <tud_task_ext+0x77c>
1000347e:	18c1      	adds	r1, r0, r3
10003480:	b2c9      	uxtb	r1, r1
10003482:	4441      	add	r1, r8
10003484:	790d      	ldrb	r5, [r1, #4]
10003486:	2dff      	cmp	r5, #255	@ 0xff
10003488:	d0f4      	beq.n	10003474 <tud_task_ext+0x708>
1000348a:	464e      	mov	r6, r9
1000348c:	4645      	mov	r5, r8
1000348e:	4657      	mov	r7, sl
10003490:	2300      	movs	r3, #0
10003492:	706b      	strb	r3, [r5, #1]
10003494:	e5ec      	b.n	10003070 <tud_task_ext+0x304>
10003496:	464e      	mov	r6, r9
10003498:	4657      	mov	r7, sl
1000349a:	f7ff fbd1 	bl	10002c40 <tud_mount_cb>
1000349e:	e63e      	b.n	1000311e <tud_task_ext+0x3b2>
100034a0:	4655      	mov	r5, sl
100034a2:	2254      	movs	r2, #84	@ 0x54
100034a4:	2100      	movs	r1, #0
100034a6:	0028      	movs	r0, r5
100034a8:	f7fe fcc6 	bl	10001e38 <__wrap_memset>
100034ac:	2210      	movs	r2, #16
100034ae:	21ff      	movs	r1, #255	@ 0xff
100034b0:	1d28      	adds	r0, r5, #4
100034b2:	f7fe fcc1 	bl	10001e38 <__wrap_memset>
100034b6:	0028      	movs	r0, r5
100034b8:	2220      	movs	r2, #32
100034ba:	21ff      	movs	r1, #255	@ 0xff
100034bc:	3014      	adds	r0, #20
100034be:	f7fe fcbb 	bl	10001e38 <__wrap_memset>
100034c2:	9b03      	ldr	r3, [sp, #12]
100034c4:	70ab      	strb	r3, [r5, #2]
100034c6:	e657      	b.n	10003178 <tud_task_ext+0x40c>
100034c8:	4655      	mov	r5, sl
100034ca:	e7fa      	b.n	100034c2 <tud_task_ext+0x756>
100034cc:	f7fe fea0 	bl	10002210 <tud_descriptor_bos_cb>
100034d0:	1e02      	subs	r2, r0, #0
100034d2:	d100      	bne.n	100034d6 <tud_task_ext+0x76a>
100034d4:	e5cc      	b.n	10003070 <tud_task_ext+0x304>
100034d6:	78d3      	ldrb	r3, [r2, #3]
100034d8:	7891      	ldrb	r1, [r2, #2]
100034da:	021b      	lsls	r3, r3, #8
100034dc:	430b      	orrs	r3, r1
100034de:	4658      	mov	r0, fp
100034e0:	a90e      	add	r1, sp, #56	@ 0x38
100034e2:	f000 f913 	bl	1000370c <tud_control_xfer>
100034e6:	e5d4      	b.n	10003092 <tud_task_ext+0x326>
100034e8:	4665      	mov	r5, ip
100034ea:	003b      	movs	r3, r7
100034ec:	002a      	movs	r2, r5
100034ee:	0031      	movs	r1, r6
100034f0:	980a      	ldr	r0, [sp, #40]	@ 0x28
100034f2:	f000 feb3 	bl	1000425c <tu_edpt_bind_driver>
100034f6:	46ac      	mov	ip, r5
100034f8:	9b04      	ldr	r3, [sp, #16]
100034fa:	9a03      	ldr	r2, [sp, #12]
100034fc:	781b      	ldrb	r3, [r3, #0]
100034fe:	4466      	add	r6, ip
10003500:	3301      	adds	r3, #1
10003502:	4293      	cmp	r3, r2
10003504:	db00      	blt.n	10003508 <tud_task_ext+0x79c>
10003506:	e66c      	b.n	100031e2 <tud_task_ext+0x476>
10003508:	e7bf      	b.n	1000348a <tud_task_ext+0x71e>
1000350a:	4b17      	ldr	r3, [pc, #92]	@ (10003568 <tud_task_ext+0x7fc>)
1000350c:	6929      	ldr	r1, [r5, #16]
1000350e:	4299      	cmp	r1, r3
10003510:	d1ad      	bne.n	1000346e <tud_task_ext+0x702>
10003512:	9a07      	ldr	r2, [sp, #28]
10003514:	e7ab      	b.n	1000346e <tud_task_ext+0x702>
10003516:	f7ff fb8f 	bl	10002c38 <tud_descriptor_device_qualifier_cb>
1000351a:	1e02      	subs	r2, r0, #0
1000351c:	d100      	bne.n	10003520 <tud_task_ext+0x7b4>
1000351e:	e5a7      	b.n	10003070 <tud_task_ext+0x304>
10003520:	4658      	mov	r0, fp
10003522:	7813      	ldrb	r3, [r2, #0]
10003524:	a90e      	add	r1, sp, #56	@ 0x38
10003526:	f000 f8f1 	bl	1000370c <tud_control_xfer>
1000352a:	e5b2      	b.n	10003092 <tud_task_ext+0x326>
1000352c:	8921      	ldrh	r1, [r4, #8]
1000352e:	f7ff f8c3 	bl	100026b8 <tud_descriptor_string_cb>
10003532:	1e02      	subs	r2, r0, #0
10003534:	d1f4      	bne.n	10003520 <tud_task_ext+0x7b4>
10003536:	e59b      	b.n	10003070 <tud_task_ext+0x304>
10003538:	2a02      	cmp	r2, #2
1000353a:	d00f      	beq.n	1000355c <tud_task_ext+0x7f0>
1000353c:	f7ff fb7e 	bl	10002c3c <tud_descriptor_other_speed_configuration_cb>
10003540:	1e02      	subs	r2, r0, #0
10003542:	d1c8      	bne.n	100034d6 <tud_task_ext+0x76a>
10003544:	e594      	b.n	10003070 <tud_task_ext+0x304>
10003546:	f7ff f8af 	bl	100026a8 <tud_descriptor_device_cb>
1000354a:	1e02      	subs	r2, r0, #0
1000354c:	d100      	bne.n	10003550 <tud_task_ext+0x7e4>
1000354e:	e58f      	b.n	10003070 <tud_task_ext+0x304>
10003550:	2312      	movs	r3, #18
10003552:	4658      	mov	r0, fp
10003554:	a90e      	add	r1, sp, #56	@ 0x38
10003556:	f000 f8d9 	bl	1000370c <tud_control_xfer>
1000355a:	e59a      	b.n	10003092 <tud_task_ext+0x326>
1000355c:	f7ff f8a8 	bl	100026b0 <tud_descriptor_configuration_cb>
10003560:	1e02      	subs	r2, r0, #0
10003562:	d1b8      	bne.n	100034d6 <tud_task_ext+0x76a>
10003564:	e584      	b.n	10003070 <tud_task_ext+0x304>
10003566:	46c0      	nop			@ (mov r8, r8)
10003568:	10003be1 	.word	0x10003be1

1000356c <usbd_open_edpt_pair>:
1000356c:	b5f8      	push	{r3, r4, r5, r6, r7, lr}
1000356e:	4657      	mov	r7, sl
10003570:	464e      	mov	r6, r9
10003572:	46de      	mov	lr, fp
10003574:	4645      	mov	r5, r8
10003576:	000c      	movs	r4, r1
10003578:	b5e0      	push	{r5, r6, r7, lr}
1000357a:	0016      	movs	r6, r2
1000357c:	001f      	movs	r7, r3
1000357e:	2a00      	cmp	r2, #0
10003580:	d03d      	beq.n	100035fe <usbd_open_edpt_pair+0x92>
10003582:	4b20      	ldr	r3, [pc, #128]	@ (10003604 <usbd_open_edpt_pair+0x98>)
10003584:	2500      	movs	r5, #0
10003586:	469a      	mov	sl, r3
10003588:	2370      	movs	r3, #112	@ 0x70
1000358a:	4699      	mov	r9, r3
1000358c:	4b1e      	ldr	r3, [pc, #120]	@ (10003608 <usbd_open_edpt_pair+0x9c>)
1000358e:	469b      	mov	fp, r3
10003590:	e018      	b.n	100035c4 <usbd_open_edpt_pair+0x58>
10003592:	465b      	mov	r3, fp
10003594:	2200      	movs	r2, #0
10003596:	0020      	movs	r0, r4
10003598:	7899      	ldrb	r1, [r3, #2]
1000359a:	f000 fe03 	bl	100041a4 <tu_edpt_validate>
1000359e:	2800      	cmp	r0, #0
100035a0:	d01f      	beq.n	100035e2 <usbd_open_edpt_pair+0x76>
100035a2:	0021      	movs	r1, r4
100035a4:	4640      	mov	r0, r8
100035a6:	f7ff fa31 	bl	10002a0c <dcd_edpt_open>
100035aa:	2800      	cmp	r0, #0
100035ac:	d019      	beq.n	100035e2 <usbd_open_edpt_pair+0x76>
100035ae:	78a3      	ldrb	r3, [r4, #2]
100035b0:	09da      	lsrs	r2, r3, #7
100035b2:	2a01      	cmp	r2, #1
100035b4:	d01c      	beq.n	100035f0 <usbd_open_edpt_pair+0x84>
100035b6:	9a0a      	ldr	r2, [sp, #40]	@ 0x28
100035b8:	3501      	adds	r5, #1
100035ba:	7013      	strb	r3, [r2, #0]
100035bc:	7823      	ldrb	r3, [r4, #0]
100035be:	18e4      	adds	r4, r4, r3
100035c0:	42b5      	cmp	r5, r6
100035c2:	da1c      	bge.n	100035fe <usbd_open_edpt_pair+0x92>
100035c4:	7863      	ldrb	r3, [r4, #1]
100035c6:	2b05      	cmp	r3, #5
100035c8:	d10b      	bne.n	100035e2 <usbd_open_edpt_pair+0x76>
100035ca:	78e3      	ldrb	r3, [r4, #3]
100035cc:	079b      	lsls	r3, r3, #30
100035ce:	0f9b      	lsrs	r3, r3, #30
100035d0:	42bb      	cmp	r3, r7
100035d2:	d106      	bne.n	100035e2 <usbd_open_edpt_pair+0x76>
100035d4:	4653      	mov	r3, sl
100035d6:	464a      	mov	r2, r9
100035d8:	781b      	ldrb	r3, [r3, #0]
100035da:	4698      	mov	r8, r3
100035dc:	78a3      	ldrb	r3, [r4, #2]
100035de:	421a      	tst	r2, r3
100035e0:	d0d7      	beq.n	10003592 <usbd_open_edpt_pair+0x26>
100035e2:	2000      	movs	r0, #0
100035e4:	bcf0      	pop	{r4, r5, r6, r7}
100035e6:	46bb      	mov	fp, r7
100035e8:	46b2      	mov	sl, r6
100035ea:	46a9      	mov	r9, r5
100035ec:	46a0      	mov	r8, r4
100035ee:	bdf8      	pop	{r3, r4, r5, r6, r7, pc}
100035f0:	9a0b      	ldr	r2, [sp, #44]	@ 0x2c
100035f2:	3501      	adds	r5, #1
100035f4:	7013      	strb	r3, [r2, #0]
100035f6:	7823      	ldrb	r3, [r4, #0]
100035f8:	18e4      	adds	r4, r4, r3
100035fa:	42b5      	cmp	r5, r6
100035fc:	dbe2      	blt.n	100035c4 <usbd_open_edpt_pair+0x58>
100035fe:	2001      	movs	r0, #1
10003600:	e7f0      	b.n	100035e4 <usbd_open_edpt_pair+0x78>
10003602:	46c0      	nop			@ (mov r8, r8)
10003604:	20001034 	.word	0x20001034
10003608:	20001734 	.word	0x20001734

1000360c <usbd_edpt_open>:
1000360c:	2270      	movs	r2, #112	@ 0x70
1000360e:	b570      	push	{r4, r5, r6, lr}
10003610:	4b0a      	ldr	r3, [pc, #40]	@ (1000363c <usbd_edpt_open+0x30>)
10003612:	000c      	movs	r4, r1
10003614:	781d      	ldrb	r5, [r3, #0]
10003616:	788b      	ldrb	r3, [r1, #2]
10003618:	421a      	tst	r2, r3
1000361a:	d001      	beq.n	10003620 <usbd_edpt_open+0x14>
1000361c:	2000      	movs	r0, #0
1000361e:	bd70      	pop	{r4, r5, r6, pc}
10003620:	4b07      	ldr	r3, [pc, #28]	@ (10003640 <usbd_edpt_open+0x34>)
10003622:	2200      	movs	r2, #0
10003624:	0020      	movs	r0, r4
10003626:	7899      	ldrb	r1, [r3, #2]
10003628:	f000 fdbc 	bl	100041a4 <tu_edpt_validate>
1000362c:	2800      	cmp	r0, #0
1000362e:	d0f5      	beq.n	1000361c <usbd_edpt_open+0x10>
10003630:	0021      	movs	r1, r4
10003632:	0028      	movs	r0, r5
10003634:	f7ff f9ea 	bl	10002a0c <dcd_edpt_open>
10003638:	e7f1      	b.n	1000361e <usbd_edpt_open+0x12>
1000363a:	46c0      	nop			@ (mov r8, r8)
1000363c:	20001034 	.word	0x20001034
10003640:	20001734 	.word	0x20001734

10003644 <usbd_edpt_claim>:
10003644:	000b      	movs	r3, r1
10003646:	207f      	movs	r0, #127	@ 0x7f
10003648:	b510      	push	{r4, lr}
1000364a:	4018      	ands	r0, r3
1000364c:	09db      	lsrs	r3, r3, #7
1000364e:	3334      	adds	r3, #52	@ 0x34
10003650:	0040      	lsls	r0, r0, #1
10003652:	4a04      	ldr	r2, [pc, #16]	@ (10003664 <usbd_edpt_claim+0x20>)
10003654:	18c0      	adds	r0, r0, r3
10003656:	4b04      	ldr	r3, [pc, #16]	@ (10003668 <usbd_edpt_claim+0x24>)
10003658:	6811      	ldr	r1, [r2, #0]
1000365a:	18c0      	adds	r0, r0, r3
1000365c:	f000 fd5e 	bl	1000411c <tu_edpt_claim>
10003660:	bd10      	pop	{r4, pc}
10003662:	46c0      	nop			@ (mov r8, r8)
10003664:	20001788 	.word	0x20001788
10003668:	20001734 	.word	0x20001734

1000366c <usbd_edpt_release>:
1000366c:	000b      	movs	r3, r1
1000366e:	207f      	movs	r0, #127	@ 0x7f
10003670:	b510      	push	{r4, lr}
10003672:	4018      	ands	r0, r3
10003674:	09db      	lsrs	r3, r3, #7
10003676:	3334      	adds	r3, #52	@ 0x34
10003678:	0040      	lsls	r0, r0, #1
1000367a:	4a04      	ldr	r2, [pc, #16]	@ (1000368c <usbd_edpt_release+0x20>)
1000367c:	18c0      	adds	r0, r0, r3
1000367e:	4b04      	ldr	r3, [pc, #16]	@ (10003690 <usbd_edpt_release+0x24>)
10003680:	6811      	ldr	r1, [r2, #0]
10003682:	18c0      	adds	r0, r0, r3
10003684:	f000 fd72 	bl	1000416c <tu_edpt_release>
10003688:	bd10      	pop	{r4, pc}
1000368a:	46c0      	nop			@ (mov r8, r8)
1000368c:	20001788 	.word	0x20001788
10003690:	20001734 	.word	0x20001734

10003694 <usbd_edpt_xfer>:
10003694:	b570      	push	{r4, r5, r6, lr}
10003696:	247f      	movs	r4, #127	@ 0x7f
10003698:	480f      	ldr	r0, [pc, #60]	@ (100036d8 <usbd_edpt_xfer+0x44>)
1000369a:	400c      	ands	r4, r1
1000369c:	0064      	lsls	r4, r4, #1
1000369e:	1904      	adds	r4, r0, r4
100036a0:	09cd      	lsrs	r5, r1, #7
100036a2:	1964      	adds	r4, r4, r5
100036a4:	3430      	adds	r4, #48	@ 0x30
100036a6:	7920      	ldrb	r0, [r4, #4]
100036a8:	07c0      	lsls	r0, r0, #31
100036aa:	d501      	bpl.n	100036b0 <usbd_edpt_xfer+0x1c>
100036ac:	2000      	movs	r0, #0
100036ae:	bd70      	pop	{r4, r5, r6, pc}
100036b0:	2601      	movs	r6, #1
100036b2:	7925      	ldrb	r5, [r4, #4]
100036b4:	4809      	ldr	r0, [pc, #36]	@ (100036dc <usbd_edpt_xfer+0x48>)
100036b6:	4335      	orrs	r5, r6
100036b8:	7800      	ldrb	r0, [r0, #0]
100036ba:	7125      	strb	r5, [r4, #4]
100036bc:	f7ff fa34 	bl	10002b28 <dcd_edpt_xfer>
100036c0:	2800      	cmp	r0, #0
100036c2:	d1f4      	bne.n	100036ae <usbd_edpt_xfer+0x1a>
100036c4:	2201      	movs	r2, #1
100036c6:	7923      	ldrb	r3, [r4, #4]
100036c8:	4393      	bics	r3, r2
100036ca:	7123      	strb	r3, [r4, #4]
100036cc:	7923      	ldrb	r3, [r4, #4]
100036ce:	3203      	adds	r2, #3
100036d0:	4393      	bics	r3, r2
100036d2:	7123      	strb	r3, [r4, #4]
100036d4:	e7ea      	b.n	100036ac <usbd_edpt_xfer+0x18>
100036d6:	46c0      	nop			@ (mov r8, r8)
100036d8:	20001734 	.word	0x20001734
100036dc:	20001034 	.word	0x20001034

100036e0 <tud_control_status>:
100036e0:	b570      	push	{r4, r5, r6, lr}
100036e2:	4c09      	ldr	r4, [pc, #36]	@ (10003708 <tud_control_status+0x28>)
100036e4:	0006      	movs	r6, r0
100036e6:	2208      	movs	r2, #8
100036e8:	0020      	movs	r0, r4
100036ea:	000d      	movs	r5, r1
100036ec:	f7fe fbaa 	bl	10001e44 <__wrap___aeabi_memcpy>
100036f0:	2300      	movs	r3, #0
100036f2:	2180      	movs	r1, #128	@ 0x80
100036f4:	60e3      	str	r3, [r4, #12]
100036f6:	60a3      	str	r3, [r4, #8]
100036f8:	782b      	ldrb	r3, [r5, #0]
100036fa:	0030      	movs	r0, r6
100036fc:	4399      	bics	r1, r3
100036fe:	2200      	movs	r2, #0
10003700:	2300      	movs	r3, #0
10003702:	f7ff ffc7 	bl	10003694 <usbd_edpt_xfer>
10003706:	bd70      	pop	{r4, r5, r6, pc}
10003708:	20001714 	.word	0x20001714

1000370c <tud_control_xfer>:
1000370c:	b5f8      	push	{r3, r4, r5, r6, r7, lr}
1000370e:	46ce      	mov	lr, r9
10003710:	4647      	mov	r7, r8
10003712:	4690      	mov	r8, r2
10003714:	4e26      	ldr	r6, [pc, #152]	@ (100037b0 <tud_control_xfer+0xa4>)
10003716:	b580      	push	{r7, lr}
10003718:	4681      	mov	r9, r0
1000371a:	2208      	movs	r2, #8
1000371c:	0030      	movs	r0, r6
1000371e:	000d      	movs	r5, r1
10003720:	001f      	movs	r7, r3
10003722:	f7fe fb8f 	bl	10001e44 <__wrap___aeabi_memcpy>
10003726:	4643      	mov	r3, r8
10003728:	60b3      	str	r3, [r6, #8]
1000372a:	2300      	movs	r3, #0
1000372c:	81f3      	strh	r3, [r6, #14]
1000372e:	79ec      	ldrb	r4, [r5, #7]
10003730:	79ab      	ldrb	r3, [r5, #6]
10003732:	0224      	lsls	r4, r4, #8
10003734:	431c      	orrs	r4, r3
10003736:	1c23      	adds	r3, r4, #0
10003738:	42bc      	cmp	r4, r7
1000373a:	d900      	bls.n	1000373e <tud_control_xfer+0x32>
1000373c:	1c3b      	adds	r3, r7, #0
1000373e:	b29f      	uxth	r7, r3
10003740:	81b3      	strh	r3, [r6, #12]
10003742:	2c00      	cmp	r4, #0
10003744:	d00e      	beq.n	10003764 <tud_control_xfer+0x58>
10003746:	2f00      	cmp	r7, #0
10003748:	d018      	beq.n	1000377c <tud_control_xfer+0x70>
1000374a:	4643      	mov	r3, r8
1000374c:	2b00      	cmp	r3, #0
1000374e:	d02c      	beq.n	100037aa <tud_control_xfer+0x9e>
10003750:	1c3b      	adds	r3, r7, #0
10003752:	2f40      	cmp	r7, #64	@ 0x40
10003754:	d81b      	bhi.n	1000378e <tud_control_xfer+0x82>
10003756:	b29f      	uxth	r7, r3
10003758:	7833      	ldrb	r3, [r6, #0]
1000375a:	2b7f      	cmp	r3, #127	@ 0x7f
1000375c:	d81c      	bhi.n	10003798 <tud_control_xfer+0x8c>
1000375e:	2100      	movs	r1, #0
10003760:	4a14      	ldr	r2, [pc, #80]	@ (100037b4 <tud_control_xfer+0xa8>)
10003762:	e00f      	b.n	10003784 <tud_control_xfer+0x78>
10003764:	2180      	movs	r1, #128	@ 0x80
10003766:	782b      	ldrb	r3, [r5, #0]
10003768:	2200      	movs	r2, #0
1000376a:	4399      	bics	r1, r3
1000376c:	4648      	mov	r0, r9
1000376e:	2300      	movs	r3, #0
10003770:	f7ff ff90 	bl	10003694 <usbd_edpt_xfer>
10003774:	bcc0      	pop	{r6, r7}
10003776:	46b9      	mov	r9, r7
10003778:	46b0      	mov	r8, r6
1000377a:	bdf8      	pop	{r3, r4, r5, r6, r7, pc}
1000377c:	237f      	movs	r3, #127	@ 0x7f
1000377e:	2200      	movs	r2, #0
10003780:	7831      	ldrb	r1, [r6, #0]
10003782:	4399      	bics	r1, r3
10003784:	003b      	movs	r3, r7
10003786:	4648      	mov	r0, r9
10003788:	f7ff ff84 	bl	10003694 <usbd_edpt_xfer>
1000378c:	e7f2      	b.n	10003774 <tud_control_xfer+0x68>
1000378e:	2340      	movs	r3, #64	@ 0x40
10003790:	b29f      	uxth	r7, r3
10003792:	7833      	ldrb	r3, [r6, #0]
10003794:	2b7f      	cmp	r3, #127	@ 0x7f
10003796:	d9e2      	bls.n	1000375e <tud_control_xfer+0x52>
10003798:	4c06      	ldr	r4, [pc, #24]	@ (100037b4 <tud_control_xfer+0xa8>)
1000379a:	003a      	movs	r2, r7
1000379c:	4641      	mov	r1, r8
1000379e:	0020      	movs	r0, r4
100037a0:	f7fe fb50 	bl	10001e44 <__wrap___aeabi_memcpy>
100037a4:	2180      	movs	r1, #128	@ 0x80
100037a6:	0022      	movs	r2, r4
100037a8:	e7ec      	b.n	10003784 <tud_control_xfer+0x78>
100037aa:	2000      	movs	r0, #0
100037ac:	e7e2      	b.n	10003774 <tud_control_xfer+0x68>
100037ae:	46c0      	nop			@ (mov r8, r8)
100037b0:	20001714 	.word	0x20001714
100037b4:	200016d4 	.word	0x200016d4

100037b8 <usbd_control_reset>:
100037b8:	b510      	push	{r4, lr}
100037ba:	2214      	movs	r2, #20
100037bc:	2100      	movs	r1, #0
100037be:	4802      	ldr	r0, [pc, #8]	@ (100037c8 <usbd_control_reset+0x10>)
100037c0:	f7fe fb3a 	bl	10001e38 <__wrap_memset>
100037c4:	bd10      	pop	{r4, pc}
100037c6:	46c0      	nop			@ (mov r8, r8)
100037c8:	20001714 	.word	0x20001714

100037cc <usbd_control_set_complete_callback>:
100037cc:	4b01      	ldr	r3, [pc, #4]	@ (100037d4 <usbd_control_set_complete_callback+0x8>)
100037ce:	6118      	str	r0, [r3, #16]
100037d0:	4770      	bx	lr
100037d2:	46c0      	nop			@ (mov r8, r8)
100037d4:	20001714 	.word	0x20001714

100037d8 <usbd_control_set_request>:
100037d8:	b510      	push	{r4, lr}
100037da:	4c05      	ldr	r4, [pc, #20]	@ (100037f0 <usbd_control_set_request+0x18>)
100037dc:	0001      	movs	r1, r0
100037de:	2208      	movs	r2, #8
100037e0:	0020      	movs	r0, r4
100037e2:	f7fe fb2f 	bl	10001e44 <__wrap___aeabi_memcpy>
100037e6:	2300      	movs	r3, #0
100037e8:	60a3      	str	r3, [r4, #8]
100037ea:	60e3      	str	r3, [r4, #12]
100037ec:	bd10      	pop	{r4, pc}
100037ee:	46c0      	nop			@ (mov r8, r8)
100037f0:	20001714 	.word	0x20001714

100037f4 <usbd_control_xfer_cb>:
100037f4:	b570      	push	{r4, r5, r6, lr}
100037f6:	4c38      	ldr	r4, [pc, #224]	@ (100038d8 <usbd_control_xfer_cb+0xe4>)
100037f8:	001d      	movs	r5, r3
100037fa:	7823      	ldrb	r3, [r4, #0]
100037fc:	0006      	movs	r6, r0
100037fe:	09da      	lsrs	r2, r3, #7
10003800:	09c9      	lsrs	r1, r1, #7
10003802:	428a      	cmp	r2, r1
10003804:	d010      	beq.n	10003828 <usbd_control_xfer_cb+0x34>
10003806:	2000      	movs	r0, #0
10003808:	2d00      	cmp	r5, #0
1000380a:	d000      	beq.n	1000380e <usbd_control_xfer_cb+0x1a>
1000380c:	bd70      	pop	{r4, r5, r6, pc}
1000380e:	0021      	movs	r1, r4
10003810:	0030      	movs	r0, r6
10003812:	f7ff f8ed 	bl	100029f0 <dcd_edpt0_status_complete>
10003816:	6923      	ldr	r3, [r4, #16]
10003818:	2b00      	cmp	r3, #0
1000381a:	d003      	beq.n	10003824 <usbd_control_xfer_cb+0x30>
1000381c:	0022      	movs	r2, r4
1000381e:	2103      	movs	r1, #3
10003820:	0030      	movs	r0, r6
10003822:	4798      	blx	r3
10003824:	2001      	movs	r0, #1
10003826:	e7f1      	b.n	1000380c <usbd_control_xfer_cb+0x18>
10003828:	68a0      	ldr	r0, [r4, #8]
1000382a:	2b7f      	cmp	r3, #127	@ 0x7f
1000382c:	d805      	bhi.n	1000383a <usbd_control_xfer_cb+0x46>
1000382e:	2800      	cmp	r0, #0
10003830:	d034      	beq.n	1000389c <usbd_control_xfer_cb+0xa8>
10003832:	002a      	movs	r2, r5
10003834:	4929      	ldr	r1, [pc, #164]	@ (100038dc <usbd_control_xfer_cb+0xe8>)
10003836:	f7fe fb05 	bl	10001e44 <__wrap___aeabi_memcpy>
1000383a:	89e2      	ldrh	r2, [r4, #14]
1000383c:	68a1      	ldr	r1, [r4, #8]
1000383e:	1952      	adds	r2, r2, r5
10003840:	88e3      	ldrh	r3, [r4, #6]
10003842:	b292      	uxth	r2, r2
10003844:	1949      	adds	r1, r1, r5
10003846:	81e2      	strh	r2, [r4, #14]
10003848:	60a1      	str	r1, [r4, #8]
1000384a:	4293      	cmp	r3, r2
1000384c:	d014      	beq.n	10003878 <usbd_control_xfer_cb+0x84>
1000384e:	2d3f      	cmp	r5, #63	@ 0x3f
10003850:	d912      	bls.n	10003878 <usbd_control_xfer_cb+0x84>
10003852:	89a3      	ldrh	r3, [r4, #12]
10003854:	1a98      	subs	r0, r3, r2
10003856:	1c05      	adds	r5, r0, #0
10003858:	b280      	uxth	r0, r0
1000385a:	2840      	cmp	r0, #64	@ 0x40
1000385c:	d82a      	bhi.n	100038b4 <usbd_control_xfer_cb+0xc0>
1000385e:	7820      	ldrb	r0, [r4, #0]
10003860:	b2ad      	uxth	r5, r5
10003862:	287f      	cmp	r0, #127	@ 0x7f
10003864:	d828      	bhi.n	100038b8 <usbd_control_xfer_cb+0xc4>
10003866:	2100      	movs	r1, #0
10003868:	429a      	cmp	r2, r3
1000386a:	d032      	beq.n	100038d2 <usbd_control_xfer_cb+0xde>
1000386c:	4a1b      	ldr	r2, [pc, #108]	@ (100038dc <usbd_control_xfer_cb+0xe8>)
1000386e:	002b      	movs	r3, r5
10003870:	0030      	movs	r0, r6
10003872:	f7ff ff0f 	bl	10003694 <usbd_edpt_xfer>
10003876:	e7c9      	b.n	1000380c <usbd_control_xfer_cb+0x18>
10003878:	6923      	ldr	r3, [r4, #16]
1000387a:	2b00      	cmp	r3, #0
1000387c:	d005      	beq.n	1000388a <usbd_control_xfer_cb+0x96>
1000387e:	0022      	movs	r2, r4
10003880:	2102      	movs	r1, #2
10003882:	0030      	movs	r0, r6
10003884:	4798      	blx	r3
10003886:	2800      	cmp	r0, #0
10003888:	d00a      	beq.n	100038a0 <usbd_control_xfer_cb+0xac>
1000388a:	2180      	movs	r1, #128	@ 0x80
1000388c:	7823      	ldrb	r3, [r4, #0]
1000388e:	2200      	movs	r2, #0
10003890:	4399      	bics	r1, r3
10003892:	0030      	movs	r0, r6
10003894:	2300      	movs	r3, #0
10003896:	f7ff fefd 	bl	10003694 <usbd_edpt_xfer>
1000389a:	e7b7      	b.n	1000380c <usbd_control_xfer_cb+0x18>
1000389c:	2000      	movs	r0, #0
1000389e:	e7b5      	b.n	1000380c <usbd_control_xfer_cb+0x18>
100038a0:	2100      	movs	r1, #0
100038a2:	0030      	movs	r0, r6
100038a4:	f7ff f952 	bl	10002b4c <dcd_edpt_stall>
100038a8:	0030      	movs	r0, r6
100038aa:	2180      	movs	r1, #128	@ 0x80
100038ac:	f7ff f94e 	bl	10002b4c <dcd_edpt_stall>
100038b0:	2001      	movs	r0, #1
100038b2:	e7ab      	b.n	1000380c <usbd_control_xfer_cb+0x18>
100038b4:	2540      	movs	r5, #64	@ 0x40
100038b6:	e7d2      	b.n	1000385e <usbd_control_xfer_cb+0x6a>
100038b8:	429a      	cmp	r2, r3
100038ba:	d007      	beq.n	100038cc <usbd_control_xfer_cb+0xd8>
100038bc:	4c07      	ldr	r4, [pc, #28]	@ (100038dc <usbd_control_xfer_cb+0xe8>)
100038be:	002a      	movs	r2, r5
100038c0:	0020      	movs	r0, r4
100038c2:	f7fe fabf 	bl	10001e44 <__wrap___aeabi_memcpy>
100038c6:	2180      	movs	r1, #128	@ 0x80
100038c8:	0022      	movs	r2, r4
100038ca:	e7d0      	b.n	1000386e <usbd_control_xfer_cb+0x7a>
100038cc:	2180      	movs	r1, #128	@ 0x80
100038ce:	2200      	movs	r2, #0
100038d0:	e7cd      	b.n	1000386e <usbd_control_xfer_cb+0x7a>
100038d2:	2200      	movs	r2, #0
100038d4:	e7cb      	b.n	1000386e <usbd_control_xfer_cb+0x7a>
100038d6:	46c0      	nop			@ (mov r8, r8)
100038d8:	20001714 	.word	0x20001714
100038dc:	200016d4 	.word	0x200016d4

100038e0 <_prep_out_transaction.isra.0>:
100038e0:	b570      	push	{r4, r5, r6, lr}
100038e2:	0005      	movs	r5, r0
100038e4:	f7ff f9b4 	bl	10002c50 <tud_mounted>
100038e8:	2800      	cmp	r0, #0
100038ea:	d100      	bne.n	100038ee <_prep_out_transaction.isra.0+0xe>
100038ec:	bd70      	pop	{r4, r5, r6, pc}
100038ee:	f7ff f9b7 	bl	10002c60 <tud_suspended>
100038f2:	2800      	cmp	r0, #0
100038f4:	d1fa      	bne.n	100038ec <_prep_out_transaction.isra.0+0xc>
100038f6:	23c8      	movs	r3, #200	@ 0xc8
100038f8:	436b      	muls	r3, r5
100038fa:	4c12      	ldr	r4, [pc, #72]	@ (10003944 <_prep_out_transaction.isra.0+0x64>)
100038fc:	18e6      	adds	r6, r4, r3
100038fe:	78f1      	ldrb	r1, [r6, #3]
10003900:	2900      	cmp	r1, #0
10003902:	d0f3      	beq.n	100038ec <_prep_out_transaction.isra.0+0xc>
10003904:	3310      	adds	r3, #16
10003906:	191c      	adds	r4, r3, r4
10003908:	0020      	movs	r0, r4
1000390a:	f000 fe21 	bl	10004550 <tu_fifo_remaining>
1000390e:	283f      	cmp	r0, #63	@ 0x3f
10003910:	d9ec      	bls.n	100038ec <_prep_out_transaction.isra.0+0xc>
10003912:	2000      	movs	r0, #0
10003914:	78f1      	ldrb	r1, [r6, #3]
10003916:	f7ff fe95 	bl	10003644 <usbd_edpt_claim>
1000391a:	2800      	cmp	r0, #0
1000391c:	d0e6      	beq.n	100038ec <_prep_out_transaction.isra.0+0xc>
1000391e:	0020      	movs	r0, r4
10003920:	f000 fe16 	bl	10004550 <tu_fifo_remaining>
10003924:	283f      	cmp	r0, #63	@ 0x3f
10003926:	d908      	bls.n	1000393a <_prep_out_transaction.isra.0+0x5a>
10003928:	4b07      	ldr	r3, [pc, #28]	@ (10003948 <_prep_out_transaction.isra.0+0x68>)
1000392a:	01ea      	lsls	r2, r5, #7
1000392c:	18d2      	adds	r2, r2, r3
1000392e:	78f1      	ldrb	r1, [r6, #3]
10003930:	2340      	movs	r3, #64	@ 0x40
10003932:	2000      	movs	r0, #0
10003934:	f7ff feae 	bl	10003694 <usbd_edpt_xfer>
10003938:	e7d8      	b.n	100038ec <_prep_out_transaction.isra.0+0xc>
1000393a:	78f1      	ldrb	r1, [r6, #3]
1000393c:	2000      	movs	r0, #0
1000393e:	f7ff fe95 	bl	1000366c <usbd_edpt_release>
10003942:	e7d3      	b.n	100038ec <_prep_out_transaction.isra.0+0xc>
10003944:	2000160c 	.word	0x2000160c
10003948:	2000158c 	.word	0x2000158c

1000394c <tud_cdc_n_connected>:
1000394c:	b510      	push	{r4, lr}
1000394e:	0004      	movs	r4, r0
10003950:	f7ff f97e 	bl	10002c50 <tud_mounted>
10003954:	2800      	cmp	r0, #0
10003956:	d101      	bne.n	1000395c <tud_cdc_n_connected+0x10>
10003958:	2000      	movs	r0, #0
1000395a:	bd10      	pop	{r4, pc}
1000395c:	f7ff f980 	bl	10002c60 <tud_suspended>
10003960:	2800      	cmp	r0, #0
10003962:	d1f9      	bne.n	10003958 <tud_cdc_n_connected+0xc>
10003964:	22c8      	movs	r2, #200	@ 0xc8
10003966:	4362      	muls	r2, r4
10003968:	4b02      	ldr	r3, [pc, #8]	@ (10003974 <tud_cdc_n_connected+0x28>)
1000396a:	3001      	adds	r0, #1
1000396c:	189b      	adds	r3, r3, r2
1000396e:	791b      	ldrb	r3, [r3, #4]
10003970:	4018      	ands	r0, r3
10003972:	e7f2      	b.n	1000395a <tud_cdc_n_connected+0xe>
10003974:	2000160c 	.word	0x2000160c

10003978 <tud_cdc_n_available>:
10003978:	23c8      	movs	r3, #200	@ 0xc8
1000397a:	b510      	push	{r4, lr}
1000397c:	4343      	muls	r3, r0
1000397e:	4802      	ldr	r0, [pc, #8]	@ (10003988 <tud_cdc_n_available+0x10>)
10003980:	1818      	adds	r0, r3, r0
10003982:	f000 fdc7 	bl	10004514 <tu_fifo_count>
10003986:	bd10      	pop	{r4, pc}
10003988:	2000161c 	.word	0x2000161c

1000398c <tud_cdc_n_read>:
1000398c:	b5f0      	push	{r4, r5, r6, r7, lr}
1000398e:	24c8      	movs	r4, #200	@ 0xc8
10003990:	46c6      	mov	lr, r8
10003992:	2380      	movs	r3, #128	@ 0x80
10003994:	4344      	muls	r4, r0
10003996:	4f1f      	ldr	r7, [pc, #124]	@ (10003a14 <tud_cdc_n_read+0x88>)
10003998:	3410      	adds	r4, #16
1000399a:	0005      	movs	r5, r0
1000399c:	b500      	push	{lr}
1000399e:	193c      	adds	r4, r7, r4
100039a0:	025b      	lsls	r3, r3, #9
100039a2:	429a      	cmp	r2, r3
100039a4:	d300      	bcc.n	100039a8 <tud_cdc_n_read+0x1c>
100039a6:	4a1c      	ldr	r2, [pc, #112]	@ (10003a18 <tud_cdc_n_read+0x8c>)
100039a8:	0020      	movs	r0, r4
100039aa:	b292      	uxth	r2, r2
100039ac:	f000 fe34 	bl	10004618 <tu_fifo_read_n>
100039b0:	4680      	mov	r8, r0
100039b2:	f7ff f94d 	bl	10002c50 <tud_mounted>
100039b6:	2800      	cmp	r0, #0
100039b8:	d103      	bne.n	100039c2 <tud_cdc_n_read+0x36>
100039ba:	4640      	mov	r0, r8
100039bc:	bc80      	pop	{r7}
100039be:	46b8      	mov	r8, r7
100039c0:	bdf0      	pop	{r4, r5, r6, r7, pc}
100039c2:	f7ff f94d 	bl	10002c60 <tud_suspended>
100039c6:	2800      	cmp	r0, #0
100039c8:	d1f7      	bne.n	100039ba <tud_cdc_n_read+0x2e>
100039ca:	26c8      	movs	r6, #200	@ 0xc8
100039cc:	436e      	muls	r6, r5
100039ce:	19be      	adds	r6, r7, r6
100039d0:	78f3      	ldrb	r3, [r6, #3]
100039d2:	2b00      	cmp	r3, #0
100039d4:	d0f1      	beq.n	100039ba <tud_cdc_n_read+0x2e>
100039d6:	0020      	movs	r0, r4
100039d8:	f000 fdba 	bl	10004550 <tu_fifo_remaining>
100039dc:	283f      	cmp	r0, #63	@ 0x3f
100039de:	d9ec      	bls.n	100039ba <tud_cdc_n_read+0x2e>
100039e0:	2000      	movs	r0, #0
100039e2:	78f1      	ldrb	r1, [r6, #3]
100039e4:	f7ff fe2e 	bl	10003644 <usbd_edpt_claim>
100039e8:	2800      	cmp	r0, #0
100039ea:	d0e6      	beq.n	100039ba <tud_cdc_n_read+0x2e>
100039ec:	0020      	movs	r0, r4
100039ee:	f000 fdaf 	bl	10004550 <tu_fifo_remaining>
100039f2:	283f      	cmp	r0, #63	@ 0x3f
100039f4:	d908      	bls.n	10003a08 <tud_cdc_n_read+0x7c>
100039f6:	4b09      	ldr	r3, [pc, #36]	@ (10003a1c <tud_cdc_n_read+0x90>)
100039f8:	01ea      	lsls	r2, r5, #7
100039fa:	18d2      	adds	r2, r2, r3
100039fc:	78f1      	ldrb	r1, [r6, #3]
100039fe:	2340      	movs	r3, #64	@ 0x40
10003a00:	2000      	movs	r0, #0
10003a02:	f7ff fe47 	bl	10003694 <usbd_edpt_xfer>
10003a06:	e7d8      	b.n	100039ba <tud_cdc_n_read+0x2e>
10003a08:	78f1      	ldrb	r1, [r6, #3]
10003a0a:	2000      	movs	r0, #0
10003a0c:	f7ff fe2e 	bl	1000366c <usbd_edpt_release>
10003a10:	e7d3      	b.n	100039ba <tud_cdc_n_read+0x2e>
10003a12:	46c0      	nop			@ (mov r8, r8)
10003a14:	2000160c 	.word	0x2000160c
10003a18:	0000ffff 	.word	0x0000ffff
10003a1c:	2000158c 	.word	0x2000158c

10003a20 <tud_cdc_n_write_flush>:
10003a20:	b5f8      	push	{r3, r4, r5, r6, r7, lr}
10003a22:	0006      	movs	r6, r0
10003a24:	f7ff f914 	bl	10002c50 <tud_mounted>
10003a28:	2800      	cmp	r0, #0
10003a2a:	d101      	bne.n	10003a30 <tud_cdc_n_write_flush+0x10>
10003a2c:	2000      	movs	r0, #0
10003a2e:	bdf8      	pop	{r3, r4, r5, r6, r7, pc}
10003a30:	f7ff f916 	bl	10002c60 <tud_suspended>
10003a34:	2800      	cmp	r0, #0
10003a36:	d1f9      	bne.n	10003a2c <tud_cdc_n_write_flush+0xc>
10003a38:	24c8      	movs	r4, #200	@ 0xc8
10003a3a:	4374      	muls	r4, r6
10003a3c:	0025      	movs	r5, r4
10003a3e:	4f13      	ldr	r7, [pc, #76]	@ (10003a8c <tud_cdc_n_write_flush+0x6c>)
10003a40:	3524      	adds	r5, #36	@ 0x24
10003a42:	19ed      	adds	r5, r5, r7
10003a44:	0028      	movs	r0, r5
10003a46:	f000 fd65 	bl	10004514 <tu_fifo_count>
10003a4a:	2800      	cmp	r0, #0
10003a4c:	d0ee      	beq.n	10003a2c <tud_cdc_n_write_flush+0xc>
10003a4e:	193f      	adds	r7, r7, r4
10003a50:	2000      	movs	r0, #0
10003a52:	78b9      	ldrb	r1, [r7, #2]
10003a54:	f7ff fdf6 	bl	10003644 <usbd_edpt_claim>
10003a58:	2800      	cmp	r0, #0
10003a5a:	d0e7      	beq.n	10003a2c <tud_cdc_n_write_flush+0xc>
10003a5c:	4b0c      	ldr	r3, [pc, #48]	@ (10003a90 <tud_cdc_n_write_flush+0x70>)
10003a5e:	01f4      	lsls	r4, r6, #7
10003a60:	18e4      	adds	r4, r4, r3
10003a62:	0021      	movs	r1, r4
10003a64:	0028      	movs	r0, r5
10003a66:	2240      	movs	r2, #64	@ 0x40
10003a68:	f000 fdd6 	bl	10004618 <tu_fifo_read_n>
10003a6c:	78b9      	ldrb	r1, [r7, #2]
10003a6e:	1e05      	subs	r5, r0, #0
10003a70:	d008      	beq.n	10003a84 <tud_cdc_n_write_flush+0x64>
10003a72:	0003      	movs	r3, r0
10003a74:	0022      	movs	r2, r4
10003a76:	2000      	movs	r0, #0
10003a78:	f7ff fe0c 	bl	10003694 <usbd_edpt_xfer>
10003a7c:	2800      	cmp	r0, #0
10003a7e:	d0d5      	beq.n	10003a2c <tud_cdc_n_write_flush+0xc>
10003a80:	0028      	movs	r0, r5
10003a82:	e7d4      	b.n	10003a2e <tud_cdc_n_write_flush+0xe>
10003a84:	2000      	movs	r0, #0
10003a86:	f7ff fdf1 	bl	1000366c <usbd_edpt_release>
10003a8a:	e7cf      	b.n	10003a2c <tud_cdc_n_write_flush+0xc>
10003a8c:	2000160c 	.word	0x2000160c
10003a90:	200015cc 	.word	0x200015cc

10003a94 <tud_cdc_n_write>:
10003a94:	b570      	push	{r4, r5, r6, lr}
10003a96:	24c8      	movs	r4, #200	@ 0xc8
10003a98:	4344      	muls	r4, r0
10003a9a:	4b0c      	ldr	r3, [pc, #48]	@ (10003acc <tud_cdc_n_write+0x38>)
10003a9c:	0005      	movs	r5, r0
10003a9e:	18e4      	adds	r4, r4, r3
10003aa0:	2380      	movs	r3, #128	@ 0x80
10003aa2:	025b      	lsls	r3, r3, #9
10003aa4:	429a      	cmp	r2, r3
10003aa6:	d300      	bcc.n	10003aaa <tud_cdc_n_write+0x16>
10003aa8:	4a09      	ldr	r2, [pc, #36]	@ (10003ad0 <tud_cdc_n_write+0x3c>)
10003aaa:	0020      	movs	r0, r4
10003aac:	b292      	uxth	r2, r2
10003aae:	f000 fe7b 	bl	100047a8 <tu_fifo_write_n>
10003ab2:	0006      	movs	r6, r0
10003ab4:	0020      	movs	r0, r4
10003ab6:	f000 fd2d 	bl	10004514 <tu_fifo_count>
10003aba:	283f      	cmp	r0, #63	@ 0x3f
10003abc:	d801      	bhi.n	10003ac2 <tud_cdc_n_write+0x2e>
10003abe:	0030      	movs	r0, r6
10003ac0:	bd70      	pop	{r4, r5, r6, pc}
10003ac2:	0028      	movs	r0, r5
10003ac4:	f7ff ffac 	bl	10003a20 <tud_cdc_n_write_flush>
10003ac8:	e7f9      	b.n	10003abe <tud_cdc_n_write+0x2a>
10003aca:	46c0      	nop			@ (mov r8, r8)
10003acc:	20001630 	.word	0x20001630
10003ad0:	0000ffff 	.word	0x0000ffff

10003ad4 <tud_cdc_n_write_available>:
10003ad4:	23c8      	movs	r3, #200	@ 0xc8
10003ad6:	b510      	push	{r4, lr}
10003ad8:	4343      	muls	r3, r0
10003ada:	4802      	ldr	r0, [pc, #8]	@ (10003ae4 <tud_cdc_n_write_available+0x10>)
10003adc:	1818      	adds	r0, r3, r0
10003ade:	f000 fd37 	bl	10004550 <tu_fifo_remaining>
10003ae2:	bd10      	pop	{r4, pc}
10003ae4:	20001630 	.word	0x20001630

10003ae8 <cdcd_init>:
10003ae8:	b5f0      	push	{r4, r5, r6, r7, lr}
10003aea:	4c1a      	ldr	r4, [pc, #104]	@ (10003b54 <cdcd_init+0x6c>)
10003aec:	b083      	sub	sp, #12
10003aee:	22c8      	movs	r2, #200	@ 0xc8
10003af0:	2100      	movs	r1, #0
10003af2:	0020      	movs	r0, r4
10003af4:	f7fe f9a0 	bl	10001e38 <__wrap_memset>
10003af8:	23ff      	movs	r3, #255	@ 0xff
10003afa:	7163      	strb	r3, [r4, #5]
10003afc:	23e1      	movs	r3, #225	@ 0xe1
10003afe:	025b      	lsls	r3, r3, #9
10003b00:	2500      	movs	r5, #0
10003b02:	60a3      	str	r3, [r4, #8]
10003b04:	0021      	movs	r1, r4
10003b06:	2308      	movs	r3, #8
10003b08:	0020      	movs	r0, r4
10003b0a:	73a3      	strb	r3, [r4, #14]
10003b0c:	2240      	movs	r2, #64	@ 0x40
10003b0e:	3138      	adds	r1, #56	@ 0x38
10003b10:	9500      	str	r5, [sp, #0]
10003b12:	3b07      	subs	r3, #7
10003b14:	3010      	adds	r0, #16
10003b16:	f000 fcc7 	bl	100044a8 <tu_fifo_config>
10003b1a:	0027      	movs	r7, r4
10003b1c:	0021      	movs	r1, r4
10003b1e:	0020      	movs	r0, r4
10003b20:	0026      	movs	r6, r4
10003b22:	4b0d      	ldr	r3, [pc, #52]	@ (10003b58 <cdcd_init+0x70>)
10003b24:	2240      	movs	r2, #64	@ 0x40
10003b26:	781b      	ldrb	r3, [r3, #0]
10003b28:	3178      	adds	r1, #120	@ 0x78
10003b2a:	075b      	lsls	r3, r3, #29
10003b2c:	0fdb      	lsrs	r3, r3, #31
10003b2e:	9300      	str	r3, [sp, #0]
10003b30:	37b8      	adds	r7, #184	@ 0xb8
10003b32:	2301      	movs	r3, #1
10003b34:	3024      	adds	r0, #36	@ 0x24
10003b36:	f000 fcb7 	bl	100044a8 <tu_fifo_config>
10003b3a:	36c0      	adds	r6, #192	@ 0xc0
10003b3c:	0038      	movs	r0, r7
10003b3e:	f7fc ff4b 	bl	100009d8 <mutex_init>
10003b42:	0030      	movs	r0, r6
10003b44:	f7fc ff48 	bl	100009d8 <mutex_init>
10003b48:	61e5      	str	r5, [r4, #28]
10003b4a:	6227      	str	r7, [r4, #32]
10003b4c:	6326      	str	r6, [r4, #48]	@ 0x30
10003b4e:	6365      	str	r5, [r4, #52]	@ 0x34
10003b50:	b003      	add	sp, #12
10003b52:	bdf0      	pop	{r4, r5, r6, r7, pc}
10003b54:	2000160c 	.word	0x2000160c
10003b58:	20001038 	.word	0x20001038

10003b5c <cdcd_deinit>:
10003b5c:	4b0b      	ldr	r3, [pc, #44]	@ (10003b8c <cdcd_deinit+0x30>)
10003b5e:	6b19      	ldr	r1, [r3, #48]	@ 0x30
10003b60:	2900      	cmp	r1, #0
10003b62:	d00a      	beq.n	10003b7a <cdcd_deinit+0x1e>
10003b64:	6a1a      	ldr	r2, [r3, #32]
10003b66:	2a00      	cmp	r2, #0
10003b68:	d00d      	beq.n	10003b86 <cdcd_deinit+0x2a>
10003b6a:	2200      	movs	r2, #0
10003b6c:	621a      	str	r2, [r3, #32]
10003b6e:	631a      	str	r2, [r3, #48]	@ 0x30
10003b70:	61da      	str	r2, [r3, #28]
10003b72:	2200      	movs	r2, #0
10003b74:	635a      	str	r2, [r3, #52]	@ 0x34
10003b76:	2001      	movs	r0, #1
10003b78:	4770      	bx	lr
10003b7a:	6a1a      	ldr	r2, [r3, #32]
10003b7c:	2a00      	cmp	r2, #0
10003b7e:	d0fa      	beq.n	10003b76 <cdcd_deinit+0x1a>
10003b80:	61d9      	str	r1, [r3, #28]
10003b82:	6219      	str	r1, [r3, #32]
10003b84:	e7f7      	b.n	10003b76 <cdcd_deinit+0x1a>
10003b86:	631a      	str	r2, [r3, #48]	@ 0x30
10003b88:	e7f3      	b.n	10003b72 <cdcd_deinit+0x16>
10003b8a:	46c0      	nop			@ (mov r8, r8)
10003b8c:	2000160c 	.word	0x2000160c

10003b90 <cdcd_reset>:
10003b90:	b570      	push	{r4, r5, r6, lr}
10003b92:	4d10      	ldr	r5, [pc, #64]	@ (10003bd4 <cdcd_reset+0x44>)
10003b94:	2205      	movs	r2, #5
10003b96:	2100      	movs	r1, #0
10003b98:	0028      	movs	r0, r5
10003b9a:	f7fe f94d 	bl	10001e38 <__wrap_memset>
10003b9e:	4c0e      	ldr	r4, [pc, #56]	@ (10003bd8 <cdcd_reset+0x48>)
10003ba0:	7823      	ldrb	r3, [r4, #0]
10003ba2:	07da      	lsls	r2, r3, #31
10003ba4:	d509      	bpl.n	10003bba <cdcd_reset+0x2a>
10003ba6:	4d0d      	ldr	r5, [pc, #52]	@ (10003bdc <cdcd_reset+0x4c>)
10003ba8:	079b      	lsls	r3, r3, #30
10003baa:	d50e      	bpl.n	10003bca <cdcd_reset+0x3a>
10003bac:	7821      	ldrb	r1, [r4, #0]
10003bae:	0028      	movs	r0, r5
10003bb0:	0749      	lsls	r1, r1, #29
10003bb2:	0fc9      	lsrs	r1, r1, #31
10003bb4:	f000 fed4 	bl	10004960 <tu_fifo_set_overwritable>
10003bb8:	bd70      	pop	{r4, r5, r6, pc}
10003bba:	0028      	movs	r0, r5
10003bbc:	3010      	adds	r0, #16
10003bbe:	f000 feaf 	bl	10004920 <tu_fifo_clear>
10003bc2:	7823      	ldrb	r3, [r4, #0]
10003bc4:	4d05      	ldr	r5, [pc, #20]	@ (10003bdc <cdcd_reset+0x4c>)
10003bc6:	079b      	lsls	r3, r3, #30
10003bc8:	d4f0      	bmi.n	10003bac <cdcd_reset+0x1c>
10003bca:	0028      	movs	r0, r5
10003bcc:	f000 fea8 	bl	10004920 <tu_fifo_clear>
10003bd0:	e7ec      	b.n	10003bac <cdcd_reset+0x1c>
10003bd2:	46c0      	nop			@ (mov r8, r8)
10003bd4:	2000160c 	.word	0x2000160c
10003bd8:	20001038 	.word	0x20001038
10003bdc:	20001630 	.word	0x20001630

10003be0 <cdcd_open>:
10003be0:	b5f0      	push	{r4, r5, r6, r7, lr}
10003be2:	794b      	ldrb	r3, [r1, #5]
10003be4:	0006      	movs	r6, r0
10003be6:	b083      	sub	sp, #12
10003be8:	2b02      	cmp	r3, #2
10003bea:	d102      	bne.n	10003bf2 <cdcd_open+0x12>
10003bec:	798b      	ldrb	r3, [r1, #6]
10003bee:	2b02      	cmp	r3, #2
10003bf0:	d003      	beq.n	10003bfa <cdcd_open+0x1a>
10003bf2:	2500      	movs	r5, #0
10003bf4:	0028      	movs	r0, r5
10003bf6:	b003      	add	sp, #12
10003bf8:	bdf0      	pop	{r4, r5, r6, r7, pc}
10003bfa:	4f21      	ldr	r7, [pc, #132]	@ (10003c80 <cdcd_open+0xa0>)
10003bfc:	78bb      	ldrb	r3, [r7, #2]
10003bfe:	2b00      	cmp	r3, #0
10003c00:	d1f7      	bne.n	10003bf2 <cdcd_open+0x12>
10003c02:	788b      	ldrb	r3, [r1, #2]
10003c04:	2509      	movs	r5, #9
10003c06:	703b      	strb	r3, [r7, #0]
10003c08:	780c      	ldrb	r4, [r1, #0]
10003c0a:	190c      	adds	r4, r1, r4
10003c0c:	7863      	ldrb	r3, [r4, #1]
10003c0e:	2b24      	cmp	r3, #36	@ 0x24
10003c10:	d10b      	bne.n	10003c2a <cdcd_open+0x4a>
10003c12:	2a08      	cmp	r2, #8
10003c14:	d802      	bhi.n	10003c1c <cdcd_open+0x3c>
10003c16:	e00f      	b.n	10003c38 <cdcd_open+0x58>
10003c18:	42aa      	cmp	r2, r5
10003c1a:	d30d      	bcc.n	10003c38 <cdcd_open+0x58>
10003c1c:	7823      	ldrb	r3, [r4, #0]
10003c1e:	18e4      	adds	r4, r4, r3
10003c20:	195d      	adds	r5, r3, r5
10003c22:	7863      	ldrb	r3, [r4, #1]
10003c24:	b2ad      	uxth	r5, r5
10003c26:	2b24      	cmp	r3, #36	@ 0x24
10003c28:	d0f6      	beq.n	10003c18 <cdcd_open+0x38>
10003c2a:	2b05      	cmp	r3, #5
10003c2c:	d008      	beq.n	10003c40 <cdcd_open+0x60>
10003c2e:	2b04      	cmp	r3, #4
10003c30:	d102      	bne.n	10003c38 <cdcd_open+0x58>
10003c32:	7963      	ldrb	r3, [r4, #5]
10003c34:	2b0a      	cmp	r3, #10
10003c36:	d011      	beq.n	10003c5c <cdcd_open+0x7c>
10003c38:	2000      	movs	r0, #0
10003c3a:	f7ff fe51 	bl	100038e0 <_prep_out_transaction.isra.0>
10003c3e:	e7d9      	b.n	10003bf4 <cdcd_open+0x14>
10003c40:	0021      	movs	r1, r4
10003c42:	0030      	movs	r0, r6
10003c44:	f7ff fce2 	bl	1000360c <usbd_edpt_open>
10003c48:	2800      	cmp	r0, #0
10003c4a:	d0d2      	beq.n	10003bf2 <cdcd_open+0x12>
10003c4c:	78a3      	ldrb	r3, [r4, #2]
10003c4e:	707b      	strb	r3, [r7, #1]
10003c50:	7823      	ldrb	r3, [r4, #0]
10003c52:	195d      	adds	r5, r3, r5
10003c54:	18e4      	adds	r4, r4, r3
10003c56:	7863      	ldrb	r3, [r4, #1]
10003c58:	b2ad      	uxth	r5, r5
10003c5a:	e7e8      	b.n	10003c2e <cdcd_open+0x4e>
10003c5c:	4b09      	ldr	r3, [pc, #36]	@ (10003c84 <cdcd_open+0xa4>)
10003c5e:	7827      	ldrb	r7, [r4, #0]
10003c60:	9301      	str	r3, [sp, #4]
10003c62:	3301      	adds	r3, #1
10003c64:	9300      	str	r3, [sp, #0]
10003c66:	2202      	movs	r2, #2
10003c68:	2302      	movs	r3, #2
10003c6a:	0030      	movs	r0, r6
10003c6c:	19e1      	adds	r1, r4, r7
10003c6e:	f7ff fc7d 	bl	1000356c <usbd_open_edpt_pair>
10003c72:	2800      	cmp	r0, #0
10003c74:	d0bd      	beq.n	10003bf2 <cdcd_open+0x12>
10003c76:	350e      	adds	r5, #14
10003c78:	19ed      	adds	r5, r5, r7
10003c7a:	b2ad      	uxth	r5, r5
10003c7c:	e7dc      	b.n	10003c38 <cdcd_open+0x58>
10003c7e:	46c0      	nop			@ (mov r8, r8)
10003c80:	2000160c 	.word	0x2000160c
10003c84:	2000160e 	.word	0x2000160e

10003c88 <cdcd_control_xfer_cb>:
10003c88:	b5f8      	push	{r3, r4, r5, r6, r7, lr}
10003c8a:	2360      	movs	r3, #96	@ 0x60
10003c8c:	0014      	movs	r4, r2
10003c8e:	7812      	ldrb	r2, [r2, #0]
10003c90:	0005      	movs	r5, r0
10003c92:	4013      	ands	r3, r2
10003c94:	2000      	movs	r0, #0
10003c96:	2b20      	cmp	r3, #32
10003c98:	d107      	bne.n	10003caa <cdcd_control_xfer_cb+0x22>
10003c9a:	4a35      	ldr	r2, [pc, #212]	@ (10003d70 <cdcd_control_xfer_cb+0xe8>)
10003c9c:	7963      	ldrb	r3, [r4, #5]
10003c9e:	7927      	ldrb	r7, [r4, #4]
10003ca0:	7816      	ldrb	r6, [r2, #0]
10003ca2:	021b      	lsls	r3, r3, #8
10003ca4:	433b      	orrs	r3, r7
10003ca6:	429e      	cmp	r6, r3
10003ca8:	d000      	beq.n	10003cac <cdcd_control_xfer_cb+0x24>
10003caa:	bdf8      	pop	{r3, r4, r5, r6, r7, pc}
10003cac:	7863      	ldrb	r3, [r4, #1]
10003cae:	2b22      	cmp	r3, #34	@ 0x22
10003cb0:	d01a      	beq.n	10003ce8 <cdcd_control_xfer_cb+0x60>
10003cb2:	d807      	bhi.n	10003cc4 <cdcd_control_xfer_cb+0x3c>
10003cb4:	2b20      	cmp	r3, #32
10003cb6:	d038      	beq.n	10003d2a <cdcd_control_xfer_cb+0xa2>
10003cb8:	2b21      	cmp	r3, #33	@ 0x21
10003cba:	d1f6      	bne.n	10003caa <cdcd_control_xfer_cb+0x22>
10003cbc:	2901      	cmp	r1, #1
10003cbe:	d042      	beq.n	10003d46 <cdcd_control_xfer_cb+0xbe>
10003cc0:	2001      	movs	r0, #1
10003cc2:	e7f2      	b.n	10003caa <cdcd_control_xfer_cb+0x22>
10003cc4:	2b23      	cmp	r3, #35	@ 0x23
10003cc6:	d1f0      	bne.n	10003caa <cdcd_control_xfer_cb+0x22>
10003cc8:	2901      	cmp	r1, #1
10003cca:	d044      	beq.n	10003d56 <cdcd_control_xfer_cb+0xce>
10003ccc:	2903      	cmp	r1, #3
10003cce:	d1f7      	bne.n	10003cc0 <cdcd_control_xfer_cb+0x38>
10003cd0:	4b28      	ldr	r3, [pc, #160]	@ (10003d74 <cdcd_control_xfer_cb+0xec>)
10003cd2:	2b00      	cmp	r3, #0
10003cd4:	d0f4      	beq.n	10003cc0 <cdcd_control_xfer_cb+0x38>
10003cd6:	78e1      	ldrb	r1, [r4, #3]
10003cd8:	78a3      	ldrb	r3, [r4, #2]
10003cda:	0209      	lsls	r1, r1, #8
10003cdc:	2000      	movs	r0, #0
10003cde:	4319      	orrs	r1, r3
10003ce0:	e000      	b.n	10003ce4 <cdcd_control_xfer_cb+0x5c>
10003ce2:	bf00      	nop
10003ce4:	2001      	movs	r0, #1
10003ce6:	e7e0      	b.n	10003caa <cdcd_control_xfer_cb+0x22>
10003ce8:	2901      	cmp	r1, #1
10003cea:	d034      	beq.n	10003d56 <cdcd_control_xfer_cb+0xce>
10003cec:	2903      	cmp	r1, #3
10003cee:	d1e7      	bne.n	10003cc0 <cdcd_control_xfer_cb+0x38>
10003cf0:	2501      	movs	r5, #1
10003cf2:	78a3      	ldrb	r3, [r4, #2]
10003cf4:	78e4      	ldrb	r4, [r4, #3]
10003cf6:	0224      	lsls	r4, r4, #8
10003cf8:	431c      	orrs	r4, r3
10003cfa:	4b1f      	ldr	r3, [pc, #124]	@ (10003d78 <cdcd_control_xfer_cb+0xf0>)
10003cfc:	4025      	ands	r5, r4
10003cfe:	781b      	ldrb	r3, [r3, #0]
10003d00:	7114      	strb	r4, [r2, #4]
10003d02:	075b      	lsls	r3, r3, #29
10003d04:	d52d      	bpl.n	10003d62 <cdcd_control_xfer_cb+0xda>
10003d06:	2101      	movs	r1, #1
10003d08:	3224      	adds	r2, #36	@ 0x24
10003d0a:	4069      	eors	r1, r5
10003d0c:	0010      	movs	r0, r2
10003d0e:	b2c9      	uxtb	r1, r1
10003d10:	f000 fe26 	bl	10004960 <tu_fifo_set_overwritable>
10003d14:	4b19      	ldr	r3, [pc, #100]	@ (10003d7c <cdcd_control_xfer_cb+0xf4>)
10003d16:	2b00      	cmp	r3, #0
10003d18:	d0d2      	beq.n	10003cc0 <cdcd_control_xfer_cb+0x38>
10003d1a:	07a2      	lsls	r2, r4, #30
10003d1c:	2000      	movs	r0, #0
10003d1e:	0029      	movs	r1, r5
10003d20:	0fd2      	lsrs	r2, r2, #31
10003d22:	e000      	b.n	10003d26 <cdcd_control_xfer_cb+0x9e>
10003d24:	bf00      	nop
10003d26:	2001      	movs	r0, #1
10003d28:	e7bf      	b.n	10003caa <cdcd_control_xfer_cb+0x22>
10003d2a:	2901      	cmp	r1, #1
10003d2c:	d00b      	beq.n	10003d46 <cdcd_control_xfer_cb+0xbe>
10003d2e:	2903      	cmp	r1, #3
10003d30:	d1c6      	bne.n	10003cc0 <cdcd_control_xfer_cb+0x38>
10003d32:	4b13      	ldr	r3, [pc, #76]	@ (10003d80 <cdcd_control_xfer_cb+0xf8>)
10003d34:	2b00      	cmp	r3, #0
10003d36:	d0c3      	beq.n	10003cc0 <cdcd_control_xfer_cb+0x38>
10003d38:	3208      	adds	r2, #8
10003d3a:	2000      	movs	r0, #0
10003d3c:	0011      	movs	r1, r2
10003d3e:	f7fe fa8b 	bl	10002258 <tud_cdc_line_coding_cb>
10003d42:	2001      	movs	r0, #1
10003d44:	e7b1      	b.n	10003caa <cdcd_control_xfer_cb+0x22>
10003d46:	2307      	movs	r3, #7
10003d48:	0021      	movs	r1, r4
10003d4a:	0028      	movs	r0, r5
10003d4c:	4a0d      	ldr	r2, [pc, #52]	@ (10003d84 <cdcd_control_xfer_cb+0xfc>)
10003d4e:	f7ff fcdd 	bl	1000370c <tud_control_xfer>
10003d52:	2001      	movs	r0, #1
10003d54:	e7a9      	b.n	10003caa <cdcd_control_xfer_cb+0x22>
10003d56:	0021      	movs	r1, r4
10003d58:	0028      	movs	r0, r5
10003d5a:	f7ff fcc1 	bl	100036e0 <tud_control_status>
10003d5e:	2001      	movs	r0, #1
10003d60:	e7a3      	b.n	10003caa <cdcd_control_xfer_cb+0x22>
10003d62:	3224      	adds	r2, #36	@ 0x24
10003d64:	0010      	movs	r0, r2
10003d66:	2100      	movs	r1, #0
10003d68:	f000 fdfa 	bl	10004960 <tu_fifo_set_overwritable>
10003d6c:	e7d2      	b.n	10003d14 <cdcd_control_xfer_cb+0x8c>
10003d6e:	46c0      	nop			@ (mov r8, r8)
10003d70:	2000160c 	.word	0x2000160c
10003d74:	00000000 	.word	0x00000000
10003d78:	20001038 	.word	0x20001038
10003d7c:	00000000 	.word	0x00000000
10003d80:	10002259 	.word	0x10002259
10003d84:	20001614 	.word	0x20001614

10003d88 <cdcd_xfer_cb>:
10003d88:	b5f0      	push	{r4, r5, r6, r7, lr}
10003d8a:	464f      	mov	r7, r9
10003d8c:	4646      	mov	r6, r8
10003d8e:	46d6      	mov	lr, sl
10003d90:	4d36      	ldr	r5, [pc, #216]	@ (10003e6c <cdcd_xfer_cb+0xe4>)
10003d92:	b5c0      	push	{r6, r7, lr}
10003d94:	78ea      	ldrb	r2, [r5, #3]
10003d96:	001f      	movs	r7, r3
10003d98:	4680      	mov	r8, r0
10003d9a:	000c      	movs	r4, r1
10003d9c:	78ab      	ldrb	r3, [r5, #2]
10003d9e:	428a      	cmp	r2, r1
10003da0:	d03a      	beq.n	10003e18 <cdcd_xfer_cb+0x90>
10003da2:	428b      	cmp	r3, r1
10003da4:	d010      	beq.n	10003dc8 <cdcd_xfer_cb+0x40>
10003da6:	2000      	movs	r0, #0
10003da8:	bce0      	pop	{r5, r6, r7}
10003daa:	46ba      	mov	sl, r7
10003dac:	46b1      	mov	r9, r6
10003dae:	46a8      	mov	r8, r5
10003db0:	bdf0      	pop	{r4, r5, r6, r7, pc}
10003db2:	4b2f      	ldr	r3, [pc, #188]	@ (10003e70 <cdcd_xfer_cb+0xe8>)
10003db4:	2b00      	cmp	r3, #0
10003db6:	d004      	beq.n	10003dc2 <cdcd_xfer_cb+0x3a>
10003db8:	482e      	ldr	r0, [pc, #184]	@ (10003e74 <cdcd_xfer_cb+0xec>)
10003dba:	f000 fbc1 	bl	10004540 <tu_fifo_empty>
10003dbe:	2800      	cmp	r0, #0
10003dc0:	d050      	beq.n	10003e64 <cdcd_xfer_cb+0xdc>
10003dc2:	2000      	movs	r0, #0
10003dc4:	f7ff fd8c 	bl	100038e0 <_prep_out_transaction.isra.0>
10003dc8:	78ab      	ldrb	r3, [r5, #2]
10003dca:	42a3      	cmp	r3, r4
10003dcc:	d001      	beq.n	10003dd2 <cdcd_xfer_cb+0x4a>
10003dce:	2001      	movs	r0, #1
10003dd0:	e7ea      	b.n	10003da8 <cdcd_xfer_cb+0x20>
10003dd2:	4b29      	ldr	r3, [pc, #164]	@ (10003e78 <cdcd_xfer_cb+0xf0>)
10003dd4:	2b00      	cmp	r3, #0
10003dd6:	d002      	beq.n	10003dde <cdcd_xfer_cb+0x56>
10003dd8:	2000      	movs	r0, #0
10003dda:	e000      	b.n	10003dde <cdcd_xfer_cb+0x56>
10003ddc:	bf00      	nop
10003dde:	2000      	movs	r0, #0
10003de0:	f7ff fe1e 	bl	10003a20 <tud_cdc_n_write_flush>
10003de4:	2800      	cmp	r0, #0
10003de6:	d1f2      	bne.n	10003dce <cdcd_xfer_cb+0x46>
10003de8:	4c24      	ldr	r4, [pc, #144]	@ (10003e7c <cdcd_xfer_cb+0xf4>)
10003dea:	0020      	movs	r0, r4
10003dec:	f000 fb92 	bl	10004514 <tu_fifo_count>
10003df0:	2800      	cmp	r0, #0
10003df2:	d1ec      	bne.n	10003dce <cdcd_xfer_cb+0x46>
10003df4:	2f00      	cmp	r7, #0
10003df6:	d0ea      	beq.n	10003dce <cdcd_xfer_cb+0x46>
10003df8:	06bf      	lsls	r7, r7, #26
10003dfa:	d1e8      	bne.n	10003dce <cdcd_xfer_cb+0x46>
10003dfc:	3c24      	subs	r4, #36	@ 0x24
10003dfe:	4640      	mov	r0, r8
10003e00:	78a1      	ldrb	r1, [r4, #2]
10003e02:	f7ff fc1f 	bl	10003644 <usbd_edpt_claim>
10003e06:	2800      	cmp	r0, #0
10003e08:	d0e1      	beq.n	10003dce <cdcd_xfer_cb+0x46>
10003e0a:	2300      	movs	r3, #0
10003e0c:	2200      	movs	r2, #0
10003e0e:	4640      	mov	r0, r8
10003e10:	78a1      	ldrb	r1, [r4, #2]
10003e12:	f7ff fc3f 	bl	10003694 <usbd_edpt_xfer>
10003e16:	e7c7      	b.n	10003da8 <cdcd_xfer_cb+0x20>
10003e18:	2310      	movs	r3, #16
10003e1a:	469a      	mov	sl, r3
10003e1c:	4e18      	ldr	r6, [pc, #96]	@ (10003e80 <cdcd_xfer_cb+0xf8>)
10003e1e:	44aa      	add	sl, r5
10003e20:	0031      	movs	r1, r6
10003e22:	4650      	mov	r0, sl
10003e24:	b2ba      	uxth	r2, r7
10003e26:	f000 fcbf 	bl	100047a8 <tu_fifo_write_n>
10003e2a:	4b16      	ldr	r3, [pc, #88]	@ (10003e84 <cdcd_xfer_cb+0xfc>)
10003e2c:	2b00      	cmp	r3, #0
10003e2e:	d0c0      	beq.n	10003db2 <cdcd_xfer_cb+0x2a>
10003e30:	796b      	ldrb	r3, [r5, #5]
10003e32:	2bff      	cmp	r3, #255	@ 0xff
10003e34:	d0bd      	beq.n	10003db2 <cdcd_xfer_cb+0x2a>
10003e36:	2f00      	cmp	r7, #0
10003e38:	d0bb      	beq.n	10003db2 <cdcd_xfer_cb+0x2a>
10003e3a:	19f2      	adds	r2, r6, r7
10003e3c:	4691      	mov	r9, r2
10003e3e:	e003      	b.n	10003e48 <cdcd_xfer_cb+0xc0>
10003e40:	3601      	adds	r6, #1
10003e42:	45b1      	cmp	r9, r6
10003e44:	d0b5      	beq.n	10003db2 <cdcd_xfer_cb+0x2a>
10003e46:	796b      	ldrb	r3, [r5, #5]
10003e48:	7832      	ldrb	r2, [r6, #0]
10003e4a:	429a      	cmp	r2, r3
10003e4c:	d1f8      	bne.n	10003e40 <cdcd_xfer_cb+0xb8>
10003e4e:	4650      	mov	r0, sl
10003e50:	f000 fb76 	bl	10004540 <tu_fifo_empty>
10003e54:	2800      	cmp	r0, #0
10003e56:	d1f3      	bne.n	10003e40 <cdcd_xfer_cb+0xb8>
10003e58:	4653      	mov	r3, sl
10003e5a:	3b10      	subs	r3, #16
10003e5c:	7959      	ldrb	r1, [r3, #5]
10003e5e:	e000      	b.n	10003e62 <cdcd_xfer_cb+0xda>
10003e60:	bf00      	nop
10003e62:	e7ed      	b.n	10003e40 <cdcd_xfer_cb+0xb8>
10003e64:	e000      	b.n	10003e68 <cdcd_xfer_cb+0xe0>
10003e66:	bf00      	nop
10003e68:	e7ab      	b.n	10003dc2 <cdcd_xfer_cb+0x3a>
10003e6a:	46c0      	nop			@ (mov r8, r8)
10003e6c:	2000160c 	.word	0x2000160c
10003e70:	00000000 	.word	0x00000000
10003e74:	2000161c 	.word	0x2000161c
10003e78:	00000000 	.word	0x00000000
10003e7c:	20001630 	.word	0x20001630
10003e80:	2000158c 	.word	0x2000158c
10003e84:	00000000 	.word	0x00000000

10003e88 <vendord_init>:
10003e88:	2293      	movs	r2, #147	@ 0x93
10003e8a:	b5f0      	push	{r4, r5, r6, r7, lr}
10003e8c:	4c13      	ldr	r4, [pc, #76]	@ (10003edc <vendord_init+0x54>)
10003e8e:	b085      	sub	sp, #20
10003e90:	2100      	movs	r1, #0
10003e92:	0020      	movs	r0, r4
10003e94:	0092      	lsls	r2, r2, #2
10003e96:	f7fd ffcf 	bl	10001e38 <__wrap_memset>
10003e9a:	0023      	movs	r3, r4
10003e9c:	0020      	movs	r0, r4
10003e9e:	2680      	movs	r6, #128	@ 0x80
10003ea0:	2740      	movs	r7, #64	@ 0x40
10003ea2:	4d0f      	ldr	r5, [pc, #60]	@ (10003ee0 <vendord_init+0x58>)
10003ea4:	334d      	adds	r3, #77	@ 0x4d
10003ea6:	0076      	lsls	r6, r6, #1
10003ea8:	33ff      	adds	r3, #255	@ 0xff
10003eaa:	3029      	adds	r0, #41	@ 0x29
10003eac:	9502      	str	r5, [sp, #8]
10003eae:	9300      	str	r3, [sp, #0]
10003eb0:	2200      	movs	r2, #0
10003eb2:	2300      	movs	r3, #0
10003eb4:	2100      	movs	r1, #0
10003eb6:	9703      	str	r7, [sp, #12]
10003eb8:	9601      	str	r6, [sp, #4]
10003eba:	30ff      	adds	r0, #255	@ 0xff
10003ebc:	f000 f9e8 	bl	10004290 <tu_edpt_stream_init>
10003ec0:	3540      	adds	r5, #64	@ 0x40
10003ec2:	1d20      	adds	r0, r4, #4
10003ec4:	3428      	adds	r4, #40	@ 0x28
10003ec6:	2300      	movs	r3, #0
10003ec8:	2201      	movs	r2, #1
10003eca:	2100      	movs	r1, #0
10003ecc:	9703      	str	r7, [sp, #12]
10003ece:	9502      	str	r5, [sp, #8]
10003ed0:	9601      	str	r6, [sp, #4]
10003ed2:	9400      	str	r4, [sp, #0]
10003ed4:	f000 f9dc 	bl	10004290 <tu_edpt_stream_init>
10003ed8:	b005      	add	sp, #20
10003eda:	bdf0      	pop	{r4, r5, r6, r7, pc}
10003edc:	200018d0 	.word	0x200018d0
10003ee0:	20001850 	.word	0x20001850

10003ee4 <vendord_deinit>:
10003ee4:	b510      	push	{r4, lr}
10003ee6:	4c05      	ldr	r4, [pc, #20]	@ (10003efc <vendord_deinit+0x18>)
10003ee8:	0020      	movs	r0, r4
10003eea:	f000 fa07 	bl	100042fc <tu_edpt_stream_deinit>
10003eee:	0020      	movs	r0, r4
10003ef0:	3825      	subs	r0, #37	@ 0x25
10003ef2:	38ff      	subs	r0, #255	@ 0xff
10003ef4:	f000 fa02 	bl	100042fc <tu_edpt_stream_deinit>
10003ef8:	2001      	movs	r0, #1
10003efa:	bd10      	pop	{r4, pc}
10003efc:	200019f8 	.word	0x200019f8

10003f00 <vendord_reset>:
10003f00:	b570      	push	{r4, r5, r6, lr}
10003f02:	4c08      	ldr	r4, [pc, #32]	@ (10003f24 <vendord_reset+0x24>)
10003f04:	2500      	movs	r5, #0
10003f06:	0020      	movs	r0, r4
10003f08:	3031      	adds	r0, #49	@ 0x31
10003f0a:	30ff      	adds	r0, #255	@ 0xff
10003f0c:	7025      	strb	r5, [r4, #0]
10003f0e:	f000 fd07 	bl	10004920 <tu_fifo_clear>
10003f12:	0020      	movs	r0, r4
10003f14:	300c      	adds	r0, #12
10003f16:	f000 fd03 	bl	10004920 <tu_fifo_clear>
10003f1a:	232a      	movs	r3, #42	@ 0x2a
10003f1c:	33ff      	adds	r3, #255	@ 0xff
10003f1e:	54e5      	strb	r5, [r4, r3]
10003f20:	7165      	strb	r5, [r4, #5]
10003f22:	bd70      	pop	{r4, r5, r6, pc}
10003f24:	200018d0 	.word	0x200018d0

10003f28 <vendord_open>:
10003f28:	b5f8      	push	{r3, r4, r5, r6, r7, lr}
10003f2a:	46ce      	mov	lr, r9
10003f2c:	4647      	mov	r7, r8
10003f2e:	b580      	push	{r7, lr}
10003f30:	794b      	ldrb	r3, [r1, #5]
10003f32:	0006      	movs	r6, r0
10003f34:	000c      	movs	r4, r1
10003f36:	2bff      	cmp	r3, #255	@ 0xff
10003f38:	d155      	bne.n	10003fe6 <vendord_open+0xbe>
10003f3a:	232a      	movs	r3, #42	@ 0x2a
10003f3c:	4f3c      	ldr	r7, [pc, #240]	@ (10004030 <vendord_open+0x108>)
10003f3e:	33ff      	adds	r3, #255	@ 0xff
10003f40:	5cfb      	ldrb	r3, [r7, r3]
10003f42:	780d      	ldrb	r5, [r1, #0]
10003f44:	2b00      	cmp	r3, #0
10003f46:	d14e      	bne.n	10003fe6 <vendord_open+0xbe>
10003f48:	797b      	ldrb	r3, [r7, #5]
10003f4a:	2b00      	cmp	r3, #0
10003f4c:	d14b      	bne.n	10003fe6 <vendord_open+0xbe>
10003f4e:	4690      	mov	r8, r2
10003f50:	788b      	ldrb	r3, [r1, #2]
10003f52:	4488      	add	r8, r1
10003f54:	194d      	adds	r5, r1, r5
10003f56:	703b      	strb	r3, [r7, #0]
10003f58:	45a8      	cmp	r8, r5
10003f5a:	d90e      	bls.n	10003f7a <vendord_open+0x52>
10003f5c:	782b      	ldrb	r3, [r5, #0]
10003f5e:	18eb      	adds	r3, r5, r3
10003f60:	4598      	cmp	r8, r3
10003f62:	d30a      	bcc.n	10003f7a <vendord_open+0x52>
10003f64:	786b      	ldrb	r3, [r5, #1]
10003f66:	2b04      	cmp	r3, #4
10003f68:	d007      	beq.n	10003f7a <vendord_open+0x52>
10003f6a:	2b0b      	cmp	r3, #11
10003f6c:	d005      	beq.n	10003f7a <vendord_open+0x52>
10003f6e:	2b05      	cmp	r3, #5
10003f70:	d006      	beq.n	10003f80 <vendord_open+0x58>
10003f72:	782b      	ldrb	r3, [r5, #0]
10003f74:	18ed      	adds	r5, r5, r3
10003f76:	45a8      	cmp	r8, r5
10003f78:	d8f0      	bhi.n	10003f5c <vendord_open+0x34>
10003f7a:	1b28      	subs	r0, r5, r4
10003f7c:	b280      	uxth	r0, r0
10003f7e:	e033      	b.n	10003fe8 <vendord_open+0xc0>
10003f80:	0029      	movs	r1, r5
10003f82:	0030      	movs	r0, r6
10003f84:	f7ff fb42 	bl	1000360c <usbd_edpt_open>
10003f88:	2800      	cmp	r0, #0
10003f8a:	d02c      	beq.n	10003fe6 <vendord_open+0xbe>
10003f8c:	78ab      	ldrb	r3, [r5, #2]
10003f8e:	09db      	lsrs	r3, r3, #7
10003f90:	2b01      	cmp	r3, #1
10003f92:	d02d      	beq.n	10003ff0 <vendord_open+0xc8>
10003f94:	232a      	movs	r3, #42	@ 0x2a
10003f96:	33ff      	adds	r3, #255	@ 0xff
10003f98:	4699      	mov	r9, r3
10003f9a:	5cfb      	ldrb	r3, [r7, r3]
10003f9c:	2b00      	cmp	r3, #0
10003f9e:	d1e8      	bne.n	10003f72 <vendord_open+0x4a>
10003fa0:	0038      	movs	r0, r7
10003fa2:	3031      	adds	r0, #49	@ 0x31
10003fa4:	30ff      	adds	r0, #255	@ 0xff
10003fa6:	f000 fcbb 	bl	10004920 <tu_fifo_clear>
10003faa:	464a      	mov	r2, r9
10003fac:	78ab      	ldrb	r3, [r5, #2]
10003fae:	2194      	movs	r1, #148	@ 0x94
10003fb0:	54bb      	strb	r3, [r7, r2]
10003fb2:	796b      	ldrb	r3, [r5, #5]
10003fb4:	792a      	ldrb	r2, [r5, #4]
10003fb6:	021b      	lsls	r3, r3, #8
10003fb8:	4313      	orrs	r3, r2
10003fba:	4a1e      	ldr	r2, [pc, #120]	@ (10004034 <vendord_open+0x10c>)
10003fbc:	055b      	lsls	r3, r3, #21
10003fbe:	4694      	mov	ip, r2
10003fc0:	0d5b      	lsrs	r3, r3, #21
10003fc2:	4463      	add	r3, ip
10003fc4:	425a      	negs	r2, r3
10003fc6:	4153      	adcs	r3, r2
10003fc8:	2002      	movs	r0, #2
10003fca:	0049      	lsls	r1, r1, #1
10003fcc:	5c7a      	ldrb	r2, [r7, r1]
10003fce:	005b      	lsls	r3, r3, #1
10003fd0:	4382      	bics	r2, r0
10003fd2:	4313      	orrs	r3, r2
10003fd4:	547b      	strb	r3, [r7, r1]
10003fd6:	0039      	movs	r1, r7
10003fd8:	3129      	adds	r1, #41	@ 0x29
10003fda:	0030      	movs	r0, r6
10003fdc:	31ff      	adds	r1, #255	@ 0xff
10003fde:	f000 f9f5 	bl	100043cc <tu_edpt_stream_read_xfer>
10003fe2:	2800      	cmp	r0, #0
10003fe4:	d1c5      	bne.n	10003f72 <vendord_open+0x4a>
10003fe6:	2000      	movs	r0, #0
10003fe8:	bcc0      	pop	{r6, r7}
10003fea:	46b9      	mov	r9, r7
10003fec:	46b0      	mov	r8, r6
10003fee:	bdf8      	pop	{r3, r4, r5, r6, r7, pc}
10003ff0:	797b      	ldrb	r3, [r7, #5]
10003ff2:	2b00      	cmp	r3, #0
10003ff4:	d1bd      	bne.n	10003f72 <vendord_open+0x4a>
10003ff6:	0038      	movs	r0, r7
10003ff8:	300c      	adds	r0, #12
10003ffa:	f000 fc91 	bl	10004920 <tu_fifo_clear>
10003ffe:	78ab      	ldrb	r3, [r5, #2]
10004000:	2102      	movs	r1, #2
10004002:	717b      	strb	r3, [r7, #5]
10004004:	796b      	ldrb	r3, [r5, #5]
10004006:	792a      	ldrb	r2, [r5, #4]
10004008:	021b      	lsls	r3, r3, #8
1000400a:	4313      	orrs	r3, r2
1000400c:	4a09      	ldr	r2, [pc, #36]	@ (10004034 <vendord_open+0x10c>)
1000400e:	055b      	lsls	r3, r3, #21
10004010:	4694      	mov	ip, r2
10004012:	0d5b      	lsrs	r3, r3, #21
10004014:	4463      	add	r3, ip
10004016:	425a      	negs	r2, r3
10004018:	4153      	adcs	r3, r2
1000401a:	793a      	ldrb	r2, [r7, #4]
1000401c:	005b      	lsls	r3, r3, #1
1000401e:	438a      	bics	r2, r1
10004020:	4313      	orrs	r3, r2
10004022:	1d39      	adds	r1, r7, #4
10004024:	2000      	movs	r0, #0
10004026:	713b      	strb	r3, [r7, #4]
10004028:	f000 f99e 	bl	10004368 <tu_edpt_stream_write_xfer>
1000402c:	e7a1      	b.n	10003f72 <vendord_open+0x4a>
1000402e:	46c0      	nop			@ (mov r8, r8)
10004030:	200018d0 	.word	0x200018d0
10004034:	fffffe00 	.word	0xfffffe00

10004038 <vendord_xfer_cb>:
10004038:	b570      	push	{r4, r5, r6, lr}
1000403a:	0005      	movs	r5, r0
1000403c:	202a      	movs	r0, #42	@ 0x2a
1000403e:	4c1f      	ldr	r4, [pc, #124]	@ (100040bc <vendord_xfer_cb+0x84>)
10004040:	30ff      	adds	r0, #255	@ 0xff
10004042:	5c20      	ldrb	r0, [r4, r0]
10004044:	001e      	movs	r6, r3
10004046:	7963      	ldrb	r3, [r4, #5]
10004048:	4288      	cmp	r0, r1
1000404a:	d003      	beq.n	10004054 <vendord_xfer_cb+0x1c>
1000404c:	2000      	movs	r0, #0
1000404e:	428b      	cmp	r3, r1
10004050:	d01d      	beq.n	1000408e <vendord_xfer_cb+0x56>
10004052:	bd70      	pop	{r4, r5, r6, pc}
10004054:	239a      	movs	r3, #154	@ 0x9a
10004056:	005b      	lsls	r3, r3, #1
10004058:	5ae3      	ldrh	r3, [r4, r3]
1000405a:	2b00      	cmp	r3, #0
1000405c:	d10d      	bne.n	1000407a <vendord_xfer_cb+0x42>
1000405e:	4b18      	ldr	r3, [pc, #96]	@ (100040c0 <vendord_xfer_cb+0x88>)
10004060:	2b00      	cmp	r3, #0
10004062:	d004      	beq.n	1000406e <vendord_xfer_cb+0x36>
10004064:	2000      	movs	r0, #0
10004066:	4917      	ldr	r1, [pc, #92]	@ (100040c4 <vendord_xfer_cb+0x8c>)
10004068:	b2b2      	uxth	r2, r6
1000406a:	e000      	b.n	1000406e <vendord_xfer_cb+0x36>
1000406c:	bf00      	nop
1000406e:	0028      	movs	r0, r5
10004070:	4915      	ldr	r1, [pc, #84]	@ (100040c8 <vendord_xfer_cb+0x90>)
10004072:	f000 f9ab 	bl	100043cc <tu_edpt_stream_read_xfer>
10004076:	2001      	movs	r0, #1
10004078:	e7eb      	b.n	10004052 <vendord_xfer_cb+0x1a>
1000407a:	0020      	movs	r0, r4
1000407c:	2396      	movs	r3, #150	@ 0x96
1000407e:	3031      	adds	r0, #49	@ 0x31
10004080:	005b      	lsls	r3, r3, #1
10004082:	58e1      	ldr	r1, [r4, r3]
10004084:	b2b2      	uxth	r2, r6
10004086:	30ff      	adds	r0, #255	@ 0xff
10004088:	f000 fb8e 	bl	100047a8 <tu_fifo_write_n>
1000408c:	e7e7      	b.n	1000405e <vendord_xfer_cb+0x26>
1000408e:	4b0f      	ldr	r3, [pc, #60]	@ (100040cc <vendord_xfer_cb+0x94>)
10004090:	2b00      	cmp	r3, #0
10004092:	d004      	beq.n	1000409e <vendord_xfer_cb+0x66>
10004094:	0431      	lsls	r1, r6, #16
10004096:	2000      	movs	r0, #0
10004098:	0c09      	lsrs	r1, r1, #16
1000409a:	e000      	b.n	1000409e <vendord_xfer_cb+0x66>
1000409c:	bf00      	nop
1000409e:	4c0c      	ldr	r4, [pc, #48]	@ (100040d0 <vendord_xfer_cb+0x98>)
100040a0:	0028      	movs	r0, r5
100040a2:	0021      	movs	r1, r4
100040a4:	f000 f960 	bl	10004368 <tu_edpt_stream_write_xfer>
100040a8:	2800      	cmp	r0, #0
100040aa:	d1e4      	bne.n	10004076 <vendord_xfer_cb+0x3e>
100040ac:	0032      	movs	r2, r6
100040ae:	0021      	movs	r1, r4
100040b0:	0028      	movs	r0, r5
100040b2:	f000 f925 	bl	10004300 <tu_edpt_stream_write_zlp_if_needed>
100040b6:	2001      	movs	r0, #1
100040b8:	e7cb      	b.n	10004052 <vendord_xfer_cb+0x1a>
100040ba:	46c0      	nop			@ (mov r8, r8)
100040bc:	200018d0 	.word	0x200018d0
100040c0:	00000000 	.word	0x00000000
100040c4:	20001850 	.word	0x20001850
100040c8:	200019f8 	.word	0x200019f8
100040cc:	00000000 	.word	0x00000000
100040d0:	200018d4 	.word	0x200018d4

100040d4 <tusb_rhport_init>:
100040d4:	b500      	push	{lr}
100040d6:	0003      	movs	r3, r0
100040d8:	b083      	sub	sp, #12
100040da:	2900      	cmp	r1, #0
100040dc:	d010      	beq.n	10004100 <tusb_rhport_init+0x2c>
100040de:	2000      	movs	r0, #0
100040e0:	2b01      	cmp	r3, #1
100040e2:	d807      	bhi.n	100040f4 <tusb_rhport_init+0x20>
100040e4:	780a      	ldrb	r2, [r1, #0]
100040e6:	2a00      	cmp	r2, #0
100040e8:	d004      	beq.n	100040f4 <tusb_rhport_init+0x20>
100040ea:	480b      	ldr	r0, [pc, #44]	@ (10004118 <tusb_rhport_init+0x44>)
100040ec:	54c2      	strb	r2, [r0, r3]
100040ee:	2001      	movs	r0, #1
100040f0:	2a01      	cmp	r2, #1
100040f2:	d001      	beq.n	100040f8 <tusb_rhport_init+0x24>
100040f4:	b003      	add	sp, #12
100040f6:	bd00      	pop	{pc}
100040f8:	0018      	movs	r0, r3
100040fa:	f7fe fdb9 	bl	10002c70 <tud_rhport_init>
100040fe:	e7f9      	b.n	100040f4 <tusb_rhport_init+0x20>
10004100:	2301      	movs	r3, #1
10004102:	a901      	add	r1, sp, #4
10004104:	2000      	movs	r0, #0
10004106:	800b      	strh	r3, [r1, #0]
10004108:	f7fe fdb2 	bl	10002c70 <tud_rhport_init>
1000410c:	2800      	cmp	r0, #0
1000410e:	d0f1      	beq.n	100040f4 <tusb_rhport_init+0x20>
10004110:	2201      	movs	r2, #1
10004112:	4b01      	ldr	r3, [pc, #4]	@ (10004118 <tusb_rhport_init+0x44>)
10004114:	701a      	strb	r2, [r3, #0]
10004116:	e7ed      	b.n	100040f4 <tusb_rhport_init+0x20>
10004118:	20001728 	.word	0x20001728

1000411c <tu_edpt_claim>:
1000411c:	7803      	ldrb	r3, [r0, #0]
1000411e:	b570      	push	{r4, r5, r6, lr}
10004120:	07db      	lsls	r3, r3, #31
10004122:	0004      	movs	r4, r0
10004124:	000e      	movs	r6, r1
10004126:	0fdd      	lsrs	r5, r3, #31
10004128:	2b00      	cmp	r3, #0
1000412a:	d117      	bne.n	1000415c <tu_edpt_claim+0x40>
1000412c:	7803      	ldrb	r3, [r0, #0]
1000412e:	075b      	lsls	r3, r3, #29
10004130:	d501      	bpl.n	10004136 <tu_edpt_claim+0x1a>
10004132:	0028      	movs	r0, r5
10004134:	bd70      	pop	{r4, r5, r6, pc}
10004136:	2101      	movs	r1, #1
10004138:	0030      	movs	r0, r6
1000413a:	4249      	negs	r1, r1
1000413c:	f001 fc20 	bl	10005980 <__mutex_enter_timeout_ms_veneer>
10004140:	7823      	ldrb	r3, [r4, #0]
10004142:	07db      	lsls	r3, r3, #31
10004144:	0fdd      	lsrs	r5, r3, #31
10004146:	2b00      	cmp	r3, #0
10004148:	d10a      	bne.n	10004160 <tu_edpt_claim+0x44>
1000414a:	7823      	ldrb	r3, [r4, #0]
1000414c:	075b      	lsls	r3, r3, #29
1000414e:	d408      	bmi.n	10004162 <tu_edpt_claim+0x46>
10004150:	2204      	movs	r2, #4
10004152:	7823      	ldrb	r3, [r4, #0]
10004154:	2501      	movs	r5, #1
10004156:	4313      	orrs	r3, r2
10004158:	7023      	strb	r3, [r4, #0]
1000415a:	e002      	b.n	10004162 <tu_edpt_claim+0x46>
1000415c:	2500      	movs	r5, #0
1000415e:	e7e8      	b.n	10004132 <tu_edpt_claim+0x16>
10004160:	2500      	movs	r5, #0
10004162:	0030      	movs	r0, r6
10004164:	f001 fbe4 	bl	10005930 <__mutex_exit_veneer>
10004168:	e7e3      	b.n	10004132 <tu_edpt_claim+0x16>
1000416a:	46c0      	nop			@ (mov r8, r8)

1000416c <tu_edpt_release>:
1000416c:	b570      	push	{r4, r5, r6, lr}
1000416e:	000c      	movs	r4, r1
10004170:	2101      	movs	r1, #1
10004172:	0006      	movs	r6, r0
10004174:	4249      	negs	r1, r1
10004176:	0020      	movs	r0, r4
10004178:	f001 fc02 	bl	10005980 <__mutex_enter_timeout_ms_veneer>
1000417c:	7833      	ldrb	r3, [r6, #0]
1000417e:	075b      	lsls	r3, r3, #29
10004180:	0fdd      	lsrs	r5, r3, #31
10004182:	2b00      	cmp	r3, #0
10004184:	db04      	blt.n	10004190 <tu_edpt_release+0x24>
10004186:	0020      	movs	r0, r4
10004188:	f001 fbd2 	bl	10005930 <__mutex_exit_veneer>
1000418c:	0028      	movs	r0, r5
1000418e:	bd70      	pop	{r4, r5, r6, pc}
10004190:	7833      	ldrb	r3, [r6, #0]
10004192:	07db      	lsls	r3, r3, #31
10004194:	d404      	bmi.n	100041a0 <tu_edpt_release+0x34>
10004196:	2204      	movs	r2, #4
10004198:	7833      	ldrb	r3, [r6, #0]
1000419a:	4393      	bics	r3, r2
1000419c:	7033      	strb	r3, [r6, #0]
1000419e:	e7f2      	b.n	10004186 <tu_edpt_release+0x1a>
100041a0:	2500      	movs	r5, #0
100041a2:	e7f0      	b.n	10004186 <tu_edpt_release+0x1a>

100041a4 <tu_edpt_validate>:
100041a4:	b550      	push	{r4, r6, lr}
100041a6:	7944      	ldrb	r4, [r0, #5]
100041a8:	7903      	ldrb	r3, [r0, #4]
100041aa:	0224      	lsls	r4, r4, #8
100041ac:	431c      	orrs	r4, r3
100041ae:	78c3      	ldrb	r3, [r0, #3]
100041b0:	0566      	lsls	r6, r4, #21
100041b2:	079b      	lsls	r3, r3, #30
100041b4:	0d76      	lsrs	r6, r6, #21
100041b6:	0f9b      	lsrs	r3, r3, #30
100041b8:	2b02      	cmp	r3, #2
100041ba:	d01d      	beq.n	100041f8 <tu_edpt_validate+0x54>
100041bc:	2b03      	cmp	r3, #3
100041be:	d00c      	beq.n	100041da <tu_edpt_validate+0x36>
100041c0:	2000      	movs	r0, #0
100041c2:	2b01      	cmp	r3, #1
100041c4:	d108      	bne.n	100041d8 <tu_edpt_validate+0x34>
100041c6:	3902      	subs	r1, #2
100041c8:	424b      	negs	r3, r1
100041ca:	4159      	adcs	r1, r3
100041cc:	4b1f      	ldr	r3, [pc, #124]	@ (1000424c <tu_edpt_validate+0xa8>)
100041ce:	469c      	mov	ip, r3
100041d0:	4461      	add	r1, ip
100041d2:	42b1      	cmp	r1, r6
100041d4:	4140      	adcs	r0, r0
100041d6:	b2c0      	uxtb	r0, r0
100041d8:	bd50      	pop	{r4, r6, pc}
100041da:	3902      	subs	r1, #2
100041dc:	1e4b      	subs	r3, r1, #1
100041de:	4199      	sbcs	r1, r3
100041e0:	4b1b      	ldr	r3, [pc, #108]	@ (10004250 <tu_edpt_validate+0xac>)
100041e2:	4249      	negs	r1, r1
100041e4:	4019      	ands	r1, r3
100041e6:	2380      	movs	r3, #128	@ 0x80
100041e8:	00db      	lsls	r3, r3, #3
100041ea:	469c      	mov	ip, r3
100041ec:	2000      	movs	r0, #0
100041ee:	4461      	add	r1, ip
100041f0:	42b1      	cmp	r1, r6
100041f2:	4140      	adcs	r0, r0
100041f4:	b2c0      	uxtb	r0, r0
100041f6:	e7ef      	b.n	100041d8 <tu_edpt_validate+0x34>
100041f8:	2902      	cmp	r1, #2
100041fa:	d012      	beq.n	10004222 <tu_edpt_validate+0x7e>
100041fc:	2a00      	cmp	r2, #0
100041fe:	d003      	beq.n	10004208 <tu_edpt_validate+0x64>
10004200:	2380      	movs	r3, #128	@ 0x80
10004202:	009b      	lsls	r3, r3, #2
10004204:	429e      	cmp	r6, r3
10004206:	d018      	beq.n	1000423a <tu_edpt_validate+0x96>
10004208:	2e20      	cmp	r6, #32
1000420a:	d810      	bhi.n	1000422e <tu_edpt_validate+0x8a>
1000420c:	23ff      	movs	r3, #255	@ 0xff
1000420e:	00db      	lsls	r3, r3, #3
10004210:	421c      	tst	r4, r3
10004212:	d019      	beq.n	10004248 <tu_edpt_validate+0xa4>
10004214:	4b0f      	ldr	r3, [pc, #60]	@ (10004254 <tu_edpt_validate+0xb0>)
10004216:	3e08      	subs	r6, #8
10004218:	b2b6      	uxth	r6, r6
1000421a:	40f3      	lsrs	r3, r6
1000421c:	2001      	movs	r0, #1
1000421e:	4018      	ands	r0, r3
10004220:	e7da      	b.n	100041d8 <tu_edpt_validate+0x34>
10004222:	4b0d      	ldr	r3, [pc, #52]	@ (10004258 <tu_edpt_validate+0xb4>)
10004224:	18f0      	adds	r0, r6, r3
10004226:	4243      	negs	r3, r0
10004228:	4158      	adcs	r0, r3
1000422a:	b2c0      	uxtb	r0, r0
1000422c:	e7d4      	b.n	100041d8 <tu_edpt_validate+0x34>
1000422e:	0030      	movs	r0, r6
10004230:	3840      	subs	r0, #64	@ 0x40
10004232:	4243      	negs	r3, r0
10004234:	4158      	adcs	r0, r3
10004236:	b2c0      	uxtb	r0, r0
10004238:	e7ce      	b.n	100041d8 <tu_edpt_validate+0x34>
1000423a:	3bc1      	subs	r3, #193	@ 0xc1
1000423c:	3bff      	subs	r3, #255	@ 0xff
1000423e:	7103      	strb	r3, [r0, #4]
10004240:	2300      	movs	r3, #0
10004242:	7143      	strb	r3, [r0, #5]
10004244:	0010      	movs	r0, r2
10004246:	e7c7      	b.n	100041d8 <tu_edpt_validate+0x34>
10004248:	2000      	movs	r0, #0
1000424a:	e7c5      	b.n	100041d8 <tu_edpt_validate+0x34>
1000424c:	000003ff 	.word	0x000003ff
10004250:	fffffc40 	.word	0xfffffc40
10004254:	01000101 	.word	0x01000101
10004258:	fffffe00 	.word	0xfffffe00

1000425c <tu_edpt_bind_driver>:
1000425c:	188a      	adds	r2, r1, r2
1000425e:	b570      	push	{r4, r5, r6, lr}
10004260:	4291      	cmp	r1, r2
10004262:	d207      	bcs.n	10004274 <tu_edpt_bind_driver+0x18>
10004264:	267f      	movs	r6, #127	@ 0x7f
10004266:	784c      	ldrb	r4, [r1, #1]
10004268:	2c05      	cmp	r4, #5
1000426a:	d004      	beq.n	10004276 <tu_edpt_bind_driver+0x1a>
1000426c:	780c      	ldrb	r4, [r1, #0]
1000426e:	1909      	adds	r1, r1, r4
10004270:	428a      	cmp	r2, r1
10004272:	d8f8      	bhi.n	10004266 <tu_edpt_bind_driver+0xa>
10004274:	bd70      	pop	{r4, r5, r6, pc}
10004276:	0034      	movs	r4, r6
10004278:	788d      	ldrb	r5, [r1, #2]
1000427a:	402c      	ands	r4, r5
1000427c:	0064      	lsls	r4, r4, #1
1000427e:	1904      	adds	r4, r0, r4
10004280:	09ed      	lsrs	r5, r5, #7
10004282:	5563      	strb	r3, [r4, r5]
10004284:	780c      	ldrb	r4, [r1, #0]
10004286:	1909      	adds	r1, r1, r4
10004288:	428a      	cmp	r2, r1
1000428a:	d8ec      	bhi.n	10004266 <tu_edpt_bind_driver+0xa>
1000428c:	e7f2      	b.n	10004274 <tu_edpt_bind_driver+0x18>
1000428e:	46c0      	nop			@ (mov r8, r8)

10004290 <tu_edpt_stream_init>:
10004290:	b5f0      	push	{r4, r5, r6, r7, lr}
10004292:	46c6      	mov	lr, r8
10004294:	b500      	push	{lr}
10004296:	b082      	sub	sp, #8
10004298:	0015      	movs	r5, r2
1000429a:	aa08      	add	r2, sp, #32
1000429c:	ca40      	ldmia	r2!, {r6}
1000429e:	0004      	movs	r4, r0
100042a0:	8817      	ldrh	r7, [r2, #0]
100042a2:	aa0b      	add	r2, sp, #44	@ 0x2c
100042a4:	8812      	ldrh	r2, [r2, #0]
100042a6:	2001      	movs	r0, #1
100042a8:	4690      	mov	r8, r2
100042aa:	000a      	movs	r2, r1
100042ac:	7821      	ldrb	r1, [r4, #0]
100042ae:	4002      	ands	r2, r0
100042b0:	4381      	bics	r1, r0
100042b2:	0020      	movs	r0, r4
100042b4:	4311      	orrs	r1, r2
100042b6:	7021      	strb	r1, [r4, #0]
100042b8:	003a      	movs	r2, r7
100042ba:	9300      	str	r3, [sp, #0]
100042bc:	0031      	movs	r1, r6
100042be:	2301      	movs	r3, #1
100042c0:	3008      	adds	r0, #8
100042c2:	f000 f8f1 	bl	100044a8 <tu_fifo_config>
100042c6:	2e00      	cmp	r6, #0
100042c8:	d001      	beq.n	100042ce <tu_edpt_stream_init+0x3e>
100042ca:	2f00      	cmp	r7, #0
100042cc:	d108      	bne.n	100042e0 <tu_edpt_stream_init+0x50>
100042ce:	9b0a      	ldr	r3, [sp, #40]	@ 0x28
100042d0:	2001      	movs	r0, #1
100042d2:	6063      	str	r3, [r4, #4]
100042d4:	4643      	mov	r3, r8
100042d6:	8063      	strh	r3, [r4, #2]
100042d8:	b002      	add	sp, #8
100042da:	bc80      	pop	{r7}
100042dc:	46b8      	mov	r8, r7
100042de:	bdf0      	pop	{r4, r5, r6, r7, pc}
100042e0:	0026      	movs	r6, r4
100042e2:	361c      	adds	r6, #28
100042e4:	0030      	movs	r0, r6
100042e6:	f7fc fb77 	bl	100009d8 <mutex_init>
100042ea:	2300      	movs	r3, #0
100042ec:	2d00      	cmp	r5, #0
100042ee:	d001      	beq.n	100042f4 <tu_edpt_stream_init+0x64>
100042f0:	0033      	movs	r3, r6
100042f2:	2600      	movs	r6, #0
100042f4:	6163      	str	r3, [r4, #20]
100042f6:	61a6      	str	r6, [r4, #24]
100042f8:	e7e9      	b.n	100042ce <tu_edpt_stream_init+0x3e>
100042fa:	46c0      	nop			@ (mov r8, r8)

100042fc <tu_edpt_stream_deinit>:
100042fc:	2001      	movs	r0, #1
100042fe:	4770      	bx	lr

10004300 <tu_edpt_stream_write_zlp_if_needed>:
10004300:	b5f8      	push	{r3, r4, r5, r6, r7, lr}
10004302:	2402      	movs	r4, #2
10004304:	780b      	ldrb	r3, [r1, #0]
10004306:	0007      	movs	r7, r0
10004308:	401c      	ands	r4, r3
1000430a:	4263      	negs	r3, r4
1000430c:	415c      	adcs	r4, r3
1000430e:	4b14      	ldr	r3, [pc, #80]	@ (10004360 <tu_edpt_stream_write_zlp_if_needed+0x60>)
10004310:	4264      	negs	r4, r4
10004312:	401c      	ands	r4, r3
10004314:	4b13      	ldr	r3, [pc, #76]	@ (10004364 <tu_edpt_stream_write_zlp_if_needed+0x64>)
10004316:	0008      	movs	r0, r1
10004318:	469c      	mov	ip, r3
1000431a:	3008      	adds	r0, #8
1000431c:	000d      	movs	r5, r1
1000431e:	0016      	movs	r6, r2
10004320:	4464      	add	r4, ip
10004322:	f000 f8f7 	bl	10004514 <tu_fifo_count>
10004326:	2800      	cmp	r0, #0
10004328:	d107      	bne.n	1000433a <tu_edpt_stream_write_zlp_if_needed+0x3a>
1000432a:	2e00      	cmp	r6, #0
1000432c:	d005      	beq.n	1000433a <tu_edpt_stream_write_zlp_if_needed+0x3a>
1000432e:	4234      	tst	r4, r6
10004330:	d103      	bne.n	1000433a <tu_edpt_stream_write_zlp_if_needed+0x3a>
10004332:	2401      	movs	r4, #1
10004334:	782b      	ldrb	r3, [r5, #0]
10004336:	421c      	tst	r4, r3
10004338:	d001      	beq.n	1000433e <tu_edpt_stream_write_zlp_if_needed+0x3e>
1000433a:	2000      	movs	r0, #0
1000433c:	bdf8      	pop	{r3, r4, r5, r6, r7, pc}
1000433e:	0038      	movs	r0, r7
10004340:	7869      	ldrb	r1, [r5, #1]
10004342:	f7ff f97f 	bl	10003644 <usbd_edpt_claim>
10004346:	2800      	cmp	r0, #0
10004348:	d0f7      	beq.n	1000433a <tu_edpt_stream_write_zlp_if_needed+0x3a>
1000434a:	782b      	ldrb	r3, [r5, #0]
1000434c:	421c      	tst	r4, r3
1000434e:	d1f4      	bne.n	1000433a <tu_edpt_stream_write_zlp_if_needed+0x3a>
10004350:	2300      	movs	r3, #0
10004352:	2200      	movs	r2, #0
10004354:	0038      	movs	r0, r7
10004356:	7869      	ldrb	r1, [r5, #1]
10004358:	f7ff f99c 	bl	10003694 <usbd_edpt_xfer>
1000435c:	e7ee      	b.n	1000433c <tu_edpt_stream_write_zlp_if_needed+0x3c>
1000435e:	46c0      	nop			@ (mov r8, r8)
10004360:	fffffe40 	.word	0xfffffe40
10004364:	000001ff 	.word	0x000001ff

10004368 <tu_edpt_stream_write_xfer>:
10004368:	b5f8      	push	{r3, r4, r5, r6, r7, lr}
1000436a:	000d      	movs	r5, r1
1000436c:	3508      	adds	r5, #8
1000436e:	0006      	movs	r6, r0
10004370:	0028      	movs	r0, r5
10004372:	000c      	movs	r4, r1
10004374:	f000 f8ce 	bl	10004514 <tu_fifo_count>
10004378:	2800      	cmp	r0, #0
1000437a:	d003      	beq.n	10004384 <tu_edpt_stream_write_xfer+0x1c>
1000437c:	2701      	movs	r7, #1
1000437e:	7823      	ldrb	r3, [r4, #0]
10004380:	421f      	tst	r7, r3
10004382:	d001      	beq.n	10004388 <tu_edpt_stream_write_xfer+0x20>
10004384:	2000      	movs	r0, #0
10004386:	bdf8      	pop	{r3, r4, r5, r6, r7, pc}
10004388:	0030      	movs	r0, r6
1000438a:	7861      	ldrb	r1, [r4, #1]
1000438c:	f7ff f95a 	bl	10003644 <usbd_edpt_claim>
10004390:	2800      	cmp	r0, #0
10004392:	d0f7      	beq.n	10004384 <tu_edpt_stream_write_xfer+0x1c>
10004394:	0028      	movs	r0, r5
10004396:	8862      	ldrh	r2, [r4, #2]
10004398:	6861      	ldr	r1, [r4, #4]
1000439a:	f000 f93d 	bl	10004618 <tu_fifo_read_n>
1000439e:	7823      	ldrb	r3, [r4, #0]
100043a0:	1e05      	subs	r5, r0, #0
100043a2:	d00b      	beq.n	100043bc <tu_edpt_stream_write_xfer+0x54>
100043a4:	421f      	tst	r7, r3
100043a6:	d1ed      	bne.n	10004384 <tu_edpt_stream_write_xfer+0x1c>
100043a8:	0003      	movs	r3, r0
100043aa:	6862      	ldr	r2, [r4, #4]
100043ac:	0030      	movs	r0, r6
100043ae:	7861      	ldrb	r1, [r4, #1]
100043b0:	f7ff f970 	bl	10003694 <usbd_edpt_xfer>
100043b4:	2800      	cmp	r0, #0
100043b6:	d0e5      	beq.n	10004384 <tu_edpt_stream_write_xfer+0x1c>
100043b8:	0028      	movs	r0, r5
100043ba:	e7e4      	b.n	10004386 <tu_edpt_stream_write_xfer+0x1e>
100043bc:	421f      	tst	r7, r3
100043be:	d1e1      	bne.n	10004384 <tu_edpt_stream_write_xfer+0x1c>
100043c0:	0030      	movs	r0, r6
100043c2:	7861      	ldrb	r1, [r4, #1]
100043c4:	f7ff f952 	bl	1000366c <usbd_edpt_release>
100043c8:	e7dc      	b.n	10004384 <tu_edpt_stream_write_xfer+0x1c>
100043ca:	46c0      	nop			@ (mov r8, r8)

100043cc <tu_edpt_stream_read_xfer>:
100043cc:	b5f8      	push	{r3, r4, r5, r6, r7, lr}
100043ce:	46ce      	mov	lr, r9
100043d0:	4647      	mov	r7, r8
100043d2:	b580      	push	{r7, lr}
100043d4:	898a      	ldrh	r2, [r1, #12]
100043d6:	0005      	movs	r5, r0
100043d8:	000c      	movs	r4, r1
100043da:	780b      	ldrb	r3, [r1, #0]
100043dc:	2a00      	cmp	r2, #0
100043de:	d107      	bne.n	100043f0 <tu_edpt_stream_read_xfer+0x24>
100043e0:	2601      	movs	r6, #1
100043e2:	421e      	tst	r6, r3
100043e4:	d03f      	beq.n	10004466 <tu_edpt_stream_read_xfer+0x9a>
100043e6:	2000      	movs	r0, #0
100043e8:	bcc0      	pop	{r6, r7}
100043ea:	46b9      	mov	r9, r7
100043ec:	46b0      	mov	r8, r6
100043ee:	bdf8      	pop	{r3, r4, r5, r6, r7, pc}
100043f0:	079b      	lsls	r3, r3, #30
100043f2:	d534      	bpl.n	1000445e <tu_edpt_stream_read_xfer+0x92>
100043f4:	23fe      	movs	r3, #254	@ 0xfe
100043f6:	2680      	movs	r6, #128	@ 0x80
100043f8:	021b      	lsls	r3, r3, #8
100043fa:	4699      	mov	r9, r3
100043fc:	00b6      	lsls	r6, r6, #2
100043fe:	0027      	movs	r7, r4
10004400:	3708      	adds	r7, #8
10004402:	0038      	movs	r0, r7
10004404:	f000 f8a4 	bl	10004550 <tu_fifo_remaining>
10004408:	4286      	cmp	r6, r0
1000440a:	d8ec      	bhi.n	100043e6 <tu_edpt_stream_read_xfer+0x1a>
1000440c:	2201      	movs	r2, #1
1000440e:	7823      	ldrb	r3, [r4, #0]
10004410:	4690      	mov	r8, r2
10004412:	421a      	tst	r2, r3
10004414:	d1e7      	bne.n	100043e6 <tu_edpt_stream_read_xfer+0x1a>
10004416:	0028      	movs	r0, r5
10004418:	7861      	ldrb	r1, [r4, #1]
1000441a:	f7ff f913 	bl	10003644 <usbd_edpt_claim>
1000441e:	2800      	cmp	r0, #0
10004420:	d0e1      	beq.n	100043e6 <tu_edpt_stream_read_xfer+0x1a>
10004422:	0038      	movs	r0, r7
10004424:	f000 f894 	bl	10004550 <tu_fifo_remaining>
10004428:	4286      	cmp	r6, r0
1000442a:	d831      	bhi.n	10004490 <tu_edpt_stream_read_xfer+0xc4>
1000442c:	4641      	mov	r1, r8
1000442e:	7823      	ldrb	r3, [r4, #0]
10004430:	8862      	ldrh	r2, [r4, #2]
10004432:	4219      	tst	r1, r3
10004434:	d1d7      	bne.n	100043e6 <tu_edpt_stream_read_xfer+0x1a>
10004436:	464b      	mov	r3, r9
10004438:	4018      	ands	r0, r3
1000443a:	1c06      	adds	r6, r0, #0
1000443c:	4290      	cmp	r0, r2
1000443e:	d900      	bls.n	10004442 <tu_edpt_stream_read_xfer+0x76>
10004440:	1c16      	adds	r6, r2, #0
10004442:	b2b6      	uxth	r6, r6
10004444:	2200      	movs	r2, #0
10004446:	7861      	ldrb	r1, [r4, #1]
10004448:	2e00      	cmp	r6, #0
1000444a:	d000      	beq.n	1000444e <tu_edpt_stream_read_xfer+0x82>
1000444c:	6862      	ldr	r2, [r4, #4]
1000444e:	0033      	movs	r3, r6
10004450:	0028      	movs	r0, r5
10004452:	f7ff f91f 	bl	10003694 <usbd_edpt_xfer>
10004456:	2800      	cmp	r0, #0
10004458:	d0c5      	beq.n	100043e6 <tu_edpt_stream_read_xfer+0x1a>
1000445a:	0030      	movs	r0, r6
1000445c:	e7c4      	b.n	100043e8 <tu_edpt_stream_read_xfer+0x1c>
1000445e:	4b11      	ldr	r3, [pc, #68]	@ (100044a4 <tu_edpt_stream_read_xfer+0xd8>)
10004460:	2640      	movs	r6, #64	@ 0x40
10004462:	4699      	mov	r9, r3
10004464:	e7cb      	b.n	100043fe <tu_edpt_stream_read_xfer+0x32>
10004466:	7849      	ldrb	r1, [r1, #1]
10004468:	f7ff f8ec 	bl	10003644 <usbd_edpt_claim>
1000446c:	2800      	cmp	r0, #0
1000446e:	d0ba      	beq.n	100043e6 <tu_edpt_stream_read_xfer+0x1a>
10004470:	7822      	ldrb	r2, [r4, #0]
10004472:	8863      	ldrh	r3, [r4, #2]
10004474:	4216      	tst	r6, r2
10004476:	d1b6      	bne.n	100043e6 <tu_edpt_stream_read_xfer+0x1a>
10004478:	2200      	movs	r2, #0
1000447a:	7861      	ldrb	r1, [r4, #1]
1000447c:	2b00      	cmp	r3, #0
1000447e:	d000      	beq.n	10004482 <tu_edpt_stream_read_xfer+0xb6>
10004480:	6862      	ldr	r2, [r4, #4]
10004482:	0028      	movs	r0, r5
10004484:	f7ff f906 	bl	10003694 <usbd_edpt_xfer>
10004488:	2800      	cmp	r0, #0
1000448a:	d0ac      	beq.n	100043e6 <tu_edpt_stream_read_xfer+0x1a>
1000448c:	8860      	ldrh	r0, [r4, #2]
1000448e:	e7ab      	b.n	100043e8 <tu_edpt_stream_read_xfer+0x1c>
10004490:	4642      	mov	r2, r8
10004492:	7823      	ldrb	r3, [r4, #0]
10004494:	421a      	tst	r2, r3
10004496:	d1a6      	bne.n	100043e6 <tu_edpt_stream_read_xfer+0x1a>
10004498:	0028      	movs	r0, r5
1000449a:	7861      	ldrb	r1, [r4, #1]
1000449c:	f7ff f8e6 	bl	1000366c <usbd_edpt_release>
100044a0:	e7a1      	b.n	100043e6 <tu_edpt_stream_read_xfer+0x1a>
100044a2:	46c0      	nop			@ (mov r8, r8)
100044a4:	0000ffc0 	.word	0x0000ffc0

100044a8 <tu_fifo_config>:
100044a8:	b5f0      	push	{r4, r5, r6, r7, lr}
100044aa:	46c6      	mov	lr, r8
100044ac:	b500      	push	{lr}
100044ae:	0004      	movs	r4, r0
100044b0:	a806      	add	r0, sp, #24
100044b2:	7805      	ldrb	r5, [r0, #0]
100044b4:	2080      	movs	r0, #128	@ 0x80
100044b6:	4688      	mov	r8, r1
100044b8:	0017      	movs	r7, r2
100044ba:	001e      	movs	r6, r3
100044bc:	0200      	lsls	r0, r0, #8
100044be:	4282      	cmp	r2, r0
100044c0:	d826      	bhi.n	10004510 <tu_fifo_config+0x68>
100044c2:	68e0      	ldr	r0, [r4, #12]
100044c4:	2800      	cmp	r0, #0
100044c6:	d003      	beq.n	100044d0 <tu_fifo_config+0x28>
100044c8:	2101      	movs	r1, #1
100044ca:	4249      	negs	r1, r1
100044cc:	f001 fa58 	bl	10005980 <__mutex_enter_timeout_ms_veneer>
100044d0:	6920      	ldr	r0, [r4, #16]
100044d2:	2800      	cmp	r0, #0
100044d4:	d003      	beq.n	100044de <tu_fifo_config+0x36>
100044d6:	2101      	movs	r1, #1
100044d8:	4249      	negs	r1, r1
100044da:	f001 fa51 	bl	10005980 <__mutex_enter_timeout_ms_veneer>
100044de:	4643      	mov	r3, r8
100044e0:	6023      	str	r3, [r4, #0]
100044e2:	0473      	lsls	r3, r6, #17
100044e4:	0c5b      	lsrs	r3, r3, #17
100044e6:	03ed      	lsls	r5, r5, #15
100044e8:	431d      	orrs	r5, r3
100044ea:	2300      	movs	r3, #0
100044ec:	68e0      	ldr	r0, [r4, #12]
100044ee:	8163      	strh	r3, [r4, #10]
100044f0:	80a7      	strh	r7, [r4, #4]
100044f2:	80e5      	strh	r5, [r4, #6]
100044f4:	8123      	strh	r3, [r4, #8]
100044f6:	2800      	cmp	r0, #0
100044f8:	d001      	beq.n	100044fe <tu_fifo_config+0x56>
100044fa:	f001 fa19 	bl	10005930 <__mutex_exit_veneer>
100044fe:	6920      	ldr	r0, [r4, #16]
10004500:	2800      	cmp	r0, #0
10004502:	d001      	beq.n	10004508 <tu_fifo_config+0x60>
10004504:	f001 fa14 	bl	10005930 <__mutex_exit_veneer>
10004508:	2001      	movs	r0, #1
1000450a:	bc80      	pop	{r7}
1000450c:	46b8      	mov	r8, r7
1000450e:	bdf0      	pop	{r4, r5, r6, r7, pc}
10004510:	2000      	movs	r0, #0
10004512:	e7fa      	b.n	1000450a <tu_fifo_config+0x62>

10004514 <tu_fifo_count>:
10004514:	b510      	push	{r4, lr}
10004516:	8904      	ldrh	r4, [r0, #8]
10004518:	8941      	ldrh	r1, [r0, #10]
1000451a:	8882      	ldrh	r2, [r0, #4]
1000451c:	b2a3      	uxth	r3, r4
1000451e:	b288      	uxth	r0, r1
10004520:	428c      	cmp	r4, r1
10004522:	d307      	bcc.n	10004534 <tu_fifo_count+0x20>
10004524:	1a1b      	subs	r3, r3, r0
10004526:	b29b      	uxth	r3, r3
10004528:	1c10      	adds	r0, r2, #0
1000452a:	429a      	cmp	r2, r3
1000452c:	d900      	bls.n	10004530 <tu_fifo_count+0x1c>
1000452e:	1c18      	adds	r0, r3, #0
10004530:	b280      	uxth	r0, r0
10004532:	bd10      	pop	{r4, pc}
10004534:	0051      	lsls	r1, r2, #1
10004536:	1a09      	subs	r1, r1, r0
10004538:	185b      	adds	r3, r3, r1
1000453a:	b29b      	uxth	r3, r3
1000453c:	e7f4      	b.n	10004528 <tu_fifo_count+0x14>
1000453e:	46c0      	nop			@ (mov r8, r8)

10004540 <tu_fifo_empty>:
10004540:	8903      	ldrh	r3, [r0, #8]
10004542:	8940      	ldrh	r0, [r0, #10]
10004544:	1a18      	subs	r0, r3, r0
10004546:	4243      	negs	r3, r0
10004548:	4158      	adcs	r0, r3
1000454a:	b2c0      	uxtb	r0, r0
1000454c:	4770      	bx	lr
1000454e:	46c0      	nop			@ (mov r8, r8)

10004550 <tu_fifo_remaining>:
10004550:	b510      	push	{r4, lr}
10004552:	8904      	ldrh	r4, [r0, #8]
10004554:	8941      	ldrh	r1, [r0, #10]
10004556:	8882      	ldrh	r2, [r0, #4]
10004558:	b2a3      	uxth	r3, r4
1000455a:	b288      	uxth	r0, r1
1000455c:	428c      	cmp	r4, r1
1000455e:	d307      	bcc.n	10004570 <tu_fifo_remaining+0x20>
10004560:	1a1b      	subs	r3, r3, r0
10004562:	b29b      	uxth	r3, r3
10004564:	2000      	movs	r0, #0
10004566:	429a      	cmp	r2, r3
10004568:	d901      	bls.n	1000456e <tu_fifo_remaining+0x1e>
1000456a:	1ad2      	subs	r2, r2, r3
1000456c:	b290      	uxth	r0, r2
1000456e:	bd10      	pop	{r4, pc}
10004570:	0051      	lsls	r1, r2, #1
10004572:	1a09      	subs	r1, r1, r0
10004574:	185b      	adds	r3, r3, r1
10004576:	b29b      	uxth	r3, r3
10004578:	e7f4      	b.n	10004564 <tu_fifo_remaining+0x14>
1000457a:	46c0      	nop			@ (mov r8, r8)

1000457c <tu_fifo_read>:
1000457c:	b570      	push	{r4, r5, r6, lr}
1000457e:	0004      	movs	r4, r0
10004580:	6900      	ldr	r0, [r0, #16]
10004582:	000e      	movs	r6, r1
10004584:	2800      	cmp	r0, #0
10004586:	d003      	beq.n	10004590 <tu_fifo_read+0x14>
10004588:	2101      	movs	r1, #1
1000458a:	4249      	negs	r1, r1
1000458c:	f001 f9f8 	bl	10005980 <__mutex_enter_timeout_ms_veneer>
10004590:	8925      	ldrh	r5, [r4, #8]
10004592:	8960      	ldrh	r0, [r4, #10]
10004594:	88a2      	ldrh	r2, [r4, #4]
10004596:	b2a9      	uxth	r1, r5
10004598:	b283      	uxth	r3, r0
1000459a:	4285      	cmp	r5, r0
1000459c:	d32c      	bcc.n	100045f8 <tu_fifo_read+0x7c>
1000459e:	1acd      	subs	r5, r1, r3
100045a0:	b2ad      	uxth	r5, r5
100045a2:	2d00      	cmp	r5, #0
100045a4:	d02e      	beq.n	10004604 <tu_fifo_read+0x88>
100045a6:	42aa      	cmp	r2, r5
100045a8:	d208      	bcs.n	100045bc <tu_fifo_read+0x40>
100045aa:	4291      	cmp	r1, r2
100045ac:	d330      	bcc.n	10004610 <tu_fifo_read+0x94>
100045ae:	1a89      	subs	r1, r1, r2
100045b0:	b28b      	uxth	r3, r1
100045b2:	8163      	strh	r3, [r4, #10]
100045b4:	429a      	cmp	r2, r3
100045b6:	d803      	bhi.n	100045c0 <tu_fifo_read+0x44>
100045b8:	1a9b      	subs	r3, r3, r2
100045ba:	b29b      	uxth	r3, r3
100045bc:	429a      	cmp	r2, r3
100045be:	d9fb      	bls.n	100045b8 <tu_fifo_read+0x3c>
100045c0:	88e2      	ldrh	r2, [r4, #6]
100045c2:	6821      	ldr	r1, [r4, #0]
100045c4:	0452      	lsls	r2, r2, #17
100045c6:	0c52      	lsrs	r2, r2, #17
100045c8:	4353      	muls	r3, r2
100045ca:	0030      	movs	r0, r6
100045cc:	18c9      	adds	r1, r1, r3
100045ce:	f7fd fc39 	bl	10001e44 <__wrap___aeabi_memcpy>
100045d2:	8963      	ldrh	r3, [r4, #10]
100045d4:	2501      	movs	r5, #1
100045d6:	1c59      	adds	r1, r3, #1
100045d8:	b289      	uxth	r1, r1
100045da:	88a2      	ldrh	r2, [r4, #4]
100045dc:	428b      	cmp	r3, r1
100045de:	d913      	bls.n	10004608 <tu_fifo_read+0x8c>
100045e0:	2100      	movs	r1, #0
100045e2:	0052      	lsls	r2, r2, #1
100045e4:	1a89      	subs	r1, r1, r2
100045e6:	b289      	uxth	r1, r1
100045e8:	6920      	ldr	r0, [r4, #16]
100045ea:	8161      	strh	r1, [r4, #10]
100045ec:	2800      	cmp	r0, #0
100045ee:	d001      	beq.n	100045f4 <tu_fifo_read+0x78>
100045f0:	f001 f99e 	bl	10005930 <__mutex_exit_veneer>
100045f4:	0028      	movs	r0, r5
100045f6:	bd70      	pop	{r4, r5, r6, pc}
100045f8:	0055      	lsls	r5, r2, #1
100045fa:	1aed      	subs	r5, r5, r3
100045fc:	194d      	adds	r5, r1, r5
100045fe:	b2ad      	uxth	r5, r5
10004600:	2d00      	cmp	r5, #0
10004602:	d1d0      	bne.n	100045a6 <tu_fifo_read+0x2a>
10004604:	8961      	ldrh	r1, [r4, #10]
10004606:	b289      	uxth	r1, r1
10004608:	0052      	lsls	r2, r2, #1
1000460a:	4291      	cmp	r1, r2
1000460c:	dbec      	blt.n	100045e8 <tu_fifo_read+0x6c>
1000460e:	e7e9      	b.n	100045e4 <tu_fifo_read+0x68>
10004610:	1889      	adds	r1, r1, r2
10004612:	b28b      	uxth	r3, r1
10004614:	8163      	strh	r3, [r4, #10]
10004616:	e7cd      	b.n	100045b4 <tu_fifo_read+0x38>

10004618 <tu_fifo_read_n>:
10004618:	b5f0      	push	{r4, r5, r6, r7, lr}
1000461a:	4646      	mov	r6, r8
1000461c:	464f      	mov	r7, r9
1000461e:	46d6      	mov	lr, sl
10004620:	b5c0      	push	{r6, r7, lr}
10004622:	0006      	movs	r6, r0
10004624:	6900      	ldr	r0, [r0, #16]
10004626:	4689      	mov	r9, r1
10004628:	4690      	mov	r8, r2
1000462a:	2800      	cmp	r0, #0
1000462c:	d003      	beq.n	10004636 <tu_fifo_read_n+0x1e>
1000462e:	2101      	movs	r1, #1
10004630:	4249      	negs	r1, r1
10004632:	f001 f9a5 	bl	10005980 <__mutex_enter_timeout_ms_veneer>
10004636:	8931      	ldrh	r1, [r6, #8]
10004638:	8972      	ldrh	r2, [r6, #10]
1000463a:	88b5      	ldrh	r5, [r6, #4]
1000463c:	b28b      	uxth	r3, r1
1000463e:	b294      	uxth	r4, r2
10004640:	4291      	cmp	r1, r2
10004642:	d354      	bcc.n	100046ee <tu_fifo_read_n+0xd6>
10004644:	1b1f      	subs	r7, r3, r4
10004646:	b2bf      	uxth	r7, r7
10004648:	2f00      	cmp	r7, #0
1000464a:	d04a      	beq.n	100046e2 <tu_fifo_read_n+0xca>
1000464c:	42bd      	cmp	r5, r7
1000464e:	d205      	bcs.n	1000465c <tu_fifo_read_n+0x44>
10004650:	42ab      	cmp	r3, r5
10004652:	d251      	bcs.n	100046f8 <tu_fifo_read_n+0xe0>
10004654:	195b      	adds	r3, r3, r5
10004656:	b29c      	uxth	r4, r3
10004658:	002f      	movs	r7, r5
1000465a:	8174      	strh	r4, [r6, #10]
1000465c:	4643      	mov	r3, r8
1000465e:	45b8      	cmp	r8, r7
10004660:	d83d      	bhi.n	100046de <tu_fifo_read_n+0xc6>
10004662:	b29f      	uxth	r7, r3
10004664:	42a5      	cmp	r5, r4
10004666:	d803      	bhi.n	10004670 <tu_fifo_read_n+0x58>
10004668:	1b64      	subs	r4, r4, r5
1000466a:	b2a4      	uxth	r4, r4
1000466c:	42a5      	cmp	r5, r4
1000466e:	d9fb      	bls.n	10004668 <tu_fifo_read_n+0x50>
10004670:	88f2      	ldrh	r2, [r6, #6]
10004672:	6831      	ldr	r1, [r6, #0]
10004674:	0452      	lsls	r2, r2, #17
10004676:	0c52      	lsrs	r2, r2, #17
10004678:	4690      	mov	r8, r2
1000467a:	4362      	muls	r2, r4
1000467c:	1b2b      	subs	r3, r5, r4
1000467e:	b29b      	uxth	r3, r3
10004680:	1889      	adds	r1, r1, r2
10004682:	4642      	mov	r2, r8
10004684:	429f      	cmp	r7, r3
10004686:	d925      	bls.n	100046d4 <tu_fifo_read_n+0xbc>
10004688:	4353      	muls	r3, r2
1000468a:	b29b      	uxth	r3, r3
1000468c:	001a      	movs	r2, r3
1000468e:	4648      	mov	r0, r9
10004690:	469a      	mov	sl, r3
10004692:	f7fd fbd7 	bl	10001e44 <__wrap___aeabi_memcpy>
10004696:	4643      	mov	r3, r8
10004698:	4648      	mov	r0, r9
1000469a:	1b7d      	subs	r5, r7, r5
1000469c:	1964      	adds	r4, r4, r5
1000469e:	435c      	muls	r4, r3
100046a0:	6831      	ldr	r1, [r6, #0]
100046a2:	4450      	add	r0, sl
100046a4:	b2a2      	uxth	r2, r4
100046a6:	f7fd fbcd 	bl	10001e44 <__wrap___aeabi_memcpy>
100046aa:	8971      	ldrh	r1, [r6, #10]
100046ac:	88b5      	ldrh	r5, [r6, #4]
100046ae:	19cb      	adds	r3, r1, r7
100046b0:	b29b      	uxth	r3, r3
100046b2:	006a      	lsls	r2, r5, #1
100046b4:	4299      	cmp	r1, r3
100046b6:	d916      	bls.n	100046e6 <tu_fifo_read_n+0xce>
100046b8:	1a9b      	subs	r3, r3, r2
100046ba:	b29b      	uxth	r3, r3
100046bc:	6930      	ldr	r0, [r6, #16]
100046be:	8173      	strh	r3, [r6, #10]
100046c0:	2800      	cmp	r0, #0
100046c2:	d001      	beq.n	100046c8 <tu_fifo_read_n+0xb0>
100046c4:	f001 f934 	bl	10005930 <__mutex_exit_veneer>
100046c8:	0038      	movs	r0, r7
100046ca:	bce0      	pop	{r5, r6, r7}
100046cc:	46ba      	mov	sl, r7
100046ce:	46b1      	mov	r9, r6
100046d0:	46a8      	mov	r8, r5
100046d2:	bdf0      	pop	{r4, r5, r6, r7, pc}
100046d4:	4648      	mov	r0, r9
100046d6:	437a      	muls	r2, r7
100046d8:	f7fd fbb4 	bl	10001e44 <__wrap___aeabi_memcpy>
100046dc:	e7e5      	b.n	100046aa <tu_fifo_read_n+0x92>
100046de:	1c3b      	adds	r3, r7, #0
100046e0:	e7bf      	b.n	10004662 <tu_fifo_read_n+0x4a>
100046e2:	8973      	ldrh	r3, [r6, #10]
100046e4:	b29b      	uxth	r3, r3
100046e6:	006a      	lsls	r2, r5, #1
100046e8:	4293      	cmp	r3, r2
100046ea:	dbe7      	blt.n	100046bc <tu_fifo_read_n+0xa4>
100046ec:	e7e4      	b.n	100046b8 <tu_fifo_read_n+0xa0>
100046ee:	006f      	lsls	r7, r5, #1
100046f0:	1b3f      	subs	r7, r7, r4
100046f2:	19df      	adds	r7, r3, r7
100046f4:	b2bf      	uxth	r7, r7
100046f6:	e7a7      	b.n	10004648 <tu_fifo_read_n+0x30>
100046f8:	1b5b      	subs	r3, r3, r5
100046fa:	b29c      	uxth	r4, r3
100046fc:	e7ac      	b.n	10004658 <tu_fifo_read_n+0x40>
100046fe:	46c0      	nop			@ (mov r8, r8)

10004700 <tu_fifo_write>:
10004700:	b5f8      	push	{r3, r4, r5, r6, r7, lr}
10004702:	0004      	movs	r4, r0
10004704:	68c0      	ldr	r0, [r0, #12]
10004706:	000e      	movs	r6, r1
10004708:	2800      	cmp	r0, #0
1000470a:	d003      	beq.n	10004714 <tu_fifo_write+0x14>
1000470c:	2101      	movs	r1, #1
1000470e:	4249      	negs	r1, r1
10004710:	f001 f936 	bl	10005980 <__mutex_enter_timeout_ms_veneer>
10004714:	8925      	ldrh	r5, [r4, #8]
10004716:	8920      	ldrh	r0, [r4, #8]
10004718:	8961      	ldrh	r1, [r4, #10]
1000471a:	88a2      	ldrh	r2, [r4, #4]
1000471c:	b2ad      	uxth	r5, r5
1000471e:	b283      	uxth	r3, r0
10004720:	b28f      	uxth	r7, r1
10004722:	4288      	cmp	r0, r1
10004724:	d329      	bcc.n	1000477a <tu_fifo_write+0x7a>
10004726:	1bdb      	subs	r3, r3, r7
10004728:	b29b      	uxth	r3, r3
1000472a:	429a      	cmp	r2, r3
1000472c:	d809      	bhi.n	10004742 <tu_fifo_write+0x42>
1000472e:	79e7      	ldrb	r7, [r4, #7]
10004730:	09ff      	lsrs	r7, r7, #7
10004732:	d106      	bne.n	10004742 <tu_fifo_write+0x42>
10004734:	68e0      	ldr	r0, [r4, #12]
10004736:	2800      	cmp	r0, #0
10004738:	d001      	beq.n	1000473e <tu_fifo_write+0x3e>
1000473a:	f001 f8f9 	bl	10005930 <__mutex_exit_veneer>
1000473e:	0038      	movs	r0, r7
10004740:	bdf8      	pop	{r3, r4, r5, r6, r7, pc}
10004742:	4295      	cmp	r5, r2
10004744:	d31e      	bcc.n	10004784 <tu_fifo_write+0x84>
10004746:	002b      	movs	r3, r5
10004748:	1a9b      	subs	r3, r3, r2
1000474a:	b29b      	uxth	r3, r3
1000474c:	4293      	cmp	r3, r2
1000474e:	d2fb      	bcs.n	10004748 <tu_fifo_write+0x48>
10004750:	88e2      	ldrh	r2, [r4, #6]
10004752:	6820      	ldr	r0, [r4, #0]
10004754:	0452      	lsls	r2, r2, #17
10004756:	0c52      	lsrs	r2, r2, #17
10004758:	4353      	muls	r3, r2
1000475a:	0031      	movs	r1, r6
1000475c:	18c0      	adds	r0, r0, r3
1000475e:	f7fd fb71 	bl	10001e44 <__wrap___aeabi_memcpy>
10004762:	1c6b      	adds	r3, r5, #1
10004764:	b29b      	uxth	r3, r3
10004766:	88a2      	ldrh	r2, [r4, #4]
10004768:	429d      	cmp	r5, r3
1000476a:	d918      	bls.n	1000479e <tu_fifo_write+0x9e>
1000476c:	2300      	movs	r3, #0
1000476e:	0052      	lsls	r2, r2, #1
10004770:	1a9b      	subs	r3, r3, r2
10004772:	b29b      	uxth	r3, r3
10004774:	2701      	movs	r7, #1
10004776:	8123      	strh	r3, [r4, #8]
10004778:	e7dc      	b.n	10004734 <tu_fifo_write+0x34>
1000477a:	0051      	lsls	r1, r2, #1
1000477c:	1bc9      	subs	r1, r1, r7
1000477e:	185b      	adds	r3, r3, r1
10004780:	b29b      	uxth	r3, r3
10004782:	e7d2      	b.n	1000472a <tu_fifo_write+0x2a>
10004784:	002b      	movs	r3, r5
10004786:	88e2      	ldrh	r2, [r4, #6]
10004788:	6820      	ldr	r0, [r4, #0]
1000478a:	0452      	lsls	r2, r2, #17
1000478c:	0c52      	lsrs	r2, r2, #17
1000478e:	4353      	muls	r3, r2
10004790:	0031      	movs	r1, r6
10004792:	18c0      	adds	r0, r0, r3
10004794:	f7fd fb56 	bl	10001e44 <__wrap___aeabi_memcpy>
10004798:	3501      	adds	r5, #1
1000479a:	88a2      	ldrh	r2, [r4, #4]
1000479c:	b2ab      	uxth	r3, r5
1000479e:	0052      	lsls	r2, r2, #1
100047a0:	4293      	cmp	r3, r2
100047a2:	dbe7      	blt.n	10004774 <tu_fifo_write+0x74>
100047a4:	e7e4      	b.n	10004770 <tu_fifo_write+0x70>
100047a6:	46c0      	nop			@ (mov r8, r8)

100047a8 <tu_fifo_write_n>:
100047a8:	b5f0      	push	{r4, r5, r6, r7, lr}
100047aa:	4657      	mov	r7, sl
100047ac:	4645      	mov	r5, r8
100047ae:	46de      	mov	lr, fp
100047b0:	464e      	mov	r6, r9
100047b2:	b5e0      	push	{r5, r6, r7, lr}
100047b4:	0014      	movs	r4, r2
100047b6:	0005      	movs	r5, r0
100047b8:	000f      	movs	r7, r1
100047ba:	b083      	sub	sp, #12
100047bc:	2a00      	cmp	r2, #0
100047be:	d075      	beq.n	100048ac <tu_fifo_write_n+0x104>
100047c0:	68c0      	ldr	r0, [r0, #12]
100047c2:	2800      	cmp	r0, #0
100047c4:	d003      	beq.n	100047ce <tu_fifo_write_n+0x26>
100047c6:	2101      	movs	r1, #1
100047c8:	4249      	negs	r1, r1
100047ca:	f001 f8d9 	bl	10005980 <__mutex_enter_timeout_ms_veneer>
100047ce:	892e      	ldrh	r6, [r5, #8]
100047d0:	79e9      	ldrb	r1, [r5, #7]
100047d2:	896a      	ldrh	r2, [r5, #10]
100047d4:	88ab      	ldrh	r3, [r5, #4]
100047d6:	b2b6      	uxth	r6, r6
100047d8:	b292      	uxth	r2, r2
100047da:	09c9      	lsrs	r1, r1, #7
100047dc:	d145      	bne.n	1000486a <tu_fifo_write_n+0xc2>
100047de:	4296      	cmp	r6, r2
100047e0:	d300      	bcc.n	100047e4 <tu_fifo_write_n+0x3c>
100047e2:	e06d      	b.n	100048c0 <tu_fifo_write_n+0x118>
100047e4:	0059      	lsls	r1, r3, #1
100047e6:	1a8a      	subs	r2, r1, r2
100047e8:	18b2      	adds	r2, r6, r2
100047ea:	b292      	uxth	r2, r2
100047ec:	2100      	movs	r1, #0
100047ee:	4689      	mov	r9, r1
100047f0:	429a      	cmp	r2, r3
100047f2:	d234      	bcs.n	1000485e <tu_fifo_write_n+0xb6>
100047f4:	1a9a      	subs	r2, r3, r2
100047f6:	1c11      	adds	r1, r2, #0
100047f8:	b292      	uxth	r2, r2
100047fa:	42a2      	cmp	r2, r4
100047fc:	d900      	bls.n	10004800 <tu_fifo_write_n+0x58>
100047fe:	1c21      	adds	r1, r4, #0
10004800:	b28a      	uxth	r2, r1
10004802:	4691      	mov	r9, r2
10004804:	88ea      	ldrh	r2, [r5, #6]
10004806:	0452      	lsls	r2, r2, #17
10004808:	0c52      	lsrs	r2, r2, #17
1000480a:	4690      	mov	r8, r2
1000480c:	464a      	mov	r2, r9
1000480e:	18b2      	adds	r2, r6, r2
10004810:	b292      	uxth	r2, r2
10004812:	4692      	mov	sl, r2
10004814:	464a      	mov	r2, r9
10004816:	1ad2      	subs	r2, r2, r3
10004818:	b292      	uxth	r2, r2
1000481a:	4693      	mov	fp, r2
1000481c:	0034      	movs	r4, r6
1000481e:	429e      	cmp	r6, r3
10004820:	d303      	bcc.n	1000482a <tu_fifo_write_n+0x82>
10004822:	1ae4      	subs	r4, r4, r3
10004824:	b2a4      	uxth	r4, r4
10004826:	429c      	cmp	r4, r3
10004828:	d2fb      	bcs.n	10004822 <tu_fifo_write_n+0x7a>
1000482a:	4642      	mov	r2, r8
1000482c:	4362      	muls	r2, r4
1000482e:	6828      	ldr	r0, [r5, #0]
10004830:	1b1b      	subs	r3, r3, r4
10004832:	b29b      	uxth	r3, r3
10004834:	1880      	adds	r0, r0, r2
10004836:	4642      	mov	r2, r8
10004838:	454b      	cmp	r3, r9
1000483a:	d354      	bcc.n	100048e6 <tu_fifo_write_n+0x13e>
1000483c:	464b      	mov	r3, r9
1000483e:	0039      	movs	r1, r7
10004840:	435a      	muls	r2, r3
10004842:	f7fd faff 	bl	10001e44 <__wrap___aeabi_memcpy>
10004846:	88ab      	ldrh	r3, [r5, #4]
10004848:	005b      	lsls	r3, r3, #1
1000484a:	4556      	cmp	r6, sl
1000484c:	d801      	bhi.n	10004852 <tu_fifo_write_n+0xaa>
1000484e:	459a      	cmp	sl, r3
10004850:	db03      	blt.n	1000485a <tu_fifo_write_n+0xb2>
10004852:	4652      	mov	r2, sl
10004854:	1ad3      	subs	r3, r2, r3
10004856:	b29b      	uxth	r3, r3
10004858:	469a      	mov	sl, r3
1000485a:	4653      	mov	r3, sl
1000485c:	812b      	strh	r3, [r5, #8]
1000485e:	68e8      	ldr	r0, [r5, #12]
10004860:	2800      	cmp	r0, #0
10004862:	d025      	beq.n	100048b0 <tu_fifo_write_n+0x108>
10004864:	f001 f864 	bl	10005930 <__mutex_exit_veneer>
10004868:	e022      	b.n	100048b0 <tu_fifo_write_n+0x108>
1000486a:	88e9      	ldrh	r1, [r5, #6]
1000486c:	0449      	lsls	r1, r1, #17
1000486e:	0c49      	lsrs	r1, r1, #17
10004870:	4688      	mov	r8, r1
10004872:	429c      	cmp	r4, r3
10004874:	d227      	bcs.n	100048c6 <tu_fifo_write_n+0x11e>
10004876:	4296      	cmp	r6, r2
10004878:	d347      	bcc.n	1000490a <tu_fifo_write_n+0x162>
1000487a:	1ab1      	subs	r1, r6, r2
1000487c:	b289      	uxth	r1, r1
1000487e:	468c      	mov	ip, r1
10004880:	0058      	lsls	r0, r3, #1
10004882:	1ae1      	subs	r1, r4, r3
10004884:	b289      	uxth	r1, r1
10004886:	468b      	mov	fp, r1
10004888:	4661      	mov	r1, ip
1000488a:	1909      	adds	r1, r1, r4
1000488c:	4281      	cmp	r1, r0
1000488e:	db08      	blt.n	100048a2 <tu_fifo_write_n+0xfa>
10004890:	18d1      	adds	r1, r2, r3
10004892:	b289      	uxth	r1, r1
10004894:	1b0e      	subs	r6, r1, r4
10004896:	b2b6      	uxth	r6, r6
10004898:	468a      	mov	sl, r1
1000489a:	42b2      	cmp	r2, r6
1000489c:	d93b      	bls.n	10004916 <tu_fifo_write_n+0x16e>
1000489e:	1a36      	subs	r6, r6, r0
100048a0:	b2b6      	uxth	r6, r6
100048a2:	19a2      	adds	r2, r4, r6
100048a4:	b292      	uxth	r2, r2
100048a6:	4692      	mov	sl, r2
100048a8:	46a1      	mov	r9, r4
100048aa:	e7b7      	b.n	1000481c <tu_fifo_write_n+0x74>
100048ac:	2300      	movs	r3, #0
100048ae:	4699      	mov	r9, r3
100048b0:	4648      	mov	r0, r9
100048b2:	b003      	add	sp, #12
100048b4:	bcf0      	pop	{r4, r5, r6, r7}
100048b6:	46bb      	mov	fp, r7
100048b8:	46b2      	mov	sl, r6
100048ba:	46a9      	mov	r9, r5
100048bc:	46a0      	mov	r8, r4
100048be:	bdf0      	pop	{r4, r5, r6, r7, pc}
100048c0:	1ab2      	subs	r2, r6, r2
100048c2:	b292      	uxth	r2, r2
100048c4:	e792      	b.n	100047ec <tu_fifo_write_n+0x44>
100048c6:	2100      	movs	r1, #0
100048c8:	4689      	mov	r9, r1
100048ca:	2b00      	cmp	r3, #0
100048cc:	d0c7      	beq.n	1000485e <tu_fifo_write_n+0xb6>
100048ce:	4641      	mov	r1, r8
100048d0:	1ae4      	subs	r4, r4, r3
100048d2:	434c      	muls	r4, r1
100048d4:	0016      	movs	r6, r2
100048d6:	18d1      	adds	r1, r2, r3
100048d8:	2200      	movs	r2, #0
100048da:	b289      	uxth	r1, r1
100048dc:	468a      	mov	sl, r1
100048de:	4699      	mov	r9, r3
100048e0:	4693      	mov	fp, r2
100048e2:	193f      	adds	r7, r7, r4
100048e4:	e79a      	b.n	1000481c <tu_fifo_write_n+0x74>
100048e6:	4353      	muls	r3, r2
100048e8:	b29b      	uxth	r3, r3
100048ea:	001a      	movs	r2, r3
100048ec:	0039      	movs	r1, r7
100048ee:	445c      	add	r4, fp
100048f0:	9301      	str	r3, [sp, #4]
100048f2:	f7fd faa7 	bl	10001e44 <__wrap___aeabi_memcpy>
100048f6:	4641      	mov	r1, r8
100048f8:	0022      	movs	r2, r4
100048fa:	434a      	muls	r2, r1
100048fc:	9b01      	ldr	r3, [sp, #4]
100048fe:	6828      	ldr	r0, [r5, #0]
10004900:	b292      	uxth	r2, r2
10004902:	18f9      	adds	r1, r7, r3
10004904:	f7fd fa9e 	bl	10001e44 <__wrap___aeabi_memcpy>
10004908:	e79d      	b.n	10004846 <tu_fifo_write_n+0x9e>
1000490a:	0058      	lsls	r0, r3, #1
1000490c:	1a81      	subs	r1, r0, r2
1000490e:	1871      	adds	r1, r6, r1
10004910:	b289      	uxth	r1, r1
10004912:	468c      	mov	ip, r1
10004914:	e7b5      	b.n	10004882 <tu_fifo_write_n+0xda>
10004916:	46a1      	mov	r9, r4
10004918:	42b0      	cmp	r0, r6
1000491a:	dd00      	ble.n	1000491e <tu_fifo_write_n+0x176>
1000491c:	e77e      	b.n	1000481c <tu_fifo_write_n+0x74>
1000491e:	e7be      	b.n	1000489e <tu_fifo_write_n+0xf6>

10004920 <tu_fifo_clear>:
10004920:	b510      	push	{r4, lr}
10004922:	0004      	movs	r4, r0
10004924:	68c0      	ldr	r0, [r0, #12]
10004926:	2800      	cmp	r0, #0
10004928:	d003      	beq.n	10004932 <tu_fifo_clear+0x12>
1000492a:	2101      	movs	r1, #1
1000492c:	4249      	negs	r1, r1
1000492e:	f001 f827 	bl	10005980 <__mutex_enter_timeout_ms_veneer>
10004932:	6920      	ldr	r0, [r4, #16]
10004934:	2800      	cmp	r0, #0
10004936:	d003      	beq.n	10004940 <tu_fifo_clear+0x20>
10004938:	2101      	movs	r1, #1
1000493a:	4249      	negs	r1, r1
1000493c:	f001 f820 	bl	10005980 <__mutex_enter_timeout_ms_veneer>
10004940:	2300      	movs	r3, #0
10004942:	68e0      	ldr	r0, [r4, #12]
10004944:	8163      	strh	r3, [r4, #10]
10004946:	8123      	strh	r3, [r4, #8]
10004948:	2800      	cmp	r0, #0
1000494a:	d001      	beq.n	10004950 <tu_fifo_clear+0x30>
1000494c:	f000 fff0 	bl	10005930 <__mutex_exit_veneer>
10004950:	6920      	ldr	r0, [r4, #16]
10004952:	2800      	cmp	r0, #0
10004954:	d001      	beq.n	1000495a <tu_fifo_clear+0x3a>
10004956:	f000 ffeb 	bl	10005930 <__mutex_exit_veneer>
1000495a:	2001      	movs	r0, #1
1000495c:	bd10      	pop	{r4, pc}
1000495e:	46c0      	nop			@ (mov r8, r8)

10004960 <tu_fifo_set_overwritable>:
10004960:	79c3      	ldrb	r3, [r0, #7]
10004962:	b570      	push	{r4, r5, r6, lr}
10004964:	09db      	lsrs	r3, r3, #7
10004966:	0004      	movs	r4, r0
10004968:	000d      	movs	r5, r1
1000496a:	428b      	cmp	r3, r1
1000496c:	d01d      	beq.n	100049aa <tu_fifo_set_overwritable+0x4a>
1000496e:	68c0      	ldr	r0, [r0, #12]
10004970:	2800      	cmp	r0, #0
10004972:	d003      	beq.n	1000497c <tu_fifo_set_overwritable+0x1c>
10004974:	2101      	movs	r1, #1
10004976:	4249      	negs	r1, r1
10004978:	f001 f802 	bl	10005980 <__mutex_enter_timeout_ms_veneer>
1000497c:	6920      	ldr	r0, [r4, #16]
1000497e:	2800      	cmp	r0, #0
10004980:	d003      	beq.n	1000498a <tu_fifo_set_overwritable+0x2a>
10004982:	2101      	movs	r1, #1
10004984:	4249      	negs	r1, r1
10004986:	f000 fffb 	bl	10005980 <__mutex_enter_timeout_ms_veneer>
1000498a:	237f      	movs	r3, #127	@ 0x7f
1000498c:	79e2      	ldrb	r2, [r4, #7]
1000498e:	01ed      	lsls	r5, r5, #7
10004990:	4013      	ands	r3, r2
10004992:	68e0      	ldr	r0, [r4, #12]
10004994:	432b      	orrs	r3, r5
10004996:	71e3      	strb	r3, [r4, #7]
10004998:	2800      	cmp	r0, #0
1000499a:	d001      	beq.n	100049a0 <tu_fifo_set_overwritable+0x40>
1000499c:	f000 ffc8 	bl	10005930 <__mutex_exit_veneer>
100049a0:	6920      	ldr	r0, [r4, #16]
100049a2:	2800      	cmp	r0, #0
100049a4:	d001      	beq.n	100049aa <tu_fifo_set_overwritable+0x4a>
100049a6:	f000 ffc3 	bl	10005930 <__mutex_exit_veneer>
100049aa:	2001      	movs	r0, #1
100049ac:	bd70      	pop	{r4, r5, r6, pc}
100049ae:	46c0      	nop			@ (mov r8, r8)

100049b0 <pvPortMalloc>:
100049b0:	b5f0      	push	{r4, r5, r6, r7, lr}
100049b2:	46c6      	mov	lr, r8
100049b4:	1e43      	subs	r3, r0, #1
100049b6:	b500      	push	{lr}
100049b8:	330a      	adds	r3, #10
100049ba:	d814      	bhi.n	100049e6 <pvPortMalloc+0x36>
100049bc:	2307      	movs	r3, #7
100049be:	0004      	movs	r4, r0
100049c0:	001a      	movs	r2, r3
100049c2:	3408      	adds	r4, #8
100049c4:	4022      	ands	r2, r4
100049c6:	4223      	tst	r3, r4
100049c8:	d06c      	beq.n	10004aa4 <pvPortMalloc+0xf4>
100049ca:	0013      	movs	r3, r2
100049cc:	3b09      	subs	r3, #9
100049ce:	42a3      	cmp	r3, r4
100049d0:	d309      	bcc.n	100049e6 <pvPortMalloc+0x36>
100049d2:	3010      	adds	r0, #16
100049d4:	1a84      	subs	r4, r0, r2
100049d6:	f000 fcc9 	bl	1000536c <vTaskSuspendAll>
100049da:	4a37      	ldr	r2, [pc, #220]	@ (10004ab8 <pvPortMalloc+0x108>)
100049dc:	0027      	movs	r7, r4
100049de:	6815      	ldr	r5, [r2, #0]
100049e0:	2d00      	cmp	r5, #0
100049e2:	d128      	bne.n	10004a36 <pvPortMalloc+0x86>
100049e4:	e00e      	b.n	10004a04 <pvPortMalloc+0x54>
100049e6:	f000 fcc1 	bl	1000536c <vTaskSuspendAll>
100049ea:	4a33      	ldr	r2, [pc, #204]	@ (10004ab8 <pvPortMalloc+0x108>)
100049ec:	6813      	ldr	r3, [r2, #0]
100049ee:	2b00      	cmp	r3, #0
100049f0:	d006      	beq.n	10004a00 <pvPortMalloc+0x50>
100049f2:	2500      	movs	r5, #0
100049f4:	f000 fcc2 	bl	1000537c <xTaskResumeAll>
100049f8:	0028      	movs	r0, r5
100049fa:	bc80      	pop	{r7}
100049fc:	46b8      	mov	r8, r7
100049fe:	bdf0      	pop	{r4, r5, r6, r7, pc}
10004a00:	2700      	movs	r7, #0
10004a02:	2400      	movs	r4, #0
10004a04:	2007      	movs	r0, #7
10004a06:	4d2d      	ldr	r5, [pc, #180]	@ (10004abc <pvPortMalloc+0x10c>)
10004a08:	002b      	movs	r3, r5
10004a0a:	0029      	movs	r1, r5
10004a0c:	4228      	tst	r0, r5
10004a0e:	d145      	bne.n	10004a9c <pvPortMalloc+0xec>
10004a10:	2000      	movs	r0, #0
10004a12:	4e2b      	ldr	r6, [pc, #172]	@ (10004ac0 <pvPortMalloc+0x110>)
10004a14:	6070      	str	r0, [r6, #4]
10004a16:	6031      	str	r1, [r6, #0]
10004a18:	4e2a      	ldr	r6, [pc, #168]	@ (10004ac4 <pvPortMalloc+0x114>)
10004a1a:	46b4      	mov	ip, r6
10004a1c:	2607      	movs	r6, #7
10004a1e:	4465      	add	r5, ip
10004a20:	43b5      	bics	r5, r6
10004a22:	6015      	str	r5, [r2, #0]
10004a24:	4a28      	ldr	r2, [pc, #160]	@ (10004ac8 <pvPortMalloc+0x118>)
10004a26:	1aeb      	subs	r3, r5, r3
10004a28:	6013      	str	r3, [r2, #0]
10004a2a:	4a28      	ldr	r2, [pc, #160]	@ (10004acc <pvPortMalloc+0x11c>)
10004a2c:	6068      	str	r0, [r5, #4]
10004a2e:	6028      	str	r0, [r5, #0]
10004a30:	6013      	str	r3, [r2, #0]
10004a32:	604b      	str	r3, [r1, #4]
10004a34:	600d      	str	r5, [r1, #0]
10004a36:	2f00      	cmp	r7, #0
10004a38:	dddb      	ble.n	100049f2 <pvPortMalloc+0x42>
10004a3a:	4f24      	ldr	r7, [pc, #144]	@ (10004acc <pvPortMalloc+0x11c>)
10004a3c:	683e      	ldr	r6, [r7, #0]
10004a3e:	42a6      	cmp	r6, r4
10004a40:	d3d7      	bcc.n	100049f2 <pvPortMalloc+0x42>
10004a42:	481f      	ldr	r0, [pc, #124]	@ (10004ac0 <pvPortMalloc+0x110>)
10004a44:	6803      	ldr	r3, [r0, #0]
10004a46:	e004      	b.n	10004a52 <pvPortMalloc+0xa2>
10004a48:	681a      	ldr	r2, [r3, #0]
10004a4a:	2a00      	cmp	r2, #0
10004a4c:	d004      	beq.n	10004a58 <pvPortMalloc+0xa8>
10004a4e:	0018      	movs	r0, r3
10004a50:	0013      	movs	r3, r2
10004a52:	6859      	ldr	r1, [r3, #4]
10004a54:	42a1      	cmp	r1, r4
10004a56:	d3f7      	bcc.n	10004a48 <pvPortMalloc+0x98>
10004a58:	42ab      	cmp	r3, r5
10004a5a:	d0ca      	beq.n	100049f2 <pvPortMalloc+0x42>
10004a5c:	001d      	movs	r5, r3
10004a5e:	681a      	ldr	r2, [r3, #0]
10004a60:	3508      	adds	r5, #8
10004a62:	4690      	mov	r8, r2
10004a64:	6002      	str	r2, [r0, #0]
10004a66:	1b0a      	subs	r2, r1, r4
10004a68:	2a10      	cmp	r2, #16
10004a6a:	d905      	bls.n	10004a78 <pvPortMalloc+0xc8>
10004a6c:	1919      	adds	r1, r3, r4
10004a6e:	604a      	str	r2, [r1, #4]
10004a70:	4642      	mov	r2, r8
10004a72:	600a      	str	r2, [r1, #0]
10004a74:	6001      	str	r1, [r0, #0]
10004a76:	0021      	movs	r1, r4
10004a78:	4a13      	ldr	r2, [pc, #76]	@ (10004ac8 <pvPortMalloc+0x118>)
10004a7a:	1a76      	subs	r6, r6, r1
10004a7c:	6810      	ldr	r0, [r2, #0]
10004a7e:	603e      	str	r6, [r7, #0]
10004a80:	4286      	cmp	r6, r0
10004a82:	d200      	bcs.n	10004a86 <pvPortMalloc+0xd6>
10004a84:	6016      	str	r6, [r2, #0]
10004a86:	2280      	movs	r2, #128	@ 0x80
10004a88:	0612      	lsls	r2, r2, #24
10004a8a:	430a      	orrs	r2, r1
10004a8c:	605a      	str	r2, [r3, #4]
10004a8e:	2200      	movs	r2, #0
10004a90:	601a      	str	r2, [r3, #0]
10004a92:	4a0f      	ldr	r2, [pc, #60]	@ (10004ad0 <pvPortMalloc+0x120>)
10004a94:	6813      	ldr	r3, [r2, #0]
10004a96:	3301      	adds	r3, #1
10004a98:	6013      	str	r3, [r2, #0]
10004a9a:	e7ab      	b.n	100049f4 <pvPortMalloc+0x44>
10004a9c:	1deb      	adds	r3, r5, #7
10004a9e:	4383      	bics	r3, r0
10004aa0:	0019      	movs	r1, r3
10004aa2:	e7b5      	b.n	10004a10 <pvPortMalloc+0x60>
10004aa4:	f000 fc62 	bl	1000536c <vTaskSuspendAll>
10004aa8:	4a03      	ldr	r2, [pc, #12]	@ (10004ab8 <pvPortMalloc+0x108>)
10004aaa:	0027      	movs	r7, r4
10004aac:	6815      	ldr	r5, [r2, #0]
10004aae:	2d00      	cmp	r5, #0
10004ab0:	d0a8      	beq.n	10004a04 <pvPortMalloc+0x54>
10004ab2:	2c00      	cmp	r4, #0
10004ab4:	dac1      	bge.n	10004a3a <pvPortMalloc+0x8a>
10004ab6:	e79c      	b.n	100049f2 <pvPortMalloc+0x42>
10004ab8:	200020b8 	.word	0x200020b8
10004abc:	20002358 	.word	0x20002358
10004ac0:	200223b0 	.word	0x200223b0
10004ac4:	0001fff8 	.word	0x0001fff8
10004ac8:	20022388 	.word	0x20022388
10004acc:	20022384 	.word	0x20022384
10004ad0:	20022394 	.word	0x20022394

10004ad4 <vPortYield>:
10004ad4:	2280      	movs	r2, #128	@ 0x80
10004ad6:	4b04      	ldr	r3, [pc, #16]	@ (10004ae8 <vPortYield+0x14>)
10004ad8:	0552      	lsls	r2, r2, #21
10004ada:	601a      	str	r2, [r3, #0]
10004adc:	f3bf 8f4f 	dsb	sy
10004ae0:	f3bf 8f6f 	isb	sy
10004ae4:	4770      	bx	lr
10004ae6:	46c0      	nop			@ (mov r8, r8)
10004ae8:	e000ed04 	.word	0xe000ed04

10004aec <vPortEnterCritical>:
10004aec:	b672      	cpsid	i
10004aee:	4a04      	ldr	r2, [pc, #16]	@ (10004b00 <vPortEnterCritical+0x14>)
10004af0:	6813      	ldr	r3, [r2, #0]
10004af2:	3301      	adds	r3, #1
10004af4:	6013      	str	r3, [r2, #0]
10004af6:	f3bf 8f4f 	dsb	sy
10004afa:	f3bf 8f6f 	isb	sy
10004afe:	4770      	bx	lr
10004b00:	2002236c 	.word	0x2002236c

10004b04 <vPortExitCritical>:
10004b04:	4a03      	ldr	r2, [pc, #12]	@ (10004b14 <vPortExitCritical+0x10>)
10004b06:	6813      	ldr	r3, [r2, #0]
10004b08:	3b01      	subs	r3, #1
10004b0a:	6013      	str	r3, [r2, #0]
10004b0c:	2b00      	cmp	r3, #0
10004b0e:	d100      	bne.n	10004b12 <vPortExitCritical+0xe>
10004b10:	b662      	cpsie	i
10004b12:	4770      	bx	lr
10004b14:	2002236c 	.word	0x2002236c

10004b18 <ulSetInterruptMaskFromISR>:
10004b18:	f3ef 8010 	mrs	r0, PRIMASK
10004b1c:	b672      	cpsid	i
10004b1e:	4770      	bx	lr

10004b20 <vClearInterruptMaskFromISR>:
10004b20:	f380 8810 	msr	PRIMASK, r0
10004b24:	4770      	bx	lr
10004b26:	46c0      	nop			@ (mov r8, r8)

10004b28 <ulPortLockGetCurrentOwnerId>:
10004b28:	23d0      	movs	r3, #208	@ 0xd0
10004b2a:	b510      	push	{r4, lr}
10004b2c:	061b      	lsls	r3, r3, #24
10004b2e:	6818      	ldr	r0, [r3, #0]
10004b30:	4b07      	ldr	r3, [pc, #28]	@ (10004b50 <ulPortLockGetCurrentOwnerId+0x28>)
10004b32:	781b      	ldrb	r3, [r3, #0]
10004b34:	4283      	cmp	r3, r0
10004b36:	d000      	beq.n	10004b3a <ulPortLockGetCurrentOwnerId+0x12>
10004b38:	bd10      	pop	{r4, pc}
10004b3a:	f3ef 8305 	mrs	r3, IPSR
10004b3e:	2b00      	cmp	r3, #0
10004b40:	d002      	beq.n	10004b48 <ulPortLockGetCurrentOwnerId+0x20>
10004b42:	005b      	lsls	r3, r3, #1
10004b44:	18c0      	adds	r0, r0, r3
10004b46:	e7f7      	b.n	10004b38 <ulPortLockGetCurrentOwnerId+0x10>
10004b48:	f000 fdf4 	bl	10005734 <xTaskGetCurrentTaskHandle>
10004b4c:	e7f4      	b.n	10004b38 <ulPortLockGetCurrentOwnerId+0x10>
10004b4e:	46c0      	nop			@ (mov r8, r8)
10004b50:	20001039 	.word	0x20001039

10004b54 <vPortLockInternalSpinUnlockWithWait>:
10004b54:	b510      	push	{r4, lr}
10004b56:	0003      	movs	r3, r0
10004b58:	6802      	ldr	r2, [r0, #0]
10004b5a:	4815      	ldr	r0, [pc, #84]	@ (10004bb0 <vPortLockInternalSpinUnlockWithWait+0x5c>)
10004b5c:	b082      	sub	sp, #8
10004b5e:	7804      	ldrb	r4, [r0, #0]
10004b60:	20d0      	movs	r0, #208	@ 0xd0
10004b62:	0600      	lsls	r0, r0, #24
10004b64:	6800      	ldr	r0, [r0, #0]
10004b66:	4284      	cmp	r4, r0
10004b68:	d008      	beq.n	10004b7c <vPortLockInternalSpinUnlockWithWait+0x28>
10004b6a:	f3bf 8f5f 	dmb	sy
10004b6e:	2300      	movs	r3, #0
10004b70:	6013      	str	r3, [r2, #0]
10004b72:	f381 8810 	msr	PRIMASK, r1
10004b76:	bf20      	wfe
10004b78:	b002      	add	sp, #8
10004b7a:	bd10      	pop	{r4, pc}
10004b7c:	f3bf 8f5f 	dmb	sy
10004b80:	2000      	movs	r0, #0
10004b82:	6010      	str	r0, [r2, #0]
10004b84:	f381 8810 	msr	PRIMASK, r1
10004b88:	4a0a      	ldr	r2, [pc, #40]	@ (10004bb4 <vPortLockInternalSpinUnlockWithWait+0x60>)
10004b8a:	681b      	ldr	r3, [r3, #0]
10004b8c:	6810      	ldr	r0, [r2, #0]
10004b8e:	4a0a      	ldr	r2, [pc, #40]	@ (10004bb8 <vPortLockInternalSpinUnlockWithWait+0x64>)
10004b90:	4694      	mov	ip, r2
10004b92:	4463      	add	r3, ip
10004b94:	109a      	asrs	r2, r3, #2
10004b96:	2b5c      	cmp	r3, #92	@ 0x5c
10004b98:	d900      	bls.n	10004b9c <vPortLockInternalSpinUnlockWithWait+0x48>
10004b9a:	3a18      	subs	r2, #24
10004b9c:	2301      	movs	r3, #1
10004b9e:	2101      	movs	r1, #1
10004ba0:	425b      	negs	r3, r3
10004ba2:	4091      	lsls	r1, r2
10004ba4:	9300      	str	r3, [sp, #0]
10004ba6:	2201      	movs	r2, #1
10004ba8:	2300      	movs	r3, #0
10004baa:	f000 f90f 	bl	10004dcc <xEventGroupWaitBits>
10004bae:	e7e3      	b.n	10004b78 <vPortLockInternalSpinUnlockWithWait+0x24>
10004bb0:	20001039 	.word	0x20001039
10004bb4:	20022380 	.word	0x20022380
10004bb8:	2fffff00 	.word	0x2fffff00

10004bbc <vPortLockInternalSpinUnlockWithNotify>:
10004bbc:	4a2d      	ldr	r2, [pc, #180]	@ (10004c74 <vPortLockInternalSpinUnlockWithNotify+0xb8>)
10004bbe:	b530      	push	{r4, r5, lr}
10004bc0:	4694      	mov	ip, r2
10004bc2:	6803      	ldr	r3, [r0, #0]
10004bc4:	000c      	movs	r4, r1
10004bc6:	4463      	add	r3, ip
10004bc8:	b083      	sub	sp, #12
10004bca:	1099      	asrs	r1, r3, #2
10004bcc:	2b5c      	cmp	r3, #92	@ 0x5c
10004bce:	d900      	bls.n	10004bd2 <vPortLockInternalSpinUnlockWithNotify+0x16>
10004bd0:	3918      	subs	r1, #24
10004bd2:	2201      	movs	r2, #1
10004bd4:	4b28      	ldr	r3, [pc, #160]	@ (10004c78 <vPortLockInternalSpinUnlockWithNotify+0xbc>)
10004bd6:	408a      	lsls	r2, r1
10004bd8:	7819      	ldrb	r1, [r3, #0]
10004bda:	23d0      	movs	r3, #208	@ 0xd0
10004bdc:	061b      	lsls	r3, r3, #24
10004bde:	681b      	ldr	r3, [r3, #0]
10004be0:	4299      	cmp	r1, r3
10004be2:	d01f      	beq.n	10004c24 <vPortLockInternalSpinUnlockWithNotify+0x68>
10004be4:	bf40      	sev
10004be6:	4d25      	ldr	r5, [pc, #148]	@ (10004c7c <vPortLockInternalSpinUnlockWithNotify+0xc0>)
10004be8:	6803      	ldr	r3, [r0, #0]
10004bea:	6829      	ldr	r1, [r5, #0]
10004bec:	428b      	cmp	r3, r1
10004bee:	d035      	beq.n	10004c5c <vPortLockInternalSpinUnlockWithNotify+0xa0>
10004bf0:	680b      	ldr	r3, [r1, #0]
10004bf2:	2b00      	cmp	r3, #0
10004bf4:	d0fc      	beq.n	10004bf0 <vPortLockInternalSpinUnlockWithNotify+0x34>
10004bf6:	f3bf 8f5f 	dmb	sy
10004bfa:	4921      	ldr	r1, [pc, #132]	@ (10004c80 <vPortLockInternalSpinUnlockWithNotify+0xc4>)
10004bfc:	680b      	ldr	r3, [r1, #0]
10004bfe:	4313      	orrs	r3, r2
10004c00:	600b      	str	r3, [r1, #0]
10004c02:	682b      	ldr	r3, [r5, #0]
10004c04:	f3bf 8f5f 	dmb	sy
10004c08:	2200      	movs	r2, #0
10004c0a:	601a      	str	r2, [r3, #0]
10004c0c:	6803      	ldr	r3, [r0, #0]
10004c0e:	21d0      	movs	r1, #208	@ 0xd0
10004c10:	2200      	movs	r2, #0
10004c12:	0609      	lsls	r1, r1, #24
10004c14:	654a      	str	r2, [r1, #84]	@ 0x54
10004c16:	f3bf 8f5f 	dmb	sy
10004c1a:	601a      	str	r2, [r3, #0]
10004c1c:	f384 8810 	msr	PRIMASK, r4
10004c20:	b003      	add	sp, #12
10004c22:	bd30      	pop	{r4, r5, pc}
10004c24:	bf40      	sev
10004c26:	6803      	ldr	r3, [r0, #0]
10004c28:	f3bf 8f5f 	dmb	sy
10004c2c:	2100      	movs	r1, #0
10004c2e:	6019      	str	r1, [r3, #0]
10004c30:	f384 8810 	msr	PRIMASK, r4
10004c34:	f3ef 8305 	mrs	r3, IPSR
10004c38:	b2db      	uxtb	r3, r3
10004c3a:	2b00      	cmp	r3, #0
10004c3c:	d013      	beq.n	10004c66 <vPortLockInternalSpinUnlockWithNotify+0xaa>
10004c3e:	4b11      	ldr	r3, [pc, #68]	@ (10004c84 <vPortLockInternalSpinUnlockWithNotify+0xc8>)
10004c40:	9101      	str	r1, [sp, #4]
10004c42:	4811      	ldr	r0, [pc, #68]	@ (10004c88 <vPortLockInternalSpinUnlockWithNotify+0xcc>)
10004c44:	6819      	ldr	r1, [r3, #0]
10004c46:	ab01      	add	r3, sp, #4
10004c48:	f000 fdb8 	bl	100057bc <xTimerPendFunctionCallFromISR>
10004c4c:	9b01      	ldr	r3, [sp, #4]
10004c4e:	2b00      	cmp	r3, #0
10004c50:	d0e6      	beq.n	10004c20 <vPortLockInternalSpinUnlockWithNotify+0x64>
10004c52:	2280      	movs	r2, #128	@ 0x80
10004c54:	4b0d      	ldr	r3, [pc, #52]	@ (10004c8c <vPortLockInternalSpinUnlockWithNotify+0xd0>)
10004c56:	0552      	lsls	r2, r2, #21
10004c58:	601a      	str	r2, [r3, #0]
10004c5a:	e7e1      	b.n	10004c20 <vPortLockInternalSpinUnlockWithNotify+0x64>
10004c5c:	4808      	ldr	r0, [pc, #32]	@ (10004c80 <vPortLockInternalSpinUnlockWithNotify+0xc4>)
10004c5e:	6801      	ldr	r1, [r0, #0]
10004c60:	4311      	orrs	r1, r2
10004c62:	6001      	str	r1, [r0, #0]
10004c64:	e7d3      	b.n	10004c0e <vPortLockInternalSpinUnlockWithNotify+0x52>
10004c66:	4b07      	ldr	r3, [pc, #28]	@ (10004c84 <vPortLockInternalSpinUnlockWithNotify+0xc8>)
10004c68:	0011      	movs	r1, r2
10004c6a:	6818      	ldr	r0, [r3, #0]
10004c6c:	f000 f90a 	bl	10004e84 <xEventGroupSetBits>
10004c70:	e7d6      	b.n	10004c20 <vPortLockInternalSpinUnlockWithNotify+0x64>
10004c72:	46c0      	nop			@ (mov r8, r8)
10004c74:	2fffff00 	.word	0x2fffff00
10004c78:	20001039 	.word	0x20001039
10004c7c:	200020ac 	.word	0x200020ac
10004c80:	20022370 	.word	0x20022370
10004c84:	20022380 	.word	0x20022380
10004c88:	10004f21 	.word	0x10004f21
10004c8c:	e000ed04 	.word	0xe000ed04

10004c90 <xPortLockInternalSpinUnlockWithBestEffortWaitOrTimeout>:
10004c90:	b5f0      	push	{r4, r5, r6, r7, lr}
10004c92:	46ce      	mov	lr, r9
10004c94:	4647      	mov	r7, r8
10004c96:	b580      	push	{r7, lr}
10004c98:	001d      	movs	r5, r3
10004c9a:	4b36      	ldr	r3, [pc, #216]	@ (10004d74 <xPortLockInternalSpinUnlockWithBestEffortWaitOrTimeout+0xe4>)
10004c9c:	0014      	movs	r4, r2
10004c9e:	781a      	ldrb	r2, [r3, #0]
10004ca0:	23d0      	movs	r3, #208	@ 0xd0
10004ca2:	061b      	lsls	r3, r3, #24
10004ca4:	681b      	ldr	r3, [r3, #0]
10004ca6:	4680      	mov	r8, r0
10004ca8:	4689      	mov	r9, r1
10004caa:	b083      	sub	sp, #12
10004cac:	429a      	cmp	r2, r3
10004cae:	d00f      	beq.n	10004cd0 <xPortLockInternalSpinUnlockWithBestEffortWaitOrTimeout+0x40>
10004cb0:	6803      	ldr	r3, [r0, #0]
10004cb2:	f3bf 8f5f 	dmb	sy
10004cb6:	2200      	movs	r2, #0
10004cb8:	601a      	str	r2, [r3, #0]
10004cba:	f381 8810 	msr	PRIMASK, r1
10004cbe:	0020      	movs	r0, r4
10004cc0:	0029      	movs	r1, r5
10004cc2:	f7fc fa31 	bl	10001128 <best_effort_wfe_or_timeout>
10004cc6:	b003      	add	sp, #12
10004cc8:	bcc0      	pop	{r6, r7}
10004cca:	46b9      	mov	r9, r7
10004ccc:	46b0      	mov	r8, r6
10004cce:	bdf0      	pop	{r4, r5, r6, r7, pc}
10004cd0:	f7fc fab8 	bl	10001244 <time_us_64>
10004cd4:	0026      	movs	r6, r4
10004cd6:	002f      	movs	r7, r5
10004cd8:	2301      	movs	r3, #1
10004cda:	1a36      	subs	r6, r6, r0
10004cdc:	418f      	sbcs	r7, r1
10004cde:	4a26      	ldr	r2, [pc, #152]	@ (10004d78 <xPortLockInternalSpinUnlockWithBestEffortWaitOrTimeout+0xe8>)
10004ce0:	425b      	negs	r3, r3
10004ce2:	18b6      	adds	r6, r6, r2
10004ce4:	415f      	adcs	r7, r3
10004ce6:	2f00      	cmp	r7, #0
10004ce8:	dc20      	bgt.n	10004d2c <xPortLockInternalSpinUnlockWithBestEffortWaitOrTimeout+0x9c>
10004cea:	d01b      	beq.n	10004d24 <xPortLockInternalSpinUnlockWithBestEffortWaitOrTimeout+0x94>
10004cec:	4643      	mov	r3, r8
10004cee:	681b      	ldr	r3, [r3, #0]
10004cf0:	f3bf 8f5f 	dmb	sy
10004cf4:	2200      	movs	r2, #0
10004cf6:	601a      	str	r2, [r3, #0]
10004cf8:	f389 8810 	msr	PRIMASK, r9
10004cfc:	4b1f      	ldr	r3, [pc, #124]	@ (10004d7c <xPortLockInternalSpinUnlockWithBestEffortWaitOrTimeout+0xec>)
10004cfe:	6a5a      	ldr	r2, [r3, #36]	@ 0x24
10004d00:	4295      	cmp	r5, r2
10004d02:	d805      	bhi.n	10004d10 <xPortLockInternalSpinUnlockWithBestEffortWaitOrTimeout+0x80>
10004d04:	6a9b      	ldr	r3, [r3, #40]	@ 0x28
10004d06:	2001      	movs	r0, #1
10004d08:	42a3      	cmp	r3, r4
10004d0a:	d2dc      	bcs.n	10004cc6 <xPortLockInternalSpinUnlockWithBestEffortWaitOrTimeout+0x36>
10004d0c:	4295      	cmp	r5, r2
10004d0e:	d1da      	bne.n	10004cc6 <xPortLockInternalSpinUnlockWithBestEffortWaitOrTimeout+0x36>
10004d10:	2280      	movs	r2, #128	@ 0x80
10004d12:	4b1b      	ldr	r3, [pc, #108]	@ (10004d80 <xPortLockInternalSpinUnlockWithBestEffortWaitOrTimeout+0xf0>)
10004d14:	0552      	lsls	r2, r2, #21
10004d16:	601a      	str	r2, [r3, #0]
10004d18:	f3bf 8f4f 	dsb	sy
10004d1c:	f3bf 8f6f 	isb	sy
10004d20:	2000      	movs	r0, #0
10004d22:	e7d0      	b.n	10004cc6 <xPortLockInternalSpinUnlockWithBestEffortWaitOrTimeout+0x36>
10004d24:	23fa      	movs	r3, #250	@ 0xfa
10004d26:	009b      	lsls	r3, r3, #2
10004d28:	429e      	cmp	r6, r3
10004d2a:	d3df      	bcc.n	10004cec <xPortLockInternalSpinUnlockWithBestEffortWaitOrTimeout+0x5c>
10004d2c:	22fa      	movs	r2, #250	@ 0xfa
10004d2e:	2300      	movs	r3, #0
10004d30:	0030      	movs	r0, r6
10004d32:	0039      	movs	r1, r7
10004d34:	0092      	lsls	r2, r2, #2
10004d36:	f7fc fd9b 	bl	10001870 <__wrap___aeabi_ldivmod>
10004d3a:	1e03      	subs	r3, r0, #0
10004d3c:	d0d6      	beq.n	10004cec <xPortLockInternalSpinUnlockWithBestEffortWaitOrTimeout+0x5c>
10004d3e:	4642      	mov	r2, r8
10004d40:	6812      	ldr	r2, [r2, #0]
10004d42:	f3bf 8f5f 	dmb	sy
10004d46:	2100      	movs	r1, #0
10004d48:	6011      	str	r1, [r2, #0]
10004d4a:	f389 8810 	msr	PRIMASK, r9
10004d4e:	4a0d      	ldr	r2, [pc, #52]	@ (10004d84 <xPortLockInternalSpinUnlockWithBestEffortWaitOrTimeout+0xf4>)
10004d50:	490d      	ldr	r1, [pc, #52]	@ (10004d88 <xPortLockInternalSpinUnlockWithBestEffortWaitOrTimeout+0xf8>)
10004d52:	6810      	ldr	r0, [r2, #0]
10004d54:	4642      	mov	r2, r8
10004d56:	468c      	mov	ip, r1
10004d58:	6812      	ldr	r2, [r2, #0]
10004d5a:	4462      	add	r2, ip
10004d5c:	1096      	asrs	r6, r2, #2
10004d5e:	2a5c      	cmp	r2, #92	@ 0x5c
10004d60:	d900      	bls.n	10004d64 <xPortLockInternalSpinUnlockWithBestEffortWaitOrTimeout+0xd4>
10004d62:	3e18      	subs	r6, #24
10004d64:	2101      	movs	r1, #1
10004d66:	9300      	str	r3, [sp, #0]
10004d68:	40b1      	lsls	r1, r6
10004d6a:	2300      	movs	r3, #0
10004d6c:	2201      	movs	r2, #1
10004d6e:	f000 f82d 	bl	10004dcc <xEventGroupWaitBits>
10004d72:	e7c3      	b.n	10004cfc <xPortLockInternalSpinUnlockWithBestEffortWaitOrTimeout+0x6c>
10004d74:	20001039 	.word	0x20001039
10004d78:	fffffc18 	.word	0xfffffc18
10004d7c:	40054000 	.word	0x40054000
10004d80:	e000ed04 	.word	0xe000ed04
10004d84:	20022380 	.word	0x20022380
10004d88:	2fffff00 	.word	0x2fffff00

10004d8c <prvRuntimeInitializer>:
10004d8c:	b510      	push	{r4, lr}
10004d8e:	f7fb fbe7 	bl	10000560 <next_striped_spin_lock_num>
10004d92:	4a05      	ldr	r2, [pc, #20]	@ (10004da8 <prvRuntimeInitializer+0x1c>)
10004d94:	4b05      	ldr	r3, [pc, #20]	@ (10004dac <prvRuntimeInitializer+0x20>)
10004d96:	4694      	mov	ip, r2
10004d98:	4460      	add	r0, ip
10004d9a:	0080      	lsls	r0, r0, #2
10004d9c:	6018      	str	r0, [r3, #0]
10004d9e:	f000 f809 	bl	10004db4 <xEventGroupCreate>
10004da2:	4b03      	ldr	r3, [pc, #12]	@ (10004db0 <prvRuntimeInitializer+0x24>)
10004da4:	6018      	str	r0, [r3, #0]
10004da6:	bd10      	pop	{r4, pc}
10004da8:	34000040 	.word	0x34000040
10004dac:	200020ac 	.word	0x200020ac
10004db0:	20022380 	.word	0x20022380

10004db4 <xEventGroupCreate>:
10004db4:	b510      	push	{r4, lr}
10004db6:	2018      	movs	r0, #24
10004db8:	f7ff fdfa 	bl	100049b0 <pvPortMalloc>
10004dbc:	1e04      	subs	r4, r0, #0
10004dbe:	d003      	beq.n	10004dc8 <xEventGroupCreate+0x14>
10004dc0:	2300      	movs	r3, #0
10004dc2:	c008      	stmia	r0!, {r3}
10004dc4:	f000 f8f4 	bl	10004fb0 <vListInitialise>
10004dc8:	0020      	movs	r0, r4
10004dca:	bd10      	pop	{r4, pc}

10004dcc <xEventGroupWaitBits>:
10004dcc:	b5f0      	push	{r4, r5, r6, r7, lr}
10004dce:	46c6      	mov	lr, r8
10004dd0:	0006      	movs	r6, r0
10004dd2:	b500      	push	{lr}
10004dd4:	000d      	movs	r5, r1
10004dd6:	4690      	mov	r8, r2
10004dd8:	001f      	movs	r7, r3
10004dda:	f000 fac7 	bl	1000536c <vTaskSuspendAll>
10004dde:	6834      	ldr	r4, [r6, #0]
10004de0:	2f00      	cmp	r7, #0
10004de2:	d113      	bne.n	10004e0c <xEventGroupWaitBits+0x40>
10004de4:	4225      	tst	r5, r4
10004de6:	d00b      	beq.n	10004e00 <xEventGroupWaitBits+0x34>
10004de8:	4643      	mov	r3, r8
10004dea:	2b00      	cmp	r3, #0
10004dec:	d00b      	beq.n	10004e06 <xEventGroupWaitBits+0x3a>
10004dee:	0023      	movs	r3, r4
10004df0:	43ab      	bics	r3, r5
10004df2:	6033      	str	r3, [r6, #0]
10004df4:	f000 fac2 	bl	1000537c <xTaskResumeAll>
10004df8:	0020      	movs	r0, r4
10004dfa:	bc80      	pop	{r7}
10004dfc:	46b8      	mov	r8, r7
10004dfe:	bdf0      	pop	{r4, r5, r6, r7, pc}
10004e00:	9b06      	ldr	r3, [sp, #24]
10004e02:	2b00      	cmp	r3, #0
10004e04:	d121      	bne.n	10004e4a <xEventGroupWaitBits+0x7e>
10004e06:	f000 fab9 	bl	1000537c <xTaskResumeAll>
10004e0a:	e7f5      	b.n	10004df8 <xEventGroupWaitBits+0x2c>
10004e0c:	002b      	movs	r3, r5
10004e0e:	4023      	ands	r3, r4
10004e10:	429d      	cmp	r5, r3
10004e12:	d0e9      	beq.n	10004de8 <xEventGroupWaitBits+0x1c>
10004e14:	9b06      	ldr	r3, [sp, #24]
10004e16:	2b00      	cmp	r3, #0
10004e18:	d0f5      	beq.n	10004e06 <xEventGroupWaitBits+0x3a>
10004e1a:	4643      	mov	r3, r8
10004e1c:	2180      	movs	r1, #128	@ 0x80
10004e1e:	1e5a      	subs	r2, r3, #1
10004e20:	4193      	sbcs	r3, r2
10004e22:	04c9      	lsls	r1, r1, #19
10004e24:	061b      	lsls	r3, r3, #24
10004e26:	4319      	orrs	r1, r3
10004e28:	9a06      	ldr	r2, [sp, #24]
10004e2a:	4329      	orrs	r1, r5
10004e2c:	1d30      	adds	r0, r6, #4
10004e2e:	f000 fb6f 	bl	10005510 <vTaskPlaceOnUnorderedEventList>
10004e32:	f000 faa3 	bl	1000537c <xTaskResumeAll>
10004e36:	2800      	cmp	r0, #0
10004e38:	d01c      	beq.n	10004e74 <xEventGroupWaitBits+0xa8>
10004e3a:	f000 fcb3 	bl	100057a4 <uxTaskResetEventItemValue>
10004e3e:	0004      	movs	r4, r0
10004e40:	0183      	lsls	r3, r0, #6
10004e42:	d507      	bpl.n	10004e54 <xEventGroupWaitBits+0x88>
10004e44:	0224      	lsls	r4, r4, #8
10004e46:	0a24      	lsrs	r4, r4, #8
10004e48:	e7d6      	b.n	10004df8 <xEventGroupWaitBits+0x2c>
10004e4a:	4641      	mov	r1, r8
10004e4c:	1e4b      	subs	r3, r1, #1
10004e4e:	4199      	sbcs	r1, r3
10004e50:	0609      	lsls	r1, r1, #24
10004e52:	e7e9      	b.n	10004e28 <xEventGroupWaitBits+0x5c>
10004e54:	f7ff fe4a 	bl	10004aec <vPortEnterCritical>
10004e58:	6834      	ldr	r4, [r6, #0]
10004e5a:	2f00      	cmp	r7, #0
10004e5c:	d10d      	bne.n	10004e7a <xEventGroupWaitBits+0xae>
10004e5e:	422c      	tst	r4, r5
10004e60:	d005      	beq.n	10004e6e <xEventGroupWaitBits+0xa2>
10004e62:	4643      	mov	r3, r8
10004e64:	2b00      	cmp	r3, #0
10004e66:	d002      	beq.n	10004e6e <xEventGroupWaitBits+0xa2>
10004e68:	0023      	movs	r3, r4
10004e6a:	43ab      	bics	r3, r5
10004e6c:	6033      	str	r3, [r6, #0]
10004e6e:	f7ff fe49 	bl	10004b04 <vPortExitCritical>
10004e72:	e7e7      	b.n	10004e44 <xEventGroupWaitBits+0x78>
10004e74:	f7ff fe2e 	bl	10004ad4 <vPortYield>
10004e78:	e7df      	b.n	10004e3a <xEventGroupWaitBits+0x6e>
10004e7a:	0023      	movs	r3, r4
10004e7c:	402b      	ands	r3, r5
10004e7e:	429d      	cmp	r5, r3
10004e80:	d1f5      	bne.n	10004e6e <xEventGroupWaitBits+0xa2>
10004e82:	e7ee      	b.n	10004e62 <xEventGroupWaitBits+0x96>

10004e84 <xEventGroupSetBits>:
10004e84:	b5f0      	push	{r4, r5, r6, r7, lr}
10004e86:	46de      	mov	lr, fp
10004e88:	4657      	mov	r7, sl
10004e8a:	464e      	mov	r6, r9
10004e8c:	4645      	mov	r5, r8
10004e8e:	0004      	movs	r4, r0
10004e90:	b5e0      	push	{r5, r6, r7, lr}
10004e92:	b083      	sub	sp, #12
10004e94:	000d      	movs	r5, r1
10004e96:	0006      	movs	r6, r0
10004e98:	9001      	str	r0, [sp, #4]
10004e9a:	f000 fa67 	bl	1000536c <vTaskSuspendAll>
10004e9e:	0022      	movs	r2, r4
10004ea0:	6813      	ldr	r3, [r2, #0]
10004ea2:	6924      	ldr	r4, [r4, #16]
10004ea4:	360c      	adds	r6, #12
10004ea6:	431d      	orrs	r5, r3
10004ea8:	0037      	movs	r7, r6
10004eaa:	6015      	str	r5, [r2, #0]
10004eac:	42a6      	cmp	r6, r4
10004eae:	d02b      	beq.n	10004f08 <xEventGroupSetBits+0x84>
10004eb0:	2300      	movs	r3, #0
10004eb2:	4699      	mov	r9, r3
10004eb4:	2380      	movs	r3, #128	@ 0x80
10004eb6:	04db      	lsls	r3, r3, #19
10004eb8:	4698      	mov	r8, r3
10004eba:	2380      	movs	r3, #128	@ 0x80
10004ebc:	045b      	lsls	r3, r3, #17
10004ebe:	469b      	mov	fp, r3
10004ec0:	2380      	movs	r3, #128	@ 0x80
10004ec2:	049b      	lsls	r3, r3, #18
10004ec4:	469a      	mov	sl, r3
10004ec6:	e00f      	b.n	10004ee8 <xEventGroupSetBits+0x64>
10004ec8:	2900      	cmp	r1, #0
10004eca:	d00b      	beq.n	10004ee4 <xEventGroupSetBits+0x60>
10004ecc:	4659      	mov	r1, fp
10004ece:	420a      	tst	r2, r1
10004ed0:	d002      	beq.n	10004ed8 <xEventGroupSetBits+0x54>
10004ed2:	464a      	mov	r2, r9
10004ed4:	431a      	orrs	r2, r3
10004ed6:	4691      	mov	r9, r2
10004ed8:	4651      	mov	r1, sl
10004eda:	4329      	orrs	r1, r5
10004edc:	f000 fbe0 	bl	100056a0 <vTaskRemoveFromUnorderedEventList>
10004ee0:	9b01      	ldr	r3, [sp, #4]
10004ee2:	681d      	ldr	r5, [r3, #0]
10004ee4:	42a7      	cmp	r7, r4
10004ee6:	d00d      	beq.n	10004f04 <xEventGroupSetBits+0x80>
10004ee8:	0020      	movs	r0, r4
10004eea:	0029      	movs	r1, r5
10004eec:	4646      	mov	r6, r8
10004eee:	6802      	ldr	r2, [r0, #0]
10004ef0:	6864      	ldr	r4, [r4, #4]
10004ef2:	0213      	lsls	r3, r2, #8
10004ef4:	0a1b      	lsrs	r3, r3, #8
10004ef6:	4019      	ands	r1, r3
10004ef8:	4232      	tst	r2, r6
10004efa:	d0e5      	beq.n	10004ec8 <xEventGroupSetBits+0x44>
10004efc:	428b      	cmp	r3, r1
10004efe:	d0e5      	beq.n	10004ecc <xEventGroupSetBits+0x48>
10004f00:	42a7      	cmp	r7, r4
10004f02:	d1f1      	bne.n	10004ee8 <xEventGroupSetBits+0x64>
10004f04:	464b      	mov	r3, r9
10004f06:	439d      	bics	r5, r3
10004f08:	9b01      	ldr	r3, [sp, #4]
10004f0a:	601d      	str	r5, [r3, #0]
10004f0c:	f000 fa36 	bl	1000537c <xTaskResumeAll>
10004f10:	0028      	movs	r0, r5
10004f12:	b003      	add	sp, #12
10004f14:	bcf0      	pop	{r4, r5, r6, r7}
10004f16:	46bb      	mov	fp, r7
10004f18:	46b2      	mov	sl, r6
10004f1a:	46a9      	mov	r9, r5
10004f1c:	46a0      	mov	r8, r4
10004f1e:	bdf0      	pop	{r4, r5, r6, r7, pc}

10004f20 <vEventGroupSetBitsCallback>:
10004f20:	b5f8      	push	{r3, r4, r5, r6, r7, lr}
10004f22:	46de      	mov	lr, fp
10004f24:	4657      	mov	r7, sl
10004f26:	464e      	mov	r6, r9
10004f28:	4645      	mov	r5, r8
10004f2a:	b5e0      	push	{r5, r6, r7, lr}
10004f2c:	0005      	movs	r5, r0
10004f2e:	000f      	movs	r7, r1
10004f30:	0006      	movs	r6, r0
10004f32:	f000 fa1b 	bl	1000536c <vTaskSuspendAll>
10004f36:	6829      	ldr	r1, [r5, #0]
10004f38:	692c      	ldr	r4, [r5, #16]
10004f3a:	4339      	orrs	r1, r7
10004f3c:	360c      	adds	r6, #12
10004f3e:	6029      	str	r1, [r5, #0]
10004f40:	42a6      	cmp	r6, r4
10004f42:	d02c      	beq.n	10004f9e <vEventGroupSetBitsCallback+0x7e>
10004f44:	2300      	movs	r3, #0
10004f46:	4698      	mov	r8, r3
10004f48:	2380      	movs	r3, #128	@ 0x80
10004f4a:	04db      	lsls	r3, r3, #19
10004f4c:	469b      	mov	fp, r3
10004f4e:	2380      	movs	r3, #128	@ 0x80
10004f50:	045b      	lsls	r3, r3, #17
10004f52:	469a      	mov	sl, r3
10004f54:	2380      	movs	r3, #128	@ 0x80
10004f56:	049b      	lsls	r3, r3, #18
10004f58:	4699      	mov	r9, r3
10004f5a:	e00f      	b.n	10004f7c <vEventGroupSetBitsCallback+0x5c>
10004f5c:	4667      	mov	r7, ip
10004f5e:	2f00      	cmp	r7, #0
10004f60:	d00a      	beq.n	10004f78 <vEventGroupSetBitsCallback+0x58>
10004f62:	4657      	mov	r7, sl
10004f64:	423a      	tst	r2, r7
10004f66:	d002      	beq.n	10004f6e <vEventGroupSetBitsCallback+0x4e>
10004f68:	4642      	mov	r2, r8
10004f6a:	431a      	orrs	r2, r3
10004f6c:	4690      	mov	r8, r2
10004f6e:	464b      	mov	r3, r9
10004f70:	4319      	orrs	r1, r3
10004f72:	f000 fb95 	bl	100056a0 <vTaskRemoveFromUnorderedEventList>
10004f76:	6829      	ldr	r1, [r5, #0]
10004f78:	42a6      	cmp	r6, r4
10004f7a:	d00e      	beq.n	10004f9a <vEventGroupSetBitsCallback+0x7a>
10004f7c:	0020      	movs	r0, r4
10004f7e:	000f      	movs	r7, r1
10004f80:	6802      	ldr	r2, [r0, #0]
10004f82:	6864      	ldr	r4, [r4, #4]
10004f84:	0213      	lsls	r3, r2, #8
10004f86:	0a1b      	lsrs	r3, r3, #8
10004f88:	401f      	ands	r7, r3
10004f8a:	46bc      	mov	ip, r7
10004f8c:	465f      	mov	r7, fp
10004f8e:	423a      	tst	r2, r7
10004f90:	d0e4      	beq.n	10004f5c <vEventGroupSetBitsCallback+0x3c>
10004f92:	4563      	cmp	r3, ip
10004f94:	d0e5      	beq.n	10004f62 <vEventGroupSetBitsCallback+0x42>
10004f96:	42a6      	cmp	r6, r4
10004f98:	d1f0      	bne.n	10004f7c <vEventGroupSetBitsCallback+0x5c>
10004f9a:	4643      	mov	r3, r8
10004f9c:	4399      	bics	r1, r3
10004f9e:	6029      	str	r1, [r5, #0]
10004fa0:	f000 f9ec 	bl	1000537c <xTaskResumeAll>
10004fa4:	bcf0      	pop	{r4, r5, r6, r7}
10004fa6:	46bb      	mov	fp, r7
10004fa8:	46b2      	mov	sl, r6
10004faa:	46a9      	mov	r9, r5
10004fac:	46a0      	mov	r8, r4
10004fae:	bdf8      	pop	{r3, r4, r5, r6, r7, pc}

10004fb0 <vListInitialise>:
10004fb0:	0003      	movs	r3, r0
10004fb2:	3308      	adds	r3, #8
10004fb4:	2201      	movs	r2, #1
10004fb6:	6043      	str	r3, [r0, #4]
10004fb8:	60c3      	str	r3, [r0, #12]
10004fba:	6103      	str	r3, [r0, #16]
10004fbc:	2300      	movs	r3, #0
10004fbe:	4252      	negs	r2, r2
10004fc0:	6082      	str	r2, [r0, #8]
10004fc2:	6003      	str	r3, [r0, #0]
10004fc4:	4770      	bx	lr
10004fc6:	46c0      	nop			@ (mov r8, r8)

10004fc8 <vListInsert>:
10004fc8:	0003      	movs	r3, r0
10004fca:	b530      	push	{r4, r5, lr}
10004fcc:	680d      	ldr	r5, [r1, #0]
10004fce:	3308      	adds	r3, #8
10004fd0:	1c6a      	adds	r2, r5, #1
10004fd2:	d00d      	beq.n	10004ff0 <vListInsert+0x28>
10004fd4:	001c      	movs	r4, r3
10004fd6:	685b      	ldr	r3, [r3, #4]
10004fd8:	681a      	ldr	r2, [r3, #0]
10004fda:	42aa      	cmp	r2, r5
10004fdc:	d9fa      	bls.n	10004fd4 <vListInsert+0xc>
10004fde:	604b      	str	r3, [r1, #4]
10004fe0:	6099      	str	r1, [r3, #8]
10004fe2:	6803      	ldr	r3, [r0, #0]
10004fe4:	608c      	str	r4, [r1, #8]
10004fe6:	3301      	adds	r3, #1
10004fe8:	6061      	str	r1, [r4, #4]
10004fea:	6108      	str	r0, [r1, #16]
10004fec:	6003      	str	r3, [r0, #0]
10004fee:	bd30      	pop	{r4, r5, pc}
10004ff0:	6904      	ldr	r4, [r0, #16]
10004ff2:	6863      	ldr	r3, [r4, #4]
10004ff4:	e7f3      	b.n	10004fde <vListInsert+0x16>
10004ff6:	46c0      	nop			@ (mov r8, r8)

10004ff8 <uxListRemove>:
10004ff8:	6903      	ldr	r3, [r0, #16]
10004ffa:	6841      	ldr	r1, [r0, #4]
10004ffc:	6882      	ldr	r2, [r0, #8]
10004ffe:	608a      	str	r2, [r1, #8]
10005000:	6051      	str	r1, [r2, #4]
10005002:	6859      	ldr	r1, [r3, #4]
10005004:	4281      	cmp	r1, r0
10005006:	d005      	beq.n	10005014 <uxListRemove+0x1c>
10005008:	2200      	movs	r2, #0
1000500a:	6102      	str	r2, [r0, #16]
1000500c:	6818      	ldr	r0, [r3, #0]
1000500e:	3801      	subs	r0, #1
10005010:	6018      	str	r0, [r3, #0]
10005012:	4770      	bx	lr
10005014:	605a      	str	r2, [r3, #4]
10005016:	e7f7      	b.n	10005008 <uxListRemove+0x10>

10005018 <prvNotifyQueueSetContainer>:
10005018:	b5f0      	push	{r4, r5, r6, r7, lr}
1000501a:	46c6      	mov	lr, r8
1000501c:	b500      	push	{lr}
1000501e:	6c84      	ldr	r4, [r0, #72]	@ 0x48
10005020:	b082      	sub	sp, #8
10005022:	6ba2      	ldr	r2, [r4, #56]	@ 0x38
10005024:	6be3      	ldr	r3, [r4, #60]	@ 0x3c
10005026:	2500      	movs	r5, #0
10005028:	9001      	str	r0, [sp, #4]
1000502a:	429a      	cmp	r2, r3
1000502c:	d304      	bcc.n	10005038 <prvNotifyQueueSetContainer+0x20>
1000502e:	0028      	movs	r0, r5
10005030:	b002      	add	sp, #8
10005032:	bc80      	pop	{r7}
10005034:	46b8      	mov	r8, r7
10005036:	bdf0      	pop	{r4, r5, r6, r7, pc}
10005038:	2345      	movs	r3, #69	@ 0x45
1000503a:	6c22      	ldr	r2, [r4, #64]	@ 0x40
1000503c:	5ce6      	ldrb	r6, [r4, r3]
1000503e:	6ba7      	ldr	r7, [r4, #56]	@ 0x38
10005040:	b276      	sxtb	r6, r6
10005042:	2a00      	cmp	r2, #0
10005044:	d01c      	beq.n	10005080 <prvNotifyQueueSetContainer+0x68>
10005046:	6860      	ldr	r0, [r4, #4]
10005048:	a901      	add	r1, sp, #4
1000504a:	f7fc fefb 	bl	10001e44 <__wrap___aeabi_memcpy>
1000504e:	6863      	ldr	r3, [r4, #4]
10005050:	6c22      	ldr	r2, [r4, #64]	@ 0x40
10005052:	189b      	adds	r3, r3, r2
10005054:	68a2      	ldr	r2, [r4, #8]
10005056:	6063      	str	r3, [r4, #4]
10005058:	4293      	cmp	r3, r2
1000505a:	d301      	bcc.n	10005060 <prvNotifyQueueSetContainer+0x48>
1000505c:	6823      	ldr	r3, [r4, #0]
1000505e:	6063      	str	r3, [r4, #4]
10005060:	2500      	movs	r5, #0
10005062:	3701      	adds	r7, #1
10005064:	63a7      	str	r7, [r4, #56]	@ 0x38
10005066:	1c73      	adds	r3, r6, #1
10005068:	d115      	bne.n	10005096 <prvNotifyQueueSetContainer+0x7e>
1000506a:	6a63      	ldr	r3, [r4, #36]	@ 0x24
1000506c:	2b00      	cmp	r3, #0
1000506e:	d0de      	beq.n	1000502e <prvNotifyQueueSetContainer+0x16>
10005070:	0020      	movs	r0, r4
10005072:	3024      	adds	r0, #36	@ 0x24
10005074:	f000 faae 	bl	100055d4 <xTaskRemoveFromEventList>
10005078:	2800      	cmp	r0, #0
1000507a:	d0d8      	beq.n	1000502e <prvNotifyQueueSetContainer+0x16>
1000507c:	2501      	movs	r5, #1
1000507e:	e7d6      	b.n	1000502e <prvNotifyQueueSetContainer+0x16>
10005080:	6823      	ldr	r3, [r4, #0]
10005082:	4698      	mov	r8, r3
10005084:	2b00      	cmp	r3, #0
10005086:	d1eb      	bne.n	10005060 <prvNotifyQueueSetContainer+0x48>
10005088:	68a0      	ldr	r0, [r4, #8]
1000508a:	f000 fb59 	bl	10005740 <xTaskPriorityDisinherit>
1000508e:	4643      	mov	r3, r8
10005090:	0005      	movs	r5, r0
10005092:	60a3      	str	r3, [r4, #8]
10005094:	e7e5      	b.n	10005062 <prvNotifyQueueSetContainer+0x4a>
10005096:	f000 fa35 	bl	10005504 <uxTaskGetNumberOfTasks>
1000509a:	4286      	cmp	r6, r0
1000509c:	d2c7      	bcs.n	1000502e <prvNotifyQueueSetContainer+0x16>
1000509e:	2345      	movs	r3, #69	@ 0x45
100050a0:	3601      	adds	r6, #1
100050a2:	b276      	sxtb	r6, r6
100050a4:	54e6      	strb	r6, [r4, r3]
100050a6:	e7c2      	b.n	1000502e <prvNotifyQueueSetContainer+0x16>

100050a8 <xQueueGenericSendFromISR>:
100050a8:	b5f8      	push	{r3, r4, r5, r6, r7, lr}
100050aa:	464e      	mov	r6, r9
100050ac:	46de      	mov	lr, fp
100050ae:	4657      	mov	r7, sl
100050b0:	4645      	mov	r5, r8
100050b2:	0004      	movs	r4, r0
100050b4:	b5e0      	push	{r5, r6, r7, lr}
100050b6:	4691      	mov	r9, r2
100050b8:	001d      	movs	r5, r3
100050ba:	000f      	movs	r7, r1
100050bc:	f7ff fd2c 	bl	10004b18 <ulSetInterruptMaskFromISR>
100050c0:	6ba2      	ldr	r2, [r4, #56]	@ 0x38
100050c2:	6be3      	ldr	r3, [r4, #60]	@ 0x3c
100050c4:	0006      	movs	r6, r0
100050c6:	429a      	cmp	r2, r3
100050c8:	d32d      	bcc.n	10005126 <xQueueGenericSendFromISR+0x7e>
100050ca:	2300      	movs	r3, #0
100050cc:	4698      	mov	r8, r3
100050ce:	2d02      	cmp	r5, #2
100050d0:	d009      	beq.n	100050e6 <xQueueGenericSendFromISR+0x3e>
100050d2:	0030      	movs	r0, r6
100050d4:	f7ff fd24 	bl	10004b20 <vClearInterruptMaskFromISR>
100050d8:	4640      	mov	r0, r8
100050da:	bcf0      	pop	{r4, r5, r6, r7}
100050dc:	46bb      	mov	fp, r7
100050de:	46b2      	mov	sl, r6
100050e0:	46a9      	mov	r9, r5
100050e2:	46a0      	mov	r8, r4
100050e4:	bdf8      	pop	{r3, r4, r5, r6, r7, pc}
100050e6:	3345      	adds	r3, #69	@ 0x45
100050e8:	5ce3      	ldrb	r3, [r4, r3]
100050ea:	6c22      	ldr	r2, [r4, #64]	@ 0x40
100050ec:	b25b      	sxtb	r3, r3
100050ee:	4698      	mov	r8, r3
100050f0:	6ba3      	ldr	r3, [r4, #56]	@ 0x38
100050f2:	469b      	mov	fp, r3
100050f4:	6ba3      	ldr	r3, [r4, #56]	@ 0x38
100050f6:	469a      	mov	sl, r3
100050f8:	2a00      	cmp	r2, #0
100050fa:	d13b      	bne.n	10005174 <xQueueGenericSendFromISR+0xcc>
100050fc:	4657      	mov	r7, sl
100050fe:	6823      	ldr	r3, [r4, #0]
10005100:	3701      	adds	r7, #1
10005102:	469a      	mov	sl, r3
10005104:	2b00      	cmp	r3, #0
10005106:	d063      	beq.n	100051d0 <xQueueGenericSendFromISR+0x128>
10005108:	4643      	mov	r3, r8
1000510a:	63a7      	str	r7, [r4, #56]	@ 0x38
1000510c:	3301      	adds	r3, #1
1000510e:	d127      	bne.n	10005160 <xQueueGenericSendFromISR+0xb8>
10005110:	6ca3      	ldr	r3, [r4, #72]	@ 0x48
10005112:	2b00      	cmp	r3, #0
10005114:	d042      	beq.n	1000519c <xQueueGenericSendFromISR+0xf4>
10005116:	2d02      	cmp	r5, #2
10005118:	d14a      	bne.n	100051b0 <xQueueGenericSendFromISR+0x108>
1000511a:	465b      	mov	r3, fp
1000511c:	2b00      	cmp	r3, #0
1000511e:	d047      	beq.n	100051b0 <xQueueGenericSendFromISR+0x108>
10005120:	2301      	movs	r3, #1
10005122:	4698      	mov	r8, r3
10005124:	e7d5      	b.n	100050d2 <xQueueGenericSendFromISR+0x2a>
10005126:	2345      	movs	r3, #69	@ 0x45
10005128:	5ce3      	ldrb	r3, [r4, r3]
1000512a:	6c22      	ldr	r2, [r4, #64]	@ 0x40
1000512c:	b25b      	sxtb	r3, r3
1000512e:	4698      	mov	r8, r3
10005130:	6ba3      	ldr	r3, [r4, #56]	@ 0x38
10005132:	469b      	mov	fp, r3
10005134:	6ba3      	ldr	r3, [r4, #56]	@ 0x38
10005136:	469a      	mov	sl, r3
10005138:	2a00      	cmp	r2, #0
1000513a:	d0df      	beq.n	100050fc <xQueueGenericSendFromISR+0x54>
1000513c:	2d00      	cmp	r5, #0
1000513e:	d119      	bne.n	10005174 <xQueueGenericSendFromISR+0xcc>
10005140:	0039      	movs	r1, r7
10005142:	4657      	mov	r7, sl
10005144:	6860      	ldr	r0, [r4, #4]
10005146:	f7fc fe7d 	bl	10001e44 <__wrap___aeabi_memcpy>
1000514a:	6863      	ldr	r3, [r4, #4]
1000514c:	6c22      	ldr	r2, [r4, #64]	@ 0x40
1000514e:	3701      	adds	r7, #1
10005150:	189b      	adds	r3, r3, r2
10005152:	68a2      	ldr	r2, [r4, #8]
10005154:	6063      	str	r3, [r4, #4]
10005156:	4293      	cmp	r3, r2
10005158:	d3d6      	bcc.n	10005108 <xQueueGenericSendFromISR+0x60>
1000515a:	6823      	ldr	r3, [r4, #0]
1000515c:	6063      	str	r3, [r4, #4]
1000515e:	e7d3      	b.n	10005108 <xQueueGenericSendFromISR+0x60>
10005160:	f000 f9d0 	bl	10005504 <uxTaskGetNumberOfTasks>
10005164:	4580      	cmp	r8, r0
10005166:	d2db      	bcs.n	10005120 <xQueueGenericSendFromISR+0x78>
10005168:	4643      	mov	r3, r8
1000516a:	2245      	movs	r2, #69	@ 0x45
1000516c:	3301      	adds	r3, #1
1000516e:	b25b      	sxtb	r3, r3
10005170:	54a3      	strb	r3, [r4, r2]
10005172:	e7d5      	b.n	10005120 <xQueueGenericSendFromISR+0x78>
10005174:	0039      	movs	r1, r7
10005176:	68e0      	ldr	r0, [r4, #12]
10005178:	f7fc fe64 	bl	10001e44 <__wrap___aeabi_memcpy>
1000517c:	6c22      	ldr	r2, [r4, #64]	@ 0x40
1000517e:	68e3      	ldr	r3, [r4, #12]
10005180:	4251      	negs	r1, r2
10005182:	1a9b      	subs	r3, r3, r2
10005184:	6822      	ldr	r2, [r4, #0]
10005186:	60e3      	str	r3, [r4, #12]
10005188:	4293      	cmp	r3, r2
1000518a:	d202      	bcs.n	10005192 <xQueueGenericSendFromISR+0xea>
1000518c:	68a3      	ldr	r3, [r4, #8]
1000518e:	185b      	adds	r3, r3, r1
10005190:	60e3      	str	r3, [r4, #12]
10005192:	4657      	mov	r7, sl
10005194:	2d02      	cmp	r5, #2
10005196:	d017      	beq.n	100051c8 <xQueueGenericSendFromISR+0x120>
10005198:	3701      	adds	r7, #1
1000519a:	e7b5      	b.n	10005108 <xQueueGenericSendFromISR+0x60>
1000519c:	6a63      	ldr	r3, [r4, #36]	@ 0x24
1000519e:	2b00      	cmp	r3, #0
100051a0:	d0be      	beq.n	10005120 <xQueueGenericSendFromISR+0x78>
100051a2:	0020      	movs	r0, r4
100051a4:	3024      	adds	r0, #36	@ 0x24
100051a6:	f000 fa15 	bl	100055d4 <xTaskRemoveFromEventList>
100051aa:	2800      	cmp	r0, #0
100051ac:	d105      	bne.n	100051ba <xQueueGenericSendFromISR+0x112>
100051ae:	e7b7      	b.n	10005120 <xQueueGenericSendFromISR+0x78>
100051b0:	0020      	movs	r0, r4
100051b2:	f7ff ff31 	bl	10005018 <prvNotifyQueueSetContainer>
100051b6:	2800      	cmp	r0, #0
100051b8:	d0b2      	beq.n	10005120 <xQueueGenericSendFromISR+0x78>
100051ba:	464b      	mov	r3, r9
100051bc:	2b00      	cmp	r3, #0
100051be:	d0af      	beq.n	10005120 <xQueueGenericSendFromISR+0x78>
100051c0:	2301      	movs	r3, #1
100051c2:	464a      	mov	r2, r9
100051c4:	6013      	str	r3, [r2, #0]
100051c6:	e7ab      	b.n	10005120 <xQueueGenericSendFromISR+0x78>
100051c8:	2f00      	cmp	r7, #0
100051ca:	d19d      	bne.n	10005108 <xQueueGenericSendFromISR+0x60>
100051cc:	3701      	adds	r7, #1
100051ce:	e79b      	b.n	10005108 <xQueueGenericSendFromISR+0x60>
100051d0:	68a0      	ldr	r0, [r4, #8]
100051d2:	f000 fab5 	bl	10005740 <xTaskPriorityDisinherit>
100051d6:	4653      	mov	r3, sl
100051d8:	60a3      	str	r3, [r4, #8]
100051da:	e795      	b.n	10005108 <xQueueGenericSendFromISR+0x60>

100051dc <xTaskIncrementTick.part.0>:
100051dc:	b5f0      	push	{r4, r5, r6, r7, lr}
100051de:	46de      	mov	lr, fp
100051e0:	4657      	mov	r7, sl
100051e2:	464e      	mov	r6, r9
100051e4:	4645      	mov	r5, r8
100051e6:	4b58      	ldr	r3, [pc, #352]	@ (10005348 <xTaskIncrementTick.part.0+0x16c>)
100051e8:	b5e0      	push	{r5, r6, r7, lr}
100051ea:	681a      	ldr	r2, [r3, #0]
100051ec:	b083      	sub	sp, #12
100051ee:	3201      	adds	r2, #1
100051f0:	4694      	mov	ip, r2
100051f2:	601a      	str	r2, [r3, #0]
100051f4:	2a00      	cmp	r2, #0
100051f6:	d05e      	beq.n	100052b6 <xTaskIncrementTick.part.0+0xda>
100051f8:	4b54      	ldr	r3, [pc, #336]	@ (1000534c <xTaskIncrementTick.part.0+0x170>)
100051fa:	681a      	ldr	r2, [r3, #0]
100051fc:	4594      	cmp	ip, r2
100051fe:	d36e      	bcc.n	100052de <xTaskIncrementTick.part.0+0x102>
10005200:	4a53      	ldr	r2, [pc, #332]	@ (10005350 <xTaskIncrementTick.part.0+0x174>)
10005202:	4690      	mov	r8, r2
10005204:	6812      	ldr	r2, [r2, #0]
10005206:	6812      	ldr	r2, [r2, #0]
10005208:	2a00      	cmp	r2, #0
1000520a:	d100      	bne.n	1000520e <xTaskIncrementTick.part.0+0x32>
1000520c:	e095      	b.n	1000533a <xTaskIncrementTick.part.0+0x15e>
1000520e:	2200      	movs	r2, #0
10005210:	9200      	str	r2, [sp, #0]
10005212:	4a50      	ldr	r2, [pc, #320]	@ (10005354 <xTaskIncrementTick.part.0+0x178>)
10005214:	4d50      	ldr	r5, [pc, #320]	@ (10005358 <xTaskIncrementTick.part.0+0x17c>)
10005216:	4693      	mov	fp, r2
10005218:	2200      	movs	r2, #0
1000521a:	4691      	mov	r9, r2
1000521c:	4a4f      	ldr	r2, [pc, #316]	@ (1000535c <xTaskIncrementTick.part.0+0x180>)
1000521e:	9301      	str	r3, [sp, #4]
10005220:	4692      	mov	sl, r2
10005222:	e036      	b.n	10005292 <xTaskIncrementTick.part.0+0xb6>
10005224:	4649      	mov	r1, r9
10005226:	6159      	str	r1, [r3, #20]
10005228:	6811      	ldr	r1, [r2, #0]
1000522a:	3901      	subs	r1, #1
1000522c:	6011      	str	r1, [r2, #0]
1000522e:	6a9a      	ldr	r2, [r3, #40]	@ 0x28
10005230:	2a00      	cmp	r2, #0
10005232:	d00d      	beq.n	10005250 <xTaskIncrementTick.part.0+0x74>
10005234:	69d9      	ldr	r1, [r3, #28]
10005236:	6a18      	ldr	r0, [r3, #32]
10005238:	6856      	ldr	r6, [r2, #4]
1000523a:	6088      	str	r0, [r1, #8]
1000523c:	6041      	str	r1, [r0, #4]
1000523e:	0019      	movs	r1, r3
10005240:	3118      	adds	r1, #24
10005242:	428e      	cmp	r6, r1
10005244:	d06f      	beq.n	10005326 <xTaskIncrementTick.part.0+0x14a>
10005246:	4649      	mov	r1, r9
10005248:	6299      	str	r1, [r3, #40]	@ 0x28
1000524a:	6811      	ldr	r1, [r2, #0]
1000524c:	3901      	subs	r1, #1
1000524e:	6011      	str	r1, [r2, #0]
10005250:	4652      	mov	r2, sl
10005252:	6ad9      	ldr	r1, [r3, #44]	@ 0x2c
10005254:	6812      	ldr	r2, [r2, #0]
10005256:	4291      	cmp	r1, r2
10005258:	d901      	bls.n	1000525e <xTaskIncrementTick.part.0+0x82>
1000525a:	4652      	mov	r2, sl
1000525c:	6011      	str	r1, [r2, #0]
1000525e:	008a      	lsls	r2, r1, #2
10005260:	1852      	adds	r2, r2, r1
10005262:	0092      	lsls	r2, r2, #2
10005264:	18ae      	adds	r6, r5, r2
10005266:	6870      	ldr	r0, [r6, #4]
10005268:	6887      	ldr	r7, [r0, #8]
1000526a:	6098      	str	r0, [r3, #8]
1000526c:	60df      	str	r7, [r3, #12]
1000526e:	607c      	str	r4, [r7, #4]
10005270:	6084      	str	r4, [r0, #8]
10005272:	615e      	str	r6, [r3, #20]
10005274:	58ab      	ldr	r3, [r5, r2]
10005276:	3301      	adds	r3, #1
10005278:	50ab      	str	r3, [r5, r2]
1000527a:	465b      	mov	r3, fp
1000527c:	681b      	ldr	r3, [r3, #0]
1000527e:	6adb      	ldr	r3, [r3, #44]	@ 0x2c
10005280:	4299      	cmp	r1, r3
10005282:	d901      	bls.n	10005288 <xTaskIncrementTick.part.0+0xac>
10005284:	2301      	movs	r3, #1
10005286:	9300      	str	r3, [sp, #0]
10005288:	4643      	mov	r3, r8
1000528a:	681b      	ldr	r3, [r3, #0]
1000528c:	681b      	ldr	r3, [r3, #0]
1000528e:	2b00      	cmp	r3, #0
10005290:	d04e      	beq.n	10005330 <xTaskIncrementTick.part.0+0x154>
10005292:	4643      	mov	r3, r8
10005294:	681b      	ldr	r3, [r3, #0]
10005296:	68db      	ldr	r3, [r3, #12]
10005298:	68db      	ldr	r3, [r3, #12]
1000529a:	685a      	ldr	r2, [r3, #4]
1000529c:	4594      	cmp	ip, r2
1000529e:	d344      	bcc.n	1000532a <xTaskIncrementTick.part.0+0x14e>
100052a0:	695a      	ldr	r2, [r3, #20]
100052a2:	6898      	ldr	r0, [r3, #8]
100052a4:	68d9      	ldr	r1, [r3, #12]
100052a6:	1d1c      	adds	r4, r3, #4
100052a8:	6081      	str	r1, [r0, #8]
100052aa:	6048      	str	r0, [r1, #4]
100052ac:	6850      	ldr	r0, [r2, #4]
100052ae:	42a0      	cmp	r0, r4
100052b0:	d1b8      	bne.n	10005224 <xTaskIncrementTick.part.0+0x48>
100052b2:	6051      	str	r1, [r2, #4]
100052b4:	e7b6      	b.n	10005224 <xTaskIncrementTick.part.0+0x48>
100052b6:	4b26      	ldr	r3, [pc, #152]	@ (10005350 <xTaskIncrementTick.part.0+0x174>)
100052b8:	4a29      	ldr	r2, [pc, #164]	@ (10005360 <xTaskIncrementTick.part.0+0x184>)
100052ba:	6819      	ldr	r1, [r3, #0]
100052bc:	6810      	ldr	r0, [r2, #0]
100052be:	6018      	str	r0, [r3, #0]
100052c0:	6011      	str	r1, [r2, #0]
100052c2:	4928      	ldr	r1, [pc, #160]	@ (10005364 <xTaskIncrementTick.part.0+0x188>)
100052c4:	680a      	ldr	r2, [r1, #0]
100052c6:	3201      	adds	r2, #1
100052c8:	600a      	str	r2, [r1, #0]
100052ca:	681a      	ldr	r2, [r3, #0]
100052cc:	6812      	ldr	r2, [r2, #0]
100052ce:	2a00      	cmp	r2, #0
100052d0:	d123      	bne.n	1000531a <xTaskIncrementTick.part.0+0x13e>
100052d2:	4b1e      	ldr	r3, [pc, #120]	@ (1000534c <xTaskIncrementTick.part.0+0x170>)
100052d4:	3a01      	subs	r2, #1
100052d6:	601a      	str	r2, [r3, #0]
100052d8:	681a      	ldr	r2, [r3, #0]
100052da:	4594      	cmp	ip, r2
100052dc:	d290      	bcs.n	10005200 <xTaskIncrementTick.part.0+0x24>
100052de:	2300      	movs	r3, #0
100052e0:	9300      	str	r3, [sp, #0]
100052e2:	4b1c      	ldr	r3, [pc, #112]	@ (10005354 <xTaskIncrementTick.part.0+0x178>)
100052e4:	4d1c      	ldr	r5, [pc, #112]	@ (10005358 <xTaskIncrementTick.part.0+0x17c>)
100052e6:	469b      	mov	fp, r3
100052e8:	465b      	mov	r3, fp
100052ea:	681b      	ldr	r3, [r3, #0]
100052ec:	6ada      	ldr	r2, [r3, #44]	@ 0x2c
100052ee:	0093      	lsls	r3, r2, #2
100052f0:	189b      	adds	r3, r3, r2
100052f2:	009b      	lsls	r3, r3, #2
100052f4:	58eb      	ldr	r3, [r5, r3]
100052f6:	2b01      	cmp	r3, #1
100052f8:	d901      	bls.n	100052fe <xTaskIncrementTick.part.0+0x122>
100052fa:	2301      	movs	r3, #1
100052fc:	9300      	str	r3, [sp, #0]
100052fe:	4b1a      	ldr	r3, [pc, #104]	@ (10005368 <xTaskIncrementTick.part.0+0x18c>)
10005300:	681b      	ldr	r3, [r3, #0]
10005302:	2b00      	cmp	r3, #0
10005304:	d001      	beq.n	1000530a <xTaskIncrementTick.part.0+0x12e>
10005306:	2301      	movs	r3, #1
10005308:	9300      	str	r3, [sp, #0]
1000530a:	9800      	ldr	r0, [sp, #0]
1000530c:	b003      	add	sp, #12
1000530e:	bcf0      	pop	{r4, r5, r6, r7}
10005310:	46bb      	mov	fp, r7
10005312:	46b2      	mov	sl, r6
10005314:	46a9      	mov	r9, r5
10005316:	46a0      	mov	r8, r4
10005318:	bdf0      	pop	{r4, r5, r6, r7, pc}
1000531a:	681b      	ldr	r3, [r3, #0]
1000531c:	68db      	ldr	r3, [r3, #12]
1000531e:	681a      	ldr	r2, [r3, #0]
10005320:	4b0a      	ldr	r3, [pc, #40]	@ (1000534c <xTaskIncrementTick.part.0+0x170>)
10005322:	601a      	str	r2, [r3, #0]
10005324:	e769      	b.n	100051fa <xTaskIncrementTick.part.0+0x1e>
10005326:	6050      	str	r0, [r2, #4]
10005328:	e78d      	b.n	10005246 <xTaskIncrementTick.part.0+0x6a>
1000532a:	9b01      	ldr	r3, [sp, #4]
1000532c:	601a      	str	r2, [r3, #0]
1000532e:	e7db      	b.n	100052e8 <xTaskIncrementTick.part.0+0x10c>
10005330:	9b01      	ldr	r3, [sp, #4]
10005332:	2201      	movs	r2, #1
10005334:	4252      	negs	r2, r2
10005336:	601a      	str	r2, [r3, #0]
10005338:	e7d6      	b.n	100052e8 <xTaskIncrementTick.part.0+0x10c>
1000533a:	2200      	movs	r2, #0
1000533c:	9200      	str	r2, [sp, #0]
1000533e:	4a05      	ldr	r2, [pc, #20]	@ (10005354 <xTaskIncrementTick.part.0+0x178>)
10005340:	4d05      	ldr	r5, [pc, #20]	@ (10005358 <xTaskIncrementTick.part.0+0x17c>)
10005342:	4693      	mov	fp, r2
10005344:	e7f5      	b.n	10005332 <xTaskIncrementTick.part.0+0x156>
10005346:	46c0      	nop			@ (mov r8, r8)
10005348:	200223cc 	.word	0x200223cc
1000534c:	2002238c 	.word	0x2002238c
10005350:	200020b4 	.word	0x200020b4
10005354:	200020b0 	.word	0x200020b0
10005358:	200020c0 	.word	0x200020c0
1000535c:	2002237c 	.word	0x2002237c
10005360:	200020bc 	.word	0x200020bc
10005364:	20022390 	.word	0x20022390
10005368:	200223d4 	.word	0x200223d4

1000536c <vTaskSuspendAll>:
1000536c:	4a02      	ldr	r2, [pc, #8]	@ (10005378 <vTaskSuspendAll+0xc>)
1000536e:	6813      	ldr	r3, [r2, #0]
10005370:	3301      	adds	r3, #1
10005372:	6013      	str	r3, [r2, #0]
10005374:	4770      	bx	lr
10005376:	46c0      	nop			@ (mov r8, r8)
10005378:	20022378 	.word	0x20022378

1000537c <xTaskResumeAll>:
1000537c:	b5f0      	push	{r4, r5, r6, r7, lr}
1000537e:	46de      	mov	lr, fp
10005380:	4657      	mov	r7, sl
10005382:	464e      	mov	r6, r9
10005384:	4645      	mov	r5, r8
10005386:	b5e0      	push	{r5, r6, r7, lr}
10005388:	b083      	sub	sp, #12
1000538a:	f7ff fbaf 	bl	10004aec <vPortEnterCritical>
1000538e:	4c53      	ldr	r4, [pc, #332]	@ (100054dc <xTaskResumeAll+0x160>)
10005390:	6823      	ldr	r3, [r4, #0]
10005392:	3b01      	subs	r3, #1
10005394:	6023      	str	r3, [r4, #0]
10005396:	6823      	ldr	r3, [r4, #0]
10005398:	2b00      	cmp	r3, #0
1000539a:	d000      	beq.n	1000539e <xTaskResumeAll+0x22>
1000539c:	e081      	b.n	100054a2 <xTaskResumeAll+0x126>
1000539e:	4b50      	ldr	r3, [pc, #320]	@ (100054e0 <xTaskResumeAll+0x164>)
100053a0:	681b      	ldr	r3, [r3, #0]
100053a2:	2b00      	cmp	r3, #0
100053a4:	d07d      	beq.n	100054a2 <xTaskResumeAll+0x126>
100053a6:	4b4f      	ldr	r3, [pc, #316]	@ (100054e4 <xTaskResumeAll+0x168>)
100053a8:	469c      	mov	ip, r3
100053aa:	681b      	ldr	r3, [r3, #0]
100053ac:	2b00      	cmp	r3, #0
100053ae:	d100      	bne.n	100053b2 <xTaskResumeAll+0x36>
100053b0:	e090      	b.n	100054d4 <xTaskResumeAll+0x158>
100053b2:	4b4d      	ldr	r3, [pc, #308]	@ (100054e8 <xTaskResumeAll+0x16c>)
100053b4:	4d4d      	ldr	r5, [pc, #308]	@ (100054ec <xTaskResumeAll+0x170>)
100053b6:	4698      	mov	r8, r3
100053b8:	4b4d      	ldr	r3, [pc, #308]	@ (100054f0 <xTaskResumeAll+0x174>)
100053ba:	9401      	str	r4, [sp, #4]
100053bc:	4699      	mov	r9, r3
100053be:	4b4d      	ldr	r3, [pc, #308]	@ (100054f4 <xTaskResumeAll+0x178>)
100053c0:	469a      	mov	sl, r3
100053c2:	2300      	movs	r3, #0
100053c4:	469b      	mov	fp, r3
100053c6:	4663      	mov	r3, ip
100053c8:	68db      	ldr	r3, [r3, #12]
100053ca:	68db      	ldr	r3, [r3, #12]
100053cc:	69d8      	ldr	r0, [r3, #28]
100053ce:	6a19      	ldr	r1, [r3, #32]
100053d0:	6a9a      	ldr	r2, [r3, #40]	@ 0x28
100053d2:	6081      	str	r1, [r0, #8]
100053d4:	6048      	str	r0, [r1, #4]
100053d6:	0018      	movs	r0, r3
100053d8:	6856      	ldr	r6, [r2, #4]
100053da:	3018      	adds	r0, #24
100053dc:	4286      	cmp	r6, r0
100053de:	d100      	bne.n	100053e2 <xTaskResumeAll+0x66>
100053e0:	e072      	b.n	100054c8 <xTaskResumeAll+0x14c>
100053e2:	4659      	mov	r1, fp
100053e4:	6299      	str	r1, [r3, #40]	@ 0x28
100053e6:	6811      	ldr	r1, [r2, #0]
100053e8:	3901      	subs	r1, #1
100053ea:	6011      	str	r1, [r2, #0]
100053ec:	695a      	ldr	r2, [r3, #20]
100053ee:	6898      	ldr	r0, [r3, #8]
100053f0:	68d9      	ldr	r1, [r3, #12]
100053f2:	6856      	ldr	r6, [r2, #4]
100053f4:	6081      	str	r1, [r0, #8]
100053f6:	6048      	str	r0, [r1, #4]
100053f8:	1d18      	adds	r0, r3, #4
100053fa:	4286      	cmp	r6, r0
100053fc:	d062      	beq.n	100054c4 <xTaskResumeAll+0x148>
100053fe:	6811      	ldr	r1, [r2, #0]
10005400:	3901      	subs	r1, #1
10005402:	6011      	str	r1, [r2, #0]
10005404:	4641      	mov	r1, r8
10005406:	6ada      	ldr	r2, [r3, #44]	@ 0x2c
10005408:	6809      	ldr	r1, [r1, #0]
1000540a:	428a      	cmp	r2, r1
1000540c:	d901      	bls.n	10005412 <xTaskResumeAll+0x96>
1000540e:	4641      	mov	r1, r8
10005410:	600a      	str	r2, [r1, #0]
10005412:	0091      	lsls	r1, r2, #2
10005414:	1889      	adds	r1, r1, r2
10005416:	008c      	lsls	r4, r1, #2
10005418:	192e      	adds	r6, r5, r4
1000541a:	6871      	ldr	r1, [r6, #4]
1000541c:	688f      	ldr	r7, [r1, #8]
1000541e:	6099      	str	r1, [r3, #8]
10005420:	60df      	str	r7, [r3, #12]
10005422:	6078      	str	r0, [r7, #4]
10005424:	6088      	str	r0, [r1, #8]
10005426:	615e      	str	r6, [r3, #20]
10005428:	592b      	ldr	r3, [r5, r4]
1000542a:	3301      	adds	r3, #1
1000542c:	512b      	str	r3, [r5, r4]
1000542e:	464b      	mov	r3, r9
10005430:	681b      	ldr	r3, [r3, #0]
10005432:	6adb      	ldr	r3, [r3, #44]	@ 0x2c
10005434:	429a      	cmp	r2, r3
10005436:	d93f      	bls.n	100054b8 <xTaskResumeAll+0x13c>
10005438:	4653      	mov	r3, sl
1000543a:	2201      	movs	r2, #1
1000543c:	601a      	str	r2, [r3, #0]
1000543e:	4663      	mov	r3, ip
10005440:	681b      	ldr	r3, [r3, #0]
10005442:	2b00      	cmp	r3, #0
10005444:	d1bf      	bne.n	100053c6 <xTaskResumeAll+0x4a>
10005446:	4b2c      	ldr	r3, [pc, #176]	@ (100054f8 <xTaskResumeAll+0x17c>)
10005448:	9c01      	ldr	r4, [sp, #4]
1000544a:	681a      	ldr	r2, [r3, #0]
1000544c:	6812      	ldr	r2, [r2, #0]
1000544e:	2a00      	cmp	r2, #0
10005450:	d03c      	beq.n	100054cc <xTaskResumeAll+0x150>
10005452:	681b      	ldr	r3, [r3, #0]
10005454:	68db      	ldr	r3, [r3, #12]
10005456:	681a      	ldr	r2, [r3, #0]
10005458:	4b28      	ldr	r3, [pc, #160]	@ (100054fc <xTaskResumeAll+0x180>)
1000545a:	601a      	str	r2, [r3, #0]
1000545c:	4e28      	ldr	r6, [pc, #160]	@ (10005500 <xTaskResumeAll+0x184>)
1000545e:	6835      	ldr	r5, [r6, #0]
10005460:	2d00      	cmp	r5, #0
10005462:	d014      	beq.n	1000548e <xTaskResumeAll+0x112>
10005464:	2701      	movs	r7, #1
10005466:	e008      	b.n	1000547a <xTaskResumeAll+0xfe>
10005468:	f7ff feb8 	bl	100051dc <xTaskIncrementTick.part.0>
1000546c:	2800      	cmp	r0, #0
1000546e:	d001      	beq.n	10005474 <xTaskResumeAll+0xf8>
10005470:	4653      	mov	r3, sl
10005472:	601f      	str	r7, [r3, #0]
10005474:	3d01      	subs	r5, #1
10005476:	2d00      	cmp	r5, #0
10005478:	d008      	beq.n	1000548c <xTaskResumeAll+0x110>
1000547a:	6823      	ldr	r3, [r4, #0]
1000547c:	2b00      	cmp	r3, #0
1000547e:	d0f3      	beq.n	10005468 <xTaskResumeAll+0xec>
10005480:	6833      	ldr	r3, [r6, #0]
10005482:	3d01      	subs	r5, #1
10005484:	3301      	adds	r3, #1
10005486:	6033      	str	r3, [r6, #0]
10005488:	2d00      	cmp	r5, #0
1000548a:	d1f6      	bne.n	1000547a <xTaskResumeAll+0xfe>
1000548c:	6035      	str	r5, [r6, #0]
1000548e:	4653      	mov	r3, sl
10005490:	681b      	ldr	r3, [r3, #0]
10005492:	2b00      	cmp	r3, #0
10005494:	d005      	beq.n	100054a2 <xTaskResumeAll+0x126>
10005496:	4b16      	ldr	r3, [pc, #88]	@ (100054f0 <xTaskResumeAll+0x174>)
10005498:	2401      	movs	r4, #1
1000549a:	681b      	ldr	r3, [r3, #0]
1000549c:	f7ff fb1a 	bl	10004ad4 <vPortYield>
100054a0:	e000      	b.n	100054a4 <xTaskResumeAll+0x128>
100054a2:	2400      	movs	r4, #0
100054a4:	f7ff fb2e 	bl	10004b04 <vPortExitCritical>
100054a8:	0020      	movs	r0, r4
100054aa:	b003      	add	sp, #12
100054ac:	bcf0      	pop	{r4, r5, r6, r7}
100054ae:	46bb      	mov	fp, r7
100054b0:	46b2      	mov	sl, r6
100054b2:	46a9      	mov	r9, r5
100054b4:	46a0      	mov	r8, r4
100054b6:	bdf0      	pop	{r4, r5, r6, r7, pc}
100054b8:	4663      	mov	r3, ip
100054ba:	681b      	ldr	r3, [r3, #0]
100054bc:	2b00      	cmp	r3, #0
100054be:	d000      	beq.n	100054c2 <xTaskResumeAll+0x146>
100054c0:	e781      	b.n	100053c6 <xTaskResumeAll+0x4a>
100054c2:	e7c0      	b.n	10005446 <xTaskResumeAll+0xca>
100054c4:	6051      	str	r1, [r2, #4]
100054c6:	e79a      	b.n	100053fe <xTaskResumeAll+0x82>
100054c8:	6051      	str	r1, [r2, #4]
100054ca:	e78a      	b.n	100053e2 <xTaskResumeAll+0x66>
100054cc:	4b0b      	ldr	r3, [pc, #44]	@ (100054fc <xTaskResumeAll+0x180>)
100054ce:	3a01      	subs	r2, #1
100054d0:	601a      	str	r2, [r3, #0]
100054d2:	e7c3      	b.n	1000545c <xTaskResumeAll+0xe0>
100054d4:	4b07      	ldr	r3, [pc, #28]	@ (100054f4 <xTaskResumeAll+0x178>)
100054d6:	469a      	mov	sl, r3
100054d8:	e7c0      	b.n	1000545c <xTaskResumeAll+0xe0>
100054da:	46c0      	nop			@ (mov r8, r8)
100054dc:	20022378 	.word	0x20022378
100054e0:	20022374 	.word	0x20022374
100054e4:	2002239c 	.word	0x2002239c
100054e8:	2002237c 	.word	0x2002237c
100054ec:	200020c0 	.word	0x200020c0
100054f0:	200020b0 	.word	0x200020b0
100054f4:	200223d4 	.word	0x200223d4
100054f8:	200020b4 	.word	0x200020b4
100054fc:	2002238c 	.word	0x2002238c
10005500:	20022398 	.word	0x20022398

10005504 <uxTaskGetNumberOfTasks>:
10005504:	4b01      	ldr	r3, [pc, #4]	@ (1000550c <uxTaskGetNumberOfTasks+0x8>)
10005506:	6818      	ldr	r0, [r3, #0]
10005508:	4770      	bx	lr
1000550a:	46c0      	nop			@ (mov r8, r8)
1000550c:	20022374 	.word	0x20022374

10005510 <vTaskPlaceOnUnorderedEventList>:
10005510:	2380      	movs	r3, #128	@ 0x80
10005512:	b5f0      	push	{r4, r5, r6, r7, lr}
10005514:	46c6      	mov	lr, r8
10005516:	4c29      	ldr	r4, [pc, #164]	@ (100055bc <vTaskPlaceOnUnorderedEventList+0xac>)
10005518:	0015      	movs	r5, r2
1000551a:	061b      	lsls	r3, r3, #24
1000551c:	6822      	ldr	r2, [r4, #0]
1000551e:	430b      	orrs	r3, r1
10005520:	b500      	push	{lr}
10005522:	6193      	str	r3, [r2, #24]
10005524:	6822      	ldr	r2, [r4, #0]
10005526:	6843      	ldr	r3, [r0, #4]
10005528:	6899      	ldr	r1, [r3, #8]
1000552a:	61d3      	str	r3, [r2, #28]
1000552c:	6822      	ldr	r2, [r4, #0]
1000552e:	6211      	str	r1, [r2, #32]
10005530:	6822      	ldr	r2, [r4, #0]
10005532:	3218      	adds	r2, #24
10005534:	604a      	str	r2, [r1, #4]
10005536:	6822      	ldr	r2, [r4, #0]
10005538:	2100      	movs	r1, #0
1000553a:	3218      	adds	r2, #24
1000553c:	609a      	str	r2, [r3, #8]
1000553e:	6823      	ldr	r3, [r4, #0]
10005540:	6298      	str	r0, [r3, #40]	@ 0x28
10005542:	6803      	ldr	r3, [r0, #0]
10005544:	3301      	adds	r3, #1
10005546:	6003      	str	r3, [r0, #0]
10005548:	4b1d      	ldr	r3, [pc, #116]	@ (100055c0 <vTaskPlaceOnUnorderedEventList+0xb0>)
1000554a:	681e      	ldr	r6, [r3, #0]
1000554c:	4b1d      	ldr	r3, [pc, #116]	@ (100055c4 <vTaskPlaceOnUnorderedEventList+0xb4>)
1000554e:	681f      	ldr	r7, [r3, #0]
10005550:	4b1d      	ldr	r3, [pc, #116]	@ (100055c8 <vTaskPlaceOnUnorderedEventList+0xb8>)
10005552:	681b      	ldr	r3, [r3, #0]
10005554:	6822      	ldr	r2, [r4, #0]
10005556:	4698      	mov	r8, r3
10005558:	2351      	movs	r3, #81	@ 0x51
1000555a:	6820      	ldr	r0, [r4, #0]
1000555c:	54d1      	strb	r1, [r2, r3]
1000555e:	3004      	adds	r0, #4
10005560:	f7ff fd4a 	bl	10004ff8 <uxListRemove>
10005564:	1c6b      	adds	r3, r5, #1
10005566:	d015      	beq.n	10005594 <vTaskPlaceOnUnorderedEventList+0x84>
10005568:	6823      	ldr	r3, [r4, #0]
1000556a:	6821      	ldr	r1, [r4, #0]
1000556c:	19ad      	adds	r5, r5, r6
1000556e:	605d      	str	r5, [r3, #4]
10005570:	3104      	adds	r1, #4
10005572:	42ae      	cmp	r6, r5
10005574:	d905      	bls.n	10005582 <vTaskPlaceOnUnorderedEventList+0x72>
10005576:	4640      	mov	r0, r8
10005578:	f7ff fd26 	bl	10004fc8 <vListInsert>
1000557c:	bc80      	pop	{r7}
1000557e:	46b8      	mov	r8, r7
10005580:	bdf0      	pop	{r4, r5, r6, r7, pc}
10005582:	0038      	movs	r0, r7
10005584:	f7ff fd20 	bl	10004fc8 <vListInsert>
10005588:	4b10      	ldr	r3, [pc, #64]	@ (100055cc <vTaskPlaceOnUnorderedEventList+0xbc>)
1000558a:	681a      	ldr	r2, [r3, #0]
1000558c:	4295      	cmp	r5, r2
1000558e:	d2f5      	bcs.n	1000557c <vTaskPlaceOnUnorderedEventList+0x6c>
10005590:	601d      	str	r5, [r3, #0]
10005592:	e7f3      	b.n	1000557c <vTaskPlaceOnUnorderedEventList+0x6c>
10005594:	4b0e      	ldr	r3, [pc, #56]	@ (100055d0 <vTaskPlaceOnUnorderedEventList+0xc0>)
10005596:	6821      	ldr	r1, [r4, #0]
10005598:	685a      	ldr	r2, [r3, #4]
1000559a:	608a      	str	r2, [r1, #8]
1000559c:	6890      	ldr	r0, [r2, #8]
1000559e:	6821      	ldr	r1, [r4, #0]
100055a0:	60c8      	str	r0, [r1, #12]
100055a2:	6821      	ldr	r1, [r4, #0]
100055a4:	3104      	adds	r1, #4
100055a6:	6041      	str	r1, [r0, #4]
100055a8:	6821      	ldr	r1, [r4, #0]
100055aa:	3104      	adds	r1, #4
100055ac:	6091      	str	r1, [r2, #8]
100055ae:	6822      	ldr	r2, [r4, #0]
100055b0:	6153      	str	r3, [r2, #20]
100055b2:	681a      	ldr	r2, [r3, #0]
100055b4:	3201      	adds	r2, #1
100055b6:	601a      	str	r2, [r3, #0]
100055b8:	e7e0      	b.n	1000557c <vTaskPlaceOnUnorderedEventList+0x6c>
100055ba:	46c0      	nop			@ (mov r8, r8)
100055bc:	200020b0 	.word	0x200020b0
100055c0:	200223cc 	.word	0x200223cc
100055c4:	200020b4 	.word	0x200020b4
100055c8:	200020bc 	.word	0x200020bc
100055cc:	2002238c 	.word	0x2002238c
100055d0:	200223b8 	.word	0x200223b8

100055d4 <xTaskRemoveFromEventList>:
100055d4:	68c3      	ldr	r3, [r0, #12]
100055d6:	b5f0      	push	{r4, r5, r6, r7, lr}
100055d8:	68db      	ldr	r3, [r3, #12]
100055da:	69d8      	ldr	r0, [r3, #28]
100055dc:	6a19      	ldr	r1, [r3, #32]
100055de:	6a9a      	ldr	r2, [r3, #40]	@ 0x28
100055e0:	6081      	str	r1, [r0, #8]
100055e2:	6048      	str	r0, [r1, #4]
100055e4:	0018      	movs	r0, r3
100055e6:	6854      	ldr	r4, [r2, #4]
100055e8:	3018      	adds	r0, #24
100055ea:	4284      	cmp	r4, r0
100055ec:	d041      	beq.n	10005672 <xTaskRemoveFromEventList+0x9e>
100055ee:	2100      	movs	r1, #0
100055f0:	6299      	str	r1, [r3, #40]	@ 0x28
100055f2:	6811      	ldr	r1, [r2, #0]
100055f4:	3901      	subs	r1, #1
100055f6:	6011      	str	r1, [r2, #0]
100055f8:	4a23      	ldr	r2, [pc, #140]	@ (10005688 <xTaskRemoveFromEventList+0xb4>)
100055fa:	6ad9      	ldr	r1, [r3, #44]	@ 0x2c
100055fc:	6812      	ldr	r2, [r2, #0]
100055fe:	2a00      	cmp	r2, #0
10005600:	d129      	bne.n	10005656 <xTaskRemoveFromEventList+0x82>
10005602:	695a      	ldr	r2, [r3, #20]
10005604:	689c      	ldr	r4, [r3, #8]
10005606:	68d8      	ldr	r0, [r3, #12]
10005608:	1d1d      	adds	r5, r3, #4
1000560a:	60a0      	str	r0, [r4, #8]
1000560c:	6044      	str	r4, [r0, #4]
1000560e:	6854      	ldr	r4, [r2, #4]
10005610:	42ac      	cmp	r4, r5
10005612:	d030      	beq.n	10005676 <xTaskRemoveFromEventList+0xa2>
10005614:	6810      	ldr	r0, [r2, #0]
10005616:	3801      	subs	r0, #1
10005618:	6010      	str	r0, [r2, #0]
1000561a:	4a1c      	ldr	r2, [pc, #112]	@ (1000568c <xTaskRemoveFromEventList+0xb8>)
1000561c:	6810      	ldr	r0, [r2, #0]
1000561e:	4288      	cmp	r0, r1
10005620:	d325      	bcc.n	1000566e <xTaskRemoveFromEventList+0x9a>
10005622:	008a      	lsls	r2, r1, #2
10005624:	481a      	ldr	r0, [pc, #104]	@ (10005690 <xTaskRemoveFromEventList+0xbc>)
10005626:	1852      	adds	r2, r2, r1
10005628:	0092      	lsls	r2, r2, #2
1000562a:	1886      	adds	r6, r0, r2
1000562c:	6874      	ldr	r4, [r6, #4]
1000562e:	68a7      	ldr	r7, [r4, #8]
10005630:	609c      	str	r4, [r3, #8]
10005632:	60df      	str	r7, [r3, #12]
10005634:	607d      	str	r5, [r7, #4]
10005636:	60a5      	str	r5, [r4, #8]
10005638:	615e      	str	r6, [r3, #20]
1000563a:	5883      	ldr	r3, [r0, r2]
1000563c:	3301      	adds	r3, #1
1000563e:	5083      	str	r3, [r0, r2]
10005640:	4b14      	ldr	r3, [pc, #80]	@ (10005694 <xTaskRemoveFromEventList+0xc0>)
10005642:	2000      	movs	r0, #0
10005644:	681b      	ldr	r3, [r3, #0]
10005646:	6adb      	ldr	r3, [r3, #44]	@ 0x2c
10005648:	428b      	cmp	r3, r1
1000564a:	d203      	bcs.n	10005654 <xTaskRemoveFromEventList+0x80>
1000564c:	2201      	movs	r2, #1
1000564e:	4b12      	ldr	r3, [pc, #72]	@ (10005698 <xTaskRemoveFromEventList+0xc4>)
10005650:	3001      	adds	r0, #1
10005652:	601a      	str	r2, [r3, #0]
10005654:	bdf0      	pop	{r4, r5, r6, r7, pc}
10005656:	4a11      	ldr	r2, [pc, #68]	@ (1000569c <xTaskRemoveFromEventList+0xc8>)
10005658:	6854      	ldr	r4, [r2, #4]
1000565a:	68a5      	ldr	r5, [r4, #8]
1000565c:	61dc      	str	r4, [r3, #28]
1000565e:	621d      	str	r5, [r3, #32]
10005660:	6068      	str	r0, [r5, #4]
10005662:	60a0      	str	r0, [r4, #8]
10005664:	629a      	str	r2, [r3, #40]	@ 0x28
10005666:	6813      	ldr	r3, [r2, #0]
10005668:	3301      	adds	r3, #1
1000566a:	6013      	str	r3, [r2, #0]
1000566c:	e7e8      	b.n	10005640 <xTaskRemoveFromEventList+0x6c>
1000566e:	6011      	str	r1, [r2, #0]
10005670:	e7d7      	b.n	10005622 <xTaskRemoveFromEventList+0x4e>
10005672:	6051      	str	r1, [r2, #4]
10005674:	e7bb      	b.n	100055ee <xTaskRemoveFromEventList+0x1a>
10005676:	6050      	str	r0, [r2, #4]
10005678:	6810      	ldr	r0, [r2, #0]
1000567a:	3801      	subs	r0, #1
1000567c:	6010      	str	r0, [r2, #0]
1000567e:	4a03      	ldr	r2, [pc, #12]	@ (1000568c <xTaskRemoveFromEventList+0xb8>)
10005680:	6810      	ldr	r0, [r2, #0]
10005682:	4288      	cmp	r0, r1
10005684:	d2cd      	bcs.n	10005622 <xTaskRemoveFromEventList+0x4e>
10005686:	e7f2      	b.n	1000566e <xTaskRemoveFromEventList+0x9a>
10005688:	20022378 	.word	0x20022378
1000568c:	2002237c 	.word	0x2002237c
10005690:	200020c0 	.word	0x200020c0
10005694:	200020b0 	.word	0x200020b0
10005698:	200223d4 	.word	0x200223d4
1000569c:	2002239c 	.word	0x2002239c

100056a0 <vTaskRemoveFromUnorderedEventList>:
100056a0:	2380      	movs	r3, #128	@ 0x80
100056a2:	061b      	lsls	r3, r3, #24
100056a4:	b5f0      	push	{r4, r5, r6, r7, lr}
100056a6:	6902      	ldr	r2, [r0, #16]
100056a8:	6844      	ldr	r4, [r0, #4]
100056aa:	430b      	orrs	r3, r1
100056ac:	6881      	ldr	r1, [r0, #8]
100056ae:	6003      	str	r3, [r0, #0]
100056b0:	68c3      	ldr	r3, [r0, #12]
100056b2:	60a1      	str	r1, [r4, #8]
100056b4:	604c      	str	r4, [r1, #4]
100056b6:	6854      	ldr	r4, [r2, #4]
100056b8:	4284      	cmp	r4, r0
100056ba:	d02e      	beq.n	1000571a <vTaskRemoveFromUnorderedEventList+0x7a>
100056bc:	2100      	movs	r1, #0
100056be:	6101      	str	r1, [r0, #16]
100056c0:	6811      	ldr	r1, [r2, #0]
100056c2:	6898      	ldr	r0, [r3, #8]
100056c4:	3901      	subs	r1, #1
100056c6:	6011      	str	r1, [r2, #0]
100056c8:	695a      	ldr	r2, [r3, #20]
100056ca:	68d9      	ldr	r1, [r3, #12]
100056cc:	1d1d      	adds	r5, r3, #4
100056ce:	6081      	str	r1, [r0, #8]
100056d0:	6048      	str	r0, [r1, #4]
100056d2:	6850      	ldr	r0, [r2, #4]
100056d4:	42a8      	cmp	r0, r5
100056d6:	d022      	beq.n	1000571e <vTaskRemoveFromUnorderedEventList+0x7e>
100056d8:	6811      	ldr	r1, [r2, #0]
100056da:	3901      	subs	r1, #1
100056dc:	6011      	str	r1, [r2, #0]
100056de:	4a11      	ldr	r2, [pc, #68]	@ (10005724 <vTaskRemoveFromUnorderedEventList+0x84>)
100056e0:	6ad9      	ldr	r1, [r3, #44]	@ 0x2c
100056e2:	6810      	ldr	r0, [r2, #0]
100056e4:	4281      	cmp	r1, r0
100056e6:	d900      	bls.n	100056ea <vTaskRemoveFromUnorderedEventList+0x4a>
100056e8:	6011      	str	r1, [r2, #0]
100056ea:	008a      	lsls	r2, r1, #2
100056ec:	480e      	ldr	r0, [pc, #56]	@ (10005728 <vTaskRemoveFromUnorderedEventList+0x88>)
100056ee:	1852      	adds	r2, r2, r1
100056f0:	0092      	lsls	r2, r2, #2
100056f2:	1886      	adds	r6, r0, r2
100056f4:	6874      	ldr	r4, [r6, #4]
100056f6:	68a7      	ldr	r7, [r4, #8]
100056f8:	609c      	str	r4, [r3, #8]
100056fa:	60df      	str	r7, [r3, #12]
100056fc:	607d      	str	r5, [r7, #4]
100056fe:	60a5      	str	r5, [r4, #8]
10005700:	615e      	str	r6, [r3, #20]
10005702:	5883      	ldr	r3, [r0, r2]
10005704:	3301      	adds	r3, #1
10005706:	5083      	str	r3, [r0, r2]
10005708:	4b08      	ldr	r3, [pc, #32]	@ (1000572c <vTaskRemoveFromUnorderedEventList+0x8c>)
1000570a:	681b      	ldr	r3, [r3, #0]
1000570c:	6adb      	ldr	r3, [r3, #44]	@ 0x2c
1000570e:	4299      	cmp	r1, r3
10005710:	d902      	bls.n	10005718 <vTaskRemoveFromUnorderedEventList+0x78>
10005712:	2201      	movs	r2, #1
10005714:	4b06      	ldr	r3, [pc, #24]	@ (10005730 <vTaskRemoveFromUnorderedEventList+0x90>)
10005716:	601a      	str	r2, [r3, #0]
10005718:	bdf0      	pop	{r4, r5, r6, r7, pc}
1000571a:	6051      	str	r1, [r2, #4]
1000571c:	e7ce      	b.n	100056bc <vTaskRemoveFromUnorderedEventList+0x1c>
1000571e:	6051      	str	r1, [r2, #4]
10005720:	e7da      	b.n	100056d8 <vTaskRemoveFromUnorderedEventList+0x38>
10005722:	46c0      	nop			@ (mov r8, r8)
10005724:	2002237c 	.word	0x2002237c
10005728:	200020c0 	.word	0x200020c0
1000572c:	200020b0 	.word	0x200020b0
10005730:	200223d4 	.word	0x200223d4

10005734 <xTaskGetCurrentTaskHandle>:
10005734:	4b01      	ldr	r3, [pc, #4]	@ (1000573c <xTaskGetCurrentTaskHandle+0x8>)
10005736:	6818      	ldr	r0, [r3, #0]
10005738:	4770      	bx	lr
1000573a:	46c0      	nop			@ (mov r8, r8)
1000573c:	200020b0 	.word	0x200020b0

10005740 <xTaskPriorityDisinherit>:
10005740:	b570      	push	{r4, r5, r6, lr}
10005742:	1e04      	subs	r4, r0, #0
10005744:	d008      	beq.n	10005758 <xTaskPriorityDisinherit+0x18>
10005746:	6c83      	ldr	r3, [r0, #72]	@ 0x48
10005748:	6ac1      	ldr	r1, [r0, #44]	@ 0x2c
1000574a:	6c42      	ldr	r2, [r0, #68]	@ 0x44
1000574c:	3b01      	subs	r3, #1
1000574e:	6483      	str	r3, [r0, #72]	@ 0x48
10005750:	4291      	cmp	r1, r2
10005752:	d001      	beq.n	10005758 <xTaskPriorityDisinherit+0x18>
10005754:	2b00      	cmp	r3, #0
10005756:	d001      	beq.n	1000575c <xTaskPriorityDisinherit+0x1c>
10005758:	2000      	movs	r0, #0
1000575a:	bd70      	pop	{r4, r5, r6, pc}
1000575c:	1d05      	adds	r5, r0, #4
1000575e:	0028      	movs	r0, r5
10005760:	f7ff fc4a 	bl	10004ff8 <uxListRemove>
10005764:	2320      	movs	r3, #32
10005766:	6c62      	ldr	r2, [r4, #68]	@ 0x44
10005768:	1a9b      	subs	r3, r3, r2
1000576a:	61a3      	str	r3, [r4, #24]
1000576c:	4b0b      	ldr	r3, [pc, #44]	@ (1000579c <xTaskPriorityDisinherit+0x5c>)
1000576e:	62e2      	str	r2, [r4, #44]	@ 0x2c
10005770:	6819      	ldr	r1, [r3, #0]
10005772:	428a      	cmp	r2, r1
10005774:	d900      	bls.n	10005778 <xTaskPriorityDisinherit+0x38>
10005776:	601a      	str	r2, [r3, #0]
10005778:	0093      	lsls	r3, r2, #2
1000577a:	4909      	ldr	r1, [pc, #36]	@ (100057a0 <xTaskPriorityDisinherit+0x60>)
1000577c:	189b      	adds	r3, r3, r2
1000577e:	009b      	lsls	r3, r3, #2
10005780:	18c8      	adds	r0, r1, r3
10005782:	6842      	ldr	r2, [r0, #4]
10005784:	6896      	ldr	r6, [r2, #8]
10005786:	60a2      	str	r2, [r4, #8]
10005788:	60e6      	str	r6, [r4, #12]
1000578a:	6075      	str	r5, [r6, #4]
1000578c:	6095      	str	r5, [r2, #8]
1000578e:	58ca      	ldr	r2, [r1, r3]
10005790:	6160      	str	r0, [r4, #20]
10005792:	3201      	adds	r2, #1
10005794:	2001      	movs	r0, #1
10005796:	50ca      	str	r2, [r1, r3]
10005798:	e7df      	b.n	1000575a <xTaskPriorityDisinherit+0x1a>
1000579a:	46c0      	nop			@ (mov r8, r8)
1000579c:	2002237c 	.word	0x2002237c
100057a0:	200020c0 	.word	0x200020c0

100057a4 <uxTaskResetEventItemValue>:
100057a4:	4b04      	ldr	r3, [pc, #16]	@ (100057b8 <uxTaskResetEventItemValue+0x14>)
100057a6:	681a      	ldr	r2, [r3, #0]
100057a8:	6819      	ldr	r1, [r3, #0]
100057aa:	6990      	ldr	r0, [r2, #24]
100057ac:	681a      	ldr	r2, [r3, #0]
100057ae:	2320      	movs	r3, #32
100057b0:	6ac9      	ldr	r1, [r1, #44]	@ 0x2c
100057b2:	1a5b      	subs	r3, r3, r1
100057b4:	6193      	str	r3, [r2, #24]
100057b6:	4770      	bx	lr
100057b8:	200020b0 	.word	0x200020b0

100057bc <xTimerPendFunctionCallFromISR>:
100057bc:	b510      	push	{r4, lr}
100057be:	0014      	movs	r4, r2
100057c0:	001a      	movs	r2, r3
100057c2:	2302      	movs	r3, #2
100057c4:	b084      	sub	sp, #16
100057c6:	425b      	negs	r3, r3
100057c8:	9300      	str	r3, [sp, #0]
100057ca:	4b05      	ldr	r3, [pc, #20]	@ (100057e0 <xTimerPendFunctionCallFromISR+0x24>)
100057cc:	9001      	str	r0, [sp, #4]
100057ce:	9102      	str	r1, [sp, #8]
100057d0:	6818      	ldr	r0, [r3, #0]
100057d2:	4669      	mov	r1, sp
100057d4:	2300      	movs	r3, #0
100057d6:	9403      	str	r4, [sp, #12]
100057d8:	f7ff fc66 	bl	100050a8 <xQueueGenericSendFromISR>
100057dc:	b004      	add	sp, #16
100057de:	bd10      	pop	{r4, pc}
100057e0:	200223d0 	.word	0x200223d0

100057e4 <atexit>:
100057e4:	b510      	push	{r4, lr}
100057e6:	0001      	movs	r1, r0
100057e8:	2300      	movs	r3, #0
100057ea:	2200      	movs	r2, #0
100057ec:	2000      	movs	r0, #0
100057ee:	f000 f843 	bl	10005878 <__register_exitproc>
100057f2:	bd10      	pop	{r4, pc}

100057f4 <strlen>:
100057f4:	b510      	push	{r4, lr}
100057f6:	0783      	lsls	r3, r0, #30
100057f8:	d00a      	beq.n	10005810 <strlen+0x1c>
100057fa:	0003      	movs	r3, r0
100057fc:	2103      	movs	r1, #3
100057fe:	e002      	b.n	10005806 <strlen+0x12>
10005800:	3301      	adds	r3, #1
10005802:	420b      	tst	r3, r1
10005804:	d005      	beq.n	10005812 <strlen+0x1e>
10005806:	781a      	ldrb	r2, [r3, #0]
10005808:	2a00      	cmp	r2, #0
1000580a:	d1f9      	bne.n	10005800 <strlen+0xc>
1000580c:	1a18      	subs	r0, r3, r0
1000580e:	bd10      	pop	{r4, pc}
10005810:	0003      	movs	r3, r0
10005812:	6819      	ldr	r1, [r3, #0]
10005814:	4a0c      	ldr	r2, [pc, #48]	@ (10005848 <strlen+0x54>)
10005816:	4c0d      	ldr	r4, [pc, #52]	@ (1000584c <strlen+0x58>)
10005818:	188a      	adds	r2, r1, r2
1000581a:	438a      	bics	r2, r1
1000581c:	4222      	tst	r2, r4
1000581e:	d10f      	bne.n	10005840 <strlen+0x4c>
10005820:	6859      	ldr	r1, [r3, #4]
10005822:	4a09      	ldr	r2, [pc, #36]	@ (10005848 <strlen+0x54>)
10005824:	3304      	adds	r3, #4
10005826:	188a      	adds	r2, r1, r2
10005828:	438a      	bics	r2, r1
1000582a:	4222      	tst	r2, r4
1000582c:	d108      	bne.n	10005840 <strlen+0x4c>
1000582e:	6859      	ldr	r1, [r3, #4]
10005830:	4a05      	ldr	r2, [pc, #20]	@ (10005848 <strlen+0x54>)
10005832:	3304      	adds	r3, #4
10005834:	188a      	adds	r2, r1, r2
10005836:	438a      	bics	r2, r1
10005838:	4222      	tst	r2, r4
1000583a:	d0f1      	beq.n	10005820 <strlen+0x2c>
1000583c:	e000      	b.n	10005840 <strlen+0x4c>
1000583e:	3301      	adds	r3, #1
10005840:	781a      	ldrb	r2, [r3, #0]
10005842:	2a00      	cmp	r2, #0
10005844:	d1fb      	bne.n	1000583e <strlen+0x4a>
10005846:	e7e1      	b.n	1000580c <strlen+0x18>
10005848:	fefefeff 	.word	0xfefefeff
1000584c:	80808080 	.word	0x80808080

10005850 <__libc_fini_array>:
10005850:	b570      	push	{r4, r5, r6, lr}
10005852:	4c07      	ldr	r4, [pc, #28]	@ (10005870 <__libc_fini_array+0x20>)
10005854:	4d07      	ldr	r5, [pc, #28]	@ (10005874 <__libc_fini_array+0x24>)
10005856:	1b64      	subs	r4, r4, r5
10005858:	10a4      	asrs	r4, r4, #2
1000585a:	d005      	beq.n	10005868 <__libc_fini_array+0x18>
1000585c:	3c01      	subs	r4, #1
1000585e:	00a3      	lsls	r3, r4, #2
10005860:	58eb      	ldr	r3, [r5, r3]
10005862:	4798      	blx	r3
10005864:	2c00      	cmp	r4, #0
10005866:	d1f9      	bne.n	1000585c <__libc_fini_array+0xc>
10005868:	f000 f84e 	bl	10005908 <_fini>
1000586c:	bd70      	pop	{r4, r5, r6, pc}
1000586e:	46c0      	nop			@ (mov r8, r8)
10005870:	10005a1c 	.word	0x10005a1c
10005874:	10005a1c 	.word	0x10005a1c

10005878 <__register_exitproc>:
10005878:	b5f0      	push	{r4, r5, r6, r7, lr}
1000587a:	46c6      	mov	lr, r8
1000587c:	4c1a      	ldr	r4, [pc, #104]	@ (100058e8 <__register_exitproc+0x70>)
1000587e:	b500      	push	{lr}
10005880:	6825      	ldr	r5, [r4, #0]
10005882:	2d00      	cmp	r5, #0
10005884:	d02a      	beq.n	100058dc <__register_exitproc+0x64>
10005886:	686c      	ldr	r4, [r5, #4]
10005888:	2c1f      	cmp	r4, #31
1000588a:	dc2a      	bgt.n	100058e2 <__register_exitproc+0x6a>
1000588c:	2800      	cmp	r0, #0
1000588e:	d108      	bne.n	100058a2 <__register_exitproc+0x2a>
10005890:	2000      	movs	r0, #0
10005892:	1c63      	adds	r3, r4, #1
10005894:	3402      	adds	r4, #2
10005896:	00a4      	lsls	r4, r4, #2
10005898:	606b      	str	r3, [r5, #4]
1000589a:	5161      	str	r1, [r4, r5]
1000589c:	bc80      	pop	{r7}
1000589e:	46b8      	mov	r8, r7
100058a0:	bdf0      	pop	{r4, r5, r6, r7, pc}
100058a2:	2788      	movs	r7, #136	@ 0x88
100058a4:	00a6      	lsls	r6, r4, #2
100058a6:	19ae      	adds	r6, r5, r6
100058a8:	51f2      	str	r2, [r6, r7]
100058aa:	3701      	adds	r7, #1
100058ac:	37ff      	adds	r7, #255	@ 0xff
100058ae:	46bc      	mov	ip, r7
100058b0:	2201      	movs	r2, #1
100058b2:	44ac      	add	ip, r5
100058b4:	4667      	mov	r7, ip
100058b6:	40a2      	lsls	r2, r4
100058b8:	683f      	ldr	r7, [r7, #0]
100058ba:	4690      	mov	r8, r2
100058bc:	4317      	orrs	r7, r2
100058be:	4662      	mov	r2, ip
100058c0:	6017      	str	r7, [r2, #0]
100058c2:	2784      	movs	r7, #132	@ 0x84
100058c4:	007f      	lsls	r7, r7, #1
100058c6:	51f3      	str	r3, [r6, r7]
100058c8:	2802      	cmp	r0, #2
100058ca:	d1e1      	bne.n	10005890 <__register_exitproc+0x18>
100058cc:	0028      	movs	r0, r5
100058ce:	4642      	mov	r2, r8
100058d0:	308d      	adds	r0, #141	@ 0x8d
100058d2:	30ff      	adds	r0, #255	@ 0xff
100058d4:	6803      	ldr	r3, [r0, #0]
100058d6:	4313      	orrs	r3, r2
100058d8:	6003      	str	r3, [r0, #0]
100058da:	e7d9      	b.n	10005890 <__register_exitproc+0x18>
100058dc:	4d03      	ldr	r5, [pc, #12]	@ (100058ec <__register_exitproc+0x74>)
100058de:	6025      	str	r5, [r4, #0]
100058e0:	e7d1      	b.n	10005886 <__register_exitproc+0xe>
100058e2:	2001      	movs	r0, #1
100058e4:	4240      	negs	r0, r0
100058e6:	e7d9      	b.n	1000589c <__register_exitproc+0x24>
100058e8:	20001584 	.word	0x20001584
100058ec:	200013f4 	.word	0x200013f4

100058f0 <register_fini>:
100058f0:	4b03      	ldr	r3, [pc, #12]	@ (10005900 <register_fini+0x10>)
100058f2:	b510      	push	{r4, lr}
100058f4:	2b00      	cmp	r3, #0
100058f6:	d002      	beq.n	100058fe <register_fini+0xe>
100058f8:	4802      	ldr	r0, [pc, #8]	@ (10005904 <register_fini+0x14>)
100058fa:	f7ff ff73 	bl	100057e4 <atexit>
100058fe:	bd10      	pop	{r4, pc}
10005900:	00000000 	.word	0x00000000
10005904:	10005851 	.word	0x10005851

10005908 <_fini>:
10005908:	b5f8      	push	{r3, r4, r5, r6, r7, lr}
1000590a:	46c0      	nop			@ (mov r8, r8)
1000590c:	0000      	movs	r0, r0
	...

10005910 <__e15_is_bulkin_ep_veneer>:
10005910:	b401      	push	{r0}
10005912:	4802      	ldr	r0, [pc, #8]	@ (1000591c <__e15_is_bulkin_ep_veneer+0xc>)
10005914:	4684      	mov	ip, r0
10005916:	bc01      	pop	{r0}
10005918:	4760      	bx	ip
1000591a:	bf00      	nop
1000591c:	20000b85 	.word	0x20000b85

10005920 <__flash_do_cmd_veneer>:
10005920:	b401      	push	{r0}
10005922:	4802      	ldr	r0, [pc, #8]	@ (1000592c <__flash_do_cmd_veneer+0xc>)
10005924:	4684      	mov	ip, r0
10005926:	bc01      	pop	{r0}
10005928:	4760      	bx	ip
1000592a:	bf00      	nop
1000592c:	200002ad 	.word	0x200002ad

10005930 <__mutex_exit_veneer>:
10005930:	b401      	push	{r0}
10005932:	4802      	ldr	r0, [pc, #8]	@ (1000593c <__mutex_exit_veneer+0xc>)
10005934:	4684      	mov	ip, r0
10005936:	bc01      	pop	{r0}
10005938:	4760      	bx	ip
1000593a:	bf00      	nop
1000593c:	20000219 	.word	0x20000219

10005940 <____aeabi_ldiv0_veneer>:
10005940:	b401      	push	{r0}
10005942:	4802      	ldr	r0, [pc, #8]	@ (1000594c <____aeabi_ldiv0_veneer+0xc>)
10005944:	4684      	mov	ip, r0
10005946:	bc01      	pop	{r0}
10005948:	4760      	bx	ip
1000594a:	bf00      	nop
1000594c:	20000ecd 	.word	0x20000ecd

10005950 <__reset_non_control_endpoints_veneer>:
10005950:	b401      	push	{r0}
10005952:	4802      	ldr	r0, [pc, #8]	@ (1000595c <__reset_non_control_endpoints_veneer+0xc>)
10005954:	4684      	mov	ip, r0
10005956:	bc01      	pop	{r0}
10005958:	4760      	bx	ip
1000595a:	bf00      	nop
1000595c:	2000036d 	.word	0x2000036d

10005960 <____aeabi_idiv0_veneer>:
10005960:	b401      	push	{r0}
10005962:	4802      	ldr	r0, [pc, #8]	@ (1000596c <____aeabi_idiv0_veneer+0xc>)
10005964:	4684      	mov	ip, r0
10005966:	bc01      	pop	{r0}
10005968:	4760      	bx	ip
1000596a:	bf00      	nop
1000596c:	20000ecd 	.word	0x20000ecd

10005970 <__mutex_try_enter_veneer>:
10005970:	b401      	push	{r0}
10005972:	4802      	ldr	r0, [pc, #8]	@ (1000597c <__mutex_try_enter_veneer+0xc>)
10005974:	4684      	mov	ip, r0
10005976:	bc01      	pop	{r0}
10005978:	4760      	bx	ip
1000597a:	bf00      	nop
1000597c:	200000c1 	.word	0x200000c1

10005980 <__mutex_enter_timeout_ms_veneer>:
10005980:	b401      	push	{r0}
10005982:	4802      	ldr	r0, [pc, #8]	@ (1000598c <__mutex_enter_timeout_ms_veneer+0xc>)
10005984:	4684      	mov	ip, r0
10005986:	bc01      	pop	{r0}
10005988:	4760      	bx	ip
1000598a:	bf00      	nop
1000598c:	200001a1 	.word	0x200001a1

10005990 <__mutex_try_enter_block_until_veneer>:
10005990:	b401      	push	{r0}
10005992:	4802      	ldr	r0, [pc, #8]	@ (1000599c <__mutex_try_enter_block_until_veneer+0xc>)
10005994:	4684      	mov	ip, r0
10005996:	bc01      	pop	{r0}
10005998:	4760      	bx	ip
1000599a:	bf00      	nop
1000599c:	20000101 	.word	0x20000101

100059a0 <__hw_endpoint_start_next_buffer_veneer>:
100059a0:	b401      	push	{r0}
100059a2:	4802      	ldr	r0, [pc, #8]	@ (100059ac <__hw_endpoint_start_next_buffer_veneer+0xc>)
100059a4:	4684      	mov	ip, r0
100059a6:	bc01      	pop	{r0}
100059a8:	4760      	bx	ip
100059aa:	bf00      	nop
100059ac:	20000c3d 	.word	0x20000c3d

100059b0 <__e15_is_critical_frame_period_veneer>:
100059b0:	b401      	push	{r0}
100059b2:	4802      	ldr	r0, [pc, #8]	@ (100059bc <__e15_is_critical_frame_period_veneer+0xc>)
100059b4:	4684      	mov	ip, r0
100059b6:	bc01      	pop	{r0}
100059b8:	4760      	bx	ip
100059ba:	bf00      	nop
100059bc:	20000bad 	.word	0x20000bad

100059c0 <___hw_endpoint_buffer_control_update32_veneer>:
100059c0:	b401      	push	{r0}
100059c2:	4802      	ldr	r0, [pc, #8]	@ (100059cc <___hw_endpoint_buffer_control_update32_veneer+0xc>)
100059c4:	4684      	mov	ip, r0
100059c6:	bc01      	pop	{r0}
100059c8:	4760      	bx	ip
100059ca:	bf00      	nop
100059cc:	20000bed 	.word	0x20000bed

100059d0 <__pre_init_runtime_init_early_resets>:
100059d0:	1000169d                                ....

100059d4 <__pre_init_runtime_init_usb_power_down>:
100059d4:	100016c9 10001815 10001e29 10001c95     ........).......
100059e4:	10001d99                                ....

100059e8 <__pre_init_runtime_init_clocks>:
100059e8:	1000173d                                =...

100059ec <__pre_init_runtime_init_post_clock_resets>:
100059ec:	100016e5                                ....

100059f0 <__pre_init_runtime_init_rp2040_gpio_ie_disable>:
100059f0:	10001705                                ....

100059f4 <__pre_init_runtime_init_spin_locks_reset>:
100059f4:	10001719                                ....

100059f8 <__pre_init_runtime_init_mutex>:
100059f8:	10000985                                ....

100059fc <__pre_init_runtime_init_install_ram_vector_table>:
100059fc:	10001721                                !...

10005a00 <__pre_init_runtime_init_default_alarm_pool>:
10005a00:	10000d45                                E...

10005a04 <__pre_init_first_per_core_initializer>:
10005a04:	10001665                                e...

10005a08 <__pre_init_runtime_init_per_core_irq_priorities>:
10005a08:	100005b9                                ....

10005a0c <__init_array_start>:
10005a0c:	100058f1 	.word	0x100058f1

10005a10 <__frame_dummy_init_array_entry>:
10005a10:	100002fd 10002731 10004d8d              ....1'...M..

Disassembly of section .data:

200000c0 <mutex_try_enter>:
200000c0:	b570      	push	{r4, r5, r6, lr}
200000c2:	6802      	ldr	r2, [r0, #0]
200000c4:	0004      	movs	r4, r0
200000c6:	f3ef 8510 	mrs	r5, PRIMASK
200000ca:	b672      	cpsid	i
200000cc:	6813      	ldr	r3, [r2, #0]
200000ce:	2b00      	cmp	r3, #0
200000d0:	d0fc      	beq.n	200000cc <mutex_try_enter+0xc>
200000d2:	f3bf 8f5f 	dmb	sy
200000d6:	6863      	ldr	r3, [r4, #4]
200000d8:	1c5a      	adds	r2, r3, #1
200000da:	d00b      	beq.n	200000f4 <mutex_try_enter+0x34>
200000dc:	2900      	cmp	r1, #0
200000de:	d000      	beq.n	200000e2 <mutex_try_enter+0x22>
200000e0:	600b      	str	r3, [r1, #0]
200000e2:	2000      	movs	r0, #0
200000e4:	6823      	ldr	r3, [r4, #0]
200000e6:	f3bf 8f5f 	dmb	sy
200000ea:	2200      	movs	r2, #0
200000ec:	601a      	str	r2, [r3, #0]
200000ee:	f385 8810 	msr	PRIMASK, r5
200000f2:	bd70      	pop	{r4, r5, r6, pc}
200000f4:	f000 fefc 	bl	20000ef0 <__ulPortLockGetCurrentOwnerId_veneer>
200000f8:	6060      	str	r0, [r4, #4]
200000fa:	2001      	movs	r0, #1
200000fc:	e7f2      	b.n	200000e4 <mutex_try_enter+0x24>
200000fe:	46c0      	nop			@ (mov r8, r8)

20000100 <mutex_try_enter_block_until>:
20000100:	b5f0      	push	{r4, r5, r6, r7, lr}
20000102:	46c6      	mov	lr, r8
20000104:	0016      	movs	r6, r2
20000106:	b500      	push	{lr}
20000108:	0004      	movs	r4, r0
2000010a:	001f      	movs	r7, r3
2000010c:	6802      	ldr	r2, [r0, #0]
2000010e:	f3ef 8810 	mrs	r8, PRIMASK
20000112:	b672      	cpsid	i
20000114:	6813      	ldr	r3, [r2, #0]
20000116:	2b00      	cmp	r3, #0
20000118:	d0fc      	beq.n	20000114 <mutex_try_enter_block_until+0x14>
2000011a:	f3bf 8f5f 	dmb	sy
2000011e:	6865      	ldr	r5, [r4, #4]
20000120:	1c6b      	adds	r3, r5, #1
20000122:	d00e      	beq.n	20000142 <mutex_try_enter_block_until+0x42>
20000124:	6823      	ldr	r3, [r4, #0]
20000126:	f3bf 8f5f 	dmb	sy
2000012a:	2200      	movs	r2, #0
2000012c:	601a      	str	r2, [r3, #0]
2000012e:	f388 8810 	msr	PRIMASK, r8
20000132:	f000 fedd 	bl	20000ef0 <__ulPortLockGetCurrentOwnerId_veneer>
20000136:	42a8      	cmp	r0, r5
20000138:	d10f      	bne.n	2000015a <mutex_try_enter_block_until+0x5a>
2000013a:	2000      	movs	r0, #0
2000013c:	bc80      	pop	{r7}
2000013e:	46b8      	mov	r8, r7
20000140:	bdf0      	pop	{r4, r5, r6, r7, pc}
20000142:	f000 fed5 	bl	20000ef0 <__ulPortLockGetCurrentOwnerId_veneer>
20000146:	6823      	ldr	r3, [r4, #0]
20000148:	6060      	str	r0, [r4, #4]
2000014a:	f3bf 8f5f 	dmb	sy
2000014e:	2200      	movs	r2, #0
20000150:	601a      	str	r2, [r3, #0]
20000152:	f388 8810 	msr	PRIMASK, r8
20000156:	2001      	movs	r0, #1
20000158:	e7f0      	b.n	2000013c <mutex_try_enter_block_until+0x3c>
2000015a:	f000 fec9 	bl	20000ef0 <__ulPortLockGetCurrentOwnerId_veneer>
2000015e:	4680      	mov	r8, r0
20000160:	e006      	b.n	20000170 <mutex_try_enter_block_until+0x70>
20000162:	0032      	movs	r2, r6
20000164:	003b      	movs	r3, r7
20000166:	0020      	movs	r0, r4
20000168:	f000 feba 	bl	20000ee0 <__xPortLockInternalSpinUnlockWithBestEffortWaitOrTimeout_veneer>
2000016c:	2800      	cmp	r0, #0
2000016e:	d1e4      	bne.n	2000013a <mutex_try_enter_block_until+0x3a>
20000170:	6822      	ldr	r2, [r4, #0]
20000172:	f3ef 8110 	mrs	r1, PRIMASK
20000176:	b672      	cpsid	i
20000178:	6813      	ldr	r3, [r2, #0]
2000017a:	2b00      	cmp	r3, #0
2000017c:	d0fc      	beq.n	20000178 <mutex_try_enter_block_until+0x78>
2000017e:	f3bf 8f5f 	dmb	sy
20000182:	6865      	ldr	r5, [r4, #4]
20000184:	3501      	adds	r5, #1
20000186:	d1ec      	bne.n	20000162 <mutex_try_enter_block_until+0x62>
20000188:	4643      	mov	r3, r8
2000018a:	6063      	str	r3, [r4, #4]
2000018c:	6823      	ldr	r3, [r4, #0]
2000018e:	f3bf 8f5f 	dmb	sy
20000192:	2200      	movs	r2, #0
20000194:	601a      	str	r2, [r3, #0]
20000196:	f381 8810 	msr	PRIMASK, r1
2000019a:	2001      	movs	r0, #1
2000019c:	e7ce      	b.n	2000013c <mutex_try_enter_block_until+0x3c>
2000019e:	46c0      	nop			@ (mov r8, r8)

200001a0 <mutex_enter_timeout_ms>:
200001a0:	b5f8      	push	{r3, r4, r5, r6, r7, lr}
200001a2:	000d      	movs	r5, r1
200001a4:	0004      	movs	r4, r0
200001a6:	f000 feb3 	bl	20000f10 <__time_us_64_veneer>
200001aa:	22fa      	movs	r2, #250	@ 0xfa
200001ac:	0006      	movs	r6, r0
200001ae:	000f      	movs	r7, r1
200001b0:	2300      	movs	r3, #0
200001b2:	0028      	movs	r0, r5
200001b4:	2100      	movs	r1, #0
200001b6:	0092      	lsls	r2, r2, #2
200001b8:	f000 fed2 	bl	20000f60 <____wrap___aeabi_lmul_veneer>
200001bc:	2380      	movs	r3, #128	@ 0x80
200001be:	1836      	adds	r6, r6, r0
200001c0:	414f      	adcs	r7, r1
200001c2:	061b      	lsls	r3, r3, #24
200001c4:	429f      	cmp	r7, r3
200001c6:	d302      	bcc.n	200001ce <mutex_enter_timeout_ms+0x2e>
200001c8:	2601      	movs	r6, #1
200001ca:	4f12      	ldr	r7, [pc, #72]	@ (20000214 <mutex_enter_timeout_ms+0x74>)
200001cc:	4276      	negs	r6, r6
200001ce:	f000 fe8f 	bl	20000ef0 <__ulPortLockGetCurrentOwnerId_veneer>
200001d2:	0005      	movs	r5, r0
200001d4:	e006      	b.n	200001e4 <mutex_enter_timeout_ms+0x44>
200001d6:	0032      	movs	r2, r6
200001d8:	003b      	movs	r3, r7
200001da:	0020      	movs	r0, r4
200001dc:	f000 fe80 	bl	20000ee0 <__xPortLockInternalSpinUnlockWithBestEffortWaitOrTimeout_veneer>
200001e0:	2800      	cmp	r0, #0
200001e2:	d115      	bne.n	20000210 <mutex_enter_timeout_ms+0x70>
200001e4:	6822      	ldr	r2, [r4, #0]
200001e6:	f3ef 8110 	mrs	r1, PRIMASK
200001ea:	b672      	cpsid	i
200001ec:	6813      	ldr	r3, [r2, #0]
200001ee:	2b00      	cmp	r3, #0
200001f0:	d0fc      	beq.n	200001ec <mutex_enter_timeout_ms+0x4c>
200001f2:	f3bf 8f5f 	dmb	sy
200001f6:	6863      	ldr	r3, [r4, #4]
200001f8:	3301      	adds	r3, #1
200001fa:	d1ec      	bne.n	200001d6 <mutex_enter_timeout_ms+0x36>
200001fc:	6065      	str	r5, [r4, #4]
200001fe:	6823      	ldr	r3, [r4, #0]
20000200:	f3bf 8f5f 	dmb	sy
20000204:	2200      	movs	r2, #0
20000206:	601a      	str	r2, [r3, #0]
20000208:	f381 8810 	msr	PRIMASK, r1
2000020c:	2001      	movs	r0, #1
2000020e:	bdf8      	pop	{r3, r4, r5, r6, r7, pc}
20000210:	2000      	movs	r0, #0
20000212:	e7fc      	b.n	2000020e <mutex_enter_timeout_ms+0x6e>
20000214:	7fffffff 	.word	0x7fffffff

20000218 <mutex_exit>:
20000218:	b510      	push	{r4, lr}
2000021a:	6802      	ldr	r2, [r0, #0]
2000021c:	f3ef 8110 	mrs	r1, PRIMASK
20000220:	b672      	cpsid	i
20000222:	6813      	ldr	r3, [r2, #0]
20000224:	2b00      	cmp	r3, #0
20000226:	d0fc      	beq.n	20000222 <mutex_exit+0xa>
20000228:	f3bf 8f5f 	dmb	sy
2000022c:	2301      	movs	r3, #1
2000022e:	425b      	negs	r3, r3
20000230:	6043      	str	r3, [r0, #4]
20000232:	f000 fe8d 	bl	20000f50 <__vPortLockInternalSpinUnlockWithNotify_veneer>
20000236:	bd10      	pop	{r4, pc}

20000238 <flash_init_boot2_copyout>:
20000238:	b510      	push	{r4, lr}
2000023a:	4c08      	ldr	r4, [pc, #32]	@ (2000025c <flash_init_boot2_copyout+0x24>)
2000023c:	7823      	ldrb	r3, [r4, #0]
2000023e:	2b00      	cmp	r3, #0
20000240:	d10a      	bne.n	20000258 <flash_init_boot2_copyout+0x20>
20000242:	2380      	movs	r3, #128	@ 0x80
20000244:	4806      	ldr	r0, [pc, #24]	@ (20000260 <flash_init_boot2_copyout+0x28>)
20000246:	4907      	ldr	r1, [pc, #28]	@ (20000264 <flash_init_boot2_copyout+0x2c>)
20000248:	055b      	lsls	r3, r3, #21
2000024a:	681a      	ldr	r2, [r3, #0]
2000024c:	50c2      	str	r2, [r0, r3]
2000024e:	3304      	adds	r3, #4
20000250:	428b      	cmp	r3, r1
20000252:	d1fa      	bne.n	2000024a <flash_init_boot2_copyout+0x12>
20000254:	2301      	movs	r3, #1
20000256:	7023      	strb	r3, [r4, #0]
20000258:	bd10      	pop	{r4, pc}
2000025a:	46c0      	nop			@ (mov r8, r8)
2000025c:	200223dc 	.word	0x200223dc
20000260:	10001b1c 	.word	0x10001b1c
20000264:	10000100 	.word	0x10000100

20000268 <flash_enable_xip_via_boot2>:
20000268:	b510      	push	{r4, lr}
2000026a:	4b01      	ldr	r3, [pc, #4]	@ (20000270 <flash_enable_xip_via_boot2+0x8>)
2000026c:	4798      	blx	r3
2000026e:	bd10      	pop	{r4, pc}
20000270:	20001b1d 	.word	0x20001b1d

20000274 <flash_cs_force.constprop.0>:
20000274:	4b03      	ldr	r3, [pc, #12]	@ (20000284 <flash_cs_force.constprop.0+0x10>)
20000276:	681a      	ldr	r2, [r3, #0]
20000278:	23c0      	movs	r3, #192	@ 0xc0
2000027a:	009b      	lsls	r3, r3, #2
2000027c:	4393      	bics	r3, r2
2000027e:	4a02      	ldr	r2, [pc, #8]	@ (20000288 <flash_cs_force.constprop.0+0x14>)
20000280:	6013      	str	r3, [r2, #0]
20000282:	4770      	bx	lr
20000284:	4001800c 	.word	0x4001800c
20000288:	4001900c 	.word	0x4001900c

2000028c <flash_cs_force.constprop.1>:
2000028c:	4b05      	ldr	r3, [pc, #20]	@ (200002a4 <flash_cs_force.constprop.1+0x18>)
2000028e:	681a      	ldr	r2, [r3, #0]
20000290:	2380      	movs	r3, #128	@ 0x80
20000292:	009b      	lsls	r3, r3, #2
20000294:	4053      	eors	r3, r2
20000296:	22c0      	movs	r2, #192	@ 0xc0
20000298:	0092      	lsls	r2, r2, #2
2000029a:	4013      	ands	r3, r2
2000029c:	4a02      	ldr	r2, [pc, #8]	@ (200002a8 <flash_cs_force.constprop.1+0x1c>)
2000029e:	6013      	str	r3, [r2, #0]
200002a0:	4770      	bx	lr
200002a2:	46c0      	nop			@ (mov r8, r8)
200002a4:	4001800c 	.word	0x4001800c
200002a8:	4001900c 	.word	0x4001900c

200002ac <flash_do_cmd>:
200002ac:	2314      	movs	r3, #20
200002ae:	b5f0      	push	{r4, r5, r6, r7, lr}
200002b0:	46d6      	mov	lr, sl
200002b2:	464f      	mov	r7, r9
200002b4:	4646      	mov	r6, r8
200002b6:	469a      	mov	sl, r3
200002b8:	4681      	mov	r9, r0
200002ba:	8818      	ldrh	r0, [r3, #0]
200002bc:	3304      	adds	r3, #4
200002be:	b5c0      	push	{r6, r7, lr}
200002c0:	4698      	mov	r8, r3
200002c2:	000e      	movs	r6, r1
200002c4:	881b      	ldrh	r3, [r3, #0]
200002c6:	4926      	ldr	r1, [pc, #152]	@ (20000360 <flash_do_cmd+0xb4>)
200002c8:	0014      	movs	r4, r2
200002ca:	4798      	blx	r3
200002cc:	4653      	mov	r3, sl
200002ce:	0007      	movs	r7, r0
200002d0:	8818      	ldrh	r0, [r3, #0]
200002d2:	4643      	mov	r3, r8
200002d4:	4923      	ldr	r1, [pc, #140]	@ (20000364 <flash_do_cmd+0xb8>)
200002d6:	881b      	ldrh	r3, [r3, #0]
200002d8:	4798      	blx	r3
200002da:	4653      	mov	r3, sl
200002dc:	0005      	movs	r5, r0
200002de:	8818      	ldrh	r0, [r3, #0]
200002e0:	4643      	mov	r3, r8
200002e2:	4921      	ldr	r1, [pc, #132]	@ (20000368 <flash_do_cmd+0xbc>)
200002e4:	881b      	ldrh	r3, [r3, #0]
200002e6:	4798      	blx	r3
200002e8:	4680      	mov	r8, r0
200002ea:	f7ff ffa5 	bl	20000238 <flash_init_boot2_copyout>
200002ee:	47b8      	blx	r7
200002f0:	47a8      	blx	r5
200002f2:	f7ff ffcb 	bl	2000028c <flash_cs_force.constprop.1>
200002f6:	1e22      	subs	r2, r4, #0
200002f8:	d020      	beq.n	2000033c <flash_do_cmd+0x90>
200002fa:	21c0      	movs	r1, #192	@ 0xc0
200002fc:	2708      	movs	r7, #8
200002fe:	2002      	movs	r0, #2
20000300:	0549      	lsls	r1, r1, #21
20000302:	e011      	b.n	20000328 <flash_do_cmd+0x7c>
20000304:	2c00      	cmp	r4, #0
20000306:	d014      	beq.n	20000332 <flash_do_cmd+0x86>
20000308:	1b13      	subs	r3, r2, r4
2000030a:	2b0d      	cmp	r3, #13
2000030c:	d920      	bls.n	20000350 <flash_do_cmd+0xa4>
2000030e:	2d00      	cmp	r5, #0
20000310:	d00a      	beq.n	20000328 <flash_do_cmd+0x7c>
20000312:	0023      	movs	r3, r4
20000314:	2a00      	cmp	r2, #0
20000316:	d005      	beq.n	20000324 <flash_do_cmd+0x78>
20000318:	6e0b      	ldr	r3, [r1, #96]	@ 0x60
2000031a:	3a01      	subs	r2, #1
2000031c:	7033      	strb	r3, [r6, #0]
2000031e:	0013      	movs	r3, r2
20000320:	3601      	adds	r6, #1
20000322:	4323      	orrs	r3, r4
20000324:	2b00      	cmp	r3, #0
20000326:	d009      	beq.n	2000033c <flash_do_cmd+0x90>
20000328:	003d      	movs	r5, r7
2000032a:	6a8b      	ldr	r3, [r1, #40]	@ 0x28
2000032c:	401d      	ands	r5, r3
2000032e:	4218      	tst	r0, r3
20000330:	d1e8      	bne.n	20000304 <flash_do_cmd+0x58>
20000332:	2d00      	cmp	r5, #0
20000334:	d1ed      	bne.n	20000312 <flash_do_cmd+0x66>
20000336:	0023      	movs	r3, r4
20000338:	4313      	orrs	r3, r2
2000033a:	d1f5      	bne.n	20000328 <flash_do_cmd+0x7c>
2000033c:	f7ff ff9a 	bl	20000274 <flash_cs_force.constprop.0>
20000340:	47c0      	blx	r8
20000342:	f7ff ff91 	bl	20000268 <flash_enable_xip_via_boot2>
20000346:	bce0      	pop	{r5, r6, r7}
20000348:	46ba      	mov	sl, r7
2000034a:	46b1      	mov	r9, r6
2000034c:	46a8      	mov	r8, r5
2000034e:	bdf0      	pop	{r4, r5, r6, r7, pc}
20000350:	464b      	mov	r3, r9
20000352:	781b      	ldrb	r3, [r3, #0]
20000354:	3c01      	subs	r4, #1
20000356:	660b      	str	r3, [r1, #96]	@ 0x60
20000358:	2301      	movs	r3, #1
2000035a:	469c      	mov	ip, r3
2000035c:	44e1      	add	r9, ip
2000035e:	e7e8      	b.n	20000332 <flash_do_cmd+0x86>
20000360:	00004649 	.word	0x00004649
20000364:	00005845 	.word	0x00005845
20000368:	00004346 	.word	0x00004346

2000036c <reset_non_control_endpoints>:
2000036c:	2200      	movs	r2, #0
2000036e:	4b15      	ldr	r3, [pc, #84]	@ (200003c4 <reset_non_control_endpoints+0x58>)
20000370:	b510      	push	{r4, lr}
20000372:	609a      	str	r2, [r3, #8]
20000374:	60da      	str	r2, [r3, #12]
20000376:	611a      	str	r2, [r3, #16]
20000378:	615a      	str	r2, [r3, #20]
2000037a:	619a      	str	r2, [r3, #24]
2000037c:	61da      	str	r2, [r3, #28]
2000037e:	621a      	str	r2, [r3, #32]
20000380:	625a      	str	r2, [r3, #36]	@ 0x24
20000382:	629a      	str	r2, [r3, #40]	@ 0x28
20000384:	62da      	str	r2, [r3, #44]	@ 0x2c
20000386:	631a      	str	r2, [r3, #48]	@ 0x30
20000388:	635a      	str	r2, [r3, #52]	@ 0x34
2000038a:	639a      	str	r2, [r3, #56]	@ 0x38
2000038c:	63da      	str	r2, [r3, #60]	@ 0x3c
2000038e:	641a      	str	r2, [r3, #64]	@ 0x40
20000390:	645a      	str	r2, [r3, #68]	@ 0x44
20000392:	649a      	str	r2, [r3, #72]	@ 0x48
20000394:	64da      	str	r2, [r3, #76]	@ 0x4c
20000396:	651a      	str	r2, [r3, #80]	@ 0x50
20000398:	655a      	str	r2, [r3, #84]	@ 0x54
2000039a:	659a      	str	r2, [r3, #88]	@ 0x58
2000039c:	65da      	str	r2, [r3, #92]	@ 0x5c
2000039e:	661a      	str	r2, [r3, #96]	@ 0x60
200003a0:	665a      	str	r2, [r3, #100]	@ 0x64
200003a2:	669a      	str	r2, [r3, #104]	@ 0x68
200003a4:	66da      	str	r2, [r3, #108]	@ 0x6c
200003a6:	671a      	str	r2, [r3, #112]	@ 0x70
200003a8:	675a      	str	r2, [r3, #116]	@ 0x74
200003aa:	679a      	str	r2, [r3, #120]	@ 0x78
200003ac:	67da      	str	r2, [r3, #124]	@ 0x7c
200003ae:	32f0      	adds	r2, #240	@ 0xf0
200003b0:	0092      	lsls	r2, r2, #2
200003b2:	2100      	movs	r1, #0
200003b4:	4804      	ldr	r0, [pc, #16]	@ (200003c8 <reset_non_control_endpoints+0x5c>)
200003b6:	f000 fda3 	bl	20000f00 <____wrap_memset_veneer>
200003ba:	4b04      	ldr	r3, [pc, #16]	@ (200003cc <reset_non_control_endpoints+0x60>)
200003bc:	4a04      	ldr	r2, [pc, #16]	@ (200003d0 <reset_non_control_endpoints+0x64>)
200003be:	601a      	str	r2, [r3, #0]
200003c0:	bd10      	pop	{r4, pc}
200003c2:	46c0      	nop			@ (mov r8, r8)
200003c4:	50100000 	.word	0x50100000
200003c8:	20001cc8 	.word	0x20001cc8
200003cc:	20002090 	.word	0x20002090
200003d0:	50100180 	.word	0x50100180

200003d4 <hw_handle_buff_status>:
200003d4:	b5f0      	push	{r4, r5, r6, r7, lr}
200003d6:	464e      	mov	r6, r9
200003d8:	4645      	mov	r5, r8
200003da:	46de      	mov	lr, fp
200003dc:	4657      	mov	r7, sl
200003de:	b5e0      	push	{r5, r6, r7, lr}
200003e0:	4b21      	ldr	r3, [pc, #132]	@ (20000468 <hw_handle_buff_status+0x94>)
200003e2:	2400      	movs	r4, #0
200003e4:	6d9e      	ldr	r6, [r3, #88]	@ 0x58
200003e6:	2501      	movs	r5, #1
200003e8:	b085      	sub	sp, #20
200003ea:	2e00      	cmp	r6, #0
200003ec:	d022      	beq.n	20000434 <hw_handle_buff_status+0x60>
200003ee:	4b1f      	ldr	r3, [pc, #124]	@ (2000046c <hw_handle_buff_status+0x98>)
200003f0:	469a      	mov	sl, r3
200003f2:	2301      	movs	r3, #1
200003f4:	4699      	mov	r9, r3
200003f6:	4b1e      	ldr	r3, [pc, #120]	@ (20000470 <hw_handle_buff_status+0x9c>)
200003f8:	4698      	mov	r8, r3
200003fa:	e001      	b.n	20000400 <hw_handle_buff_status+0x2c>
200003fc:	2c20      	cmp	r4, #32
200003fe:	d019      	beq.n	20000434 <hw_handle_buff_status+0x60>
20000400:	002a      	movs	r2, r5
20000402:	0023      	movs	r3, r4
20000404:	3401      	adds	r4, #1
20000406:	002f      	movs	r7, r5
20000408:	4032      	ands	r2, r6
2000040a:	b2e4      	uxtb	r4, r4
2000040c:	006d      	lsls	r5, r5, #1
2000040e:	2a00      	cmp	r2, #0
20000410:	d0f4      	beq.n	200003fc <hw_handle_buff_status+0x28>
20000412:	4652      	mov	r2, sl
20000414:	6597      	str	r7, [r2, #88]	@ 0x58
20000416:	464a      	mov	r2, r9
20000418:	085b      	lsrs	r3, r3, #1
2000041a:	005b      	lsls	r3, r3, #1
2000041c:	4022      	ands	r2, r4
2000041e:	189b      	adds	r3, r3, r2
20000420:	015b      	lsls	r3, r3, #5
20000422:	4443      	add	r3, r8
20000424:	0018      	movs	r0, r3
20000426:	469b      	mov	fp, r3
20000428:	f000 fc3e 	bl	20000ca8 <hw_endpoint_xfer_continue>
2000042c:	2800      	cmp	r0, #0
2000042e:	d108      	bne.n	20000442 <hw_handle_buff_status+0x6e>
20000430:	43be      	bics	r6, r7
20000432:	d1e3      	bne.n	200003fc <hw_handle_buff_status+0x28>
20000434:	b005      	add	sp, #20
20000436:	bcf0      	pop	{r4, r5, r6, r7}
20000438:	46bb      	mov	fp, r7
2000043a:	46b2      	mov	sl, r6
2000043c:	46a9      	mov	r9, r5
2000043e:	46a0      	mov	r8, r4
20000440:	bdf0      	pop	{r4, r5, r6, r7, pc}
20000442:	465b      	mov	r3, fp
20000444:	21e0      	movs	r1, #224	@ 0xe0
20000446:	789a      	ldrb	r2, [r3, #2]
20000448:	8adb      	ldrh	r3, [r3, #22]
2000044a:	a801      	add	r0, sp, #4
2000044c:	6083      	str	r3, [r0, #8]
2000044e:	2300      	movs	r3, #0
20000450:	00c9      	lsls	r1, r1, #3
20000452:	8001      	strh	r1, [r0, #0]
20000454:	2101      	movs	r1, #1
20000456:	7102      	strb	r2, [r0, #4]
20000458:	7143      	strb	r3, [r0, #5]
2000045a:	f000 fc45 	bl	20000ce8 <dcd_event_handler>
2000045e:	4658      	mov	r0, fp
20000460:	f000 fbbe 	bl	20000be0 <hw_endpoint_reset_transfer>
20000464:	e7e4      	b.n	20000430 <hw_handle_buff_status+0x5c>
20000466:	46c0      	nop			@ (mov r8, r8)
20000468:	50110000 	.word	0x50110000
2000046c:	50113000 	.word	0x50113000
20000470:	20001c88 	.word	0x20001c88

20000474 <dcd_rp2040_irq>:
20000474:	2398      	movs	r3, #152	@ 0x98
20000476:	b5f0      	push	{r4, r5, r6, r7, lr}
20000478:	4646      	mov	r6, r8
2000047a:	46d6      	mov	lr, sl
2000047c:	464f      	mov	r7, r9
2000047e:	4acd      	ldr	r2, [pc, #820]	@ (200007b4 <dcd_rp2040_irq+0x340>)
20000480:	b5c0      	push	{r6, r7, lr}
20000482:	58d5      	ldr	r5, [r2, r3]
20000484:	2380      	movs	r3, #128	@ 0x80
20000486:	002e      	movs	r6, r5
20000488:	029b      	lsls	r3, r3, #10
2000048a:	2410      	movs	r4, #16
2000048c:	b084      	sub	sp, #16
2000048e:	401e      	ands	r6, r3
20000490:	421d      	tst	r5, r3
20000492:	d073      	beq.n	2000057c <dcd_rp2040_irq+0x108>
20000494:	4bc8      	ldr	r3, [pc, #800]	@ (200007b8 <dcd_rp2040_irq+0x344>)
20000496:	4cc9      	ldr	r4, [pc, #804]	@ (200007bc <dcd_rp2040_irq+0x348>)
20000498:	6a9a      	ldr	r2, [r3, #40]	@ 0x28
2000049a:	4bc9      	ldr	r3, [pc, #804]	@ (200007c0 <dcd_rp2040_irq+0x34c>)
2000049c:	2600      	movs	r6, #0
2000049e:	601a      	str	r2, [r3, #0]
200004a0:	233b      	movs	r3, #59	@ 0x3b
200004a2:	5ce3      	ldrb	r3, [r4, r3]
200004a4:	2b02      	cmp	r3, #2
200004a6:	d100      	bne.n	200004aa <dcd_rp2040_irq+0x36>
200004a8:	e102      	b.n	200006b0 <dcd_rp2040_irq+0x23c>
200004aa:	237b      	movs	r3, #123	@ 0x7b
200004ac:	5ce3      	ldrb	r3, [r4, r3]
200004ae:	2b02      	cmp	r3, #2
200004b0:	d100      	bne.n	200004b4 <dcd_rp2040_irq+0x40>
200004b2:	e1dd      	b.n	20000870 <dcd_rp2040_irq+0x3fc>
200004b4:	23bb      	movs	r3, #187	@ 0xbb
200004b6:	5ce3      	ldrb	r3, [r4, r3]
200004b8:	2b02      	cmp	r3, #2
200004ba:	d100      	bne.n	200004be <dcd_rp2040_irq+0x4a>
200004bc:	e1cd      	b.n	2000085a <dcd_rp2040_irq+0x3e6>
200004be:	23fb      	movs	r3, #251	@ 0xfb
200004c0:	5ce3      	ldrb	r3, [r4, r3]
200004c2:	2b02      	cmp	r3, #2
200004c4:	d100      	bne.n	200004c8 <dcd_rp2040_irq+0x54>
200004c6:	e1bd      	b.n	20000844 <dcd_rp2040_irq+0x3d0>
200004c8:	233c      	movs	r3, #60	@ 0x3c
200004ca:	33ff      	adds	r3, #255	@ 0xff
200004cc:	5ce3      	ldrb	r3, [r4, r3]
200004ce:	2b02      	cmp	r3, #2
200004d0:	d100      	bne.n	200004d4 <dcd_rp2040_irq+0x60>
200004d2:	e1ab      	b.n	2000082c <dcd_rp2040_irq+0x3b8>
200004d4:	237c      	movs	r3, #124	@ 0x7c
200004d6:	33ff      	adds	r3, #255	@ 0xff
200004d8:	5ce3      	ldrb	r3, [r4, r3]
200004da:	2b02      	cmp	r3, #2
200004dc:	d100      	bne.n	200004e0 <dcd_rp2040_irq+0x6c>
200004de:	e199      	b.n	20000814 <dcd_rp2040_irq+0x3a0>
200004e0:	23bc      	movs	r3, #188	@ 0xbc
200004e2:	33ff      	adds	r3, #255	@ 0xff
200004e4:	5ce3      	ldrb	r3, [r4, r3]
200004e6:	2b02      	cmp	r3, #2
200004e8:	d100      	bne.n	200004ec <dcd_rp2040_irq+0x78>
200004ea:	e155      	b.n	20000798 <dcd_rp2040_irq+0x324>
200004ec:	23fc      	movs	r3, #252	@ 0xfc
200004ee:	33ff      	adds	r3, #255	@ 0xff
200004f0:	5ce3      	ldrb	r3, [r4, r3]
200004f2:	2b02      	cmp	r3, #2
200004f4:	d100      	bne.n	200004f8 <dcd_rp2040_irq+0x84>
200004f6:	e142      	b.n	2000077e <dcd_rp2040_irq+0x30a>
200004f8:	4bb2      	ldr	r3, [pc, #712]	@ (200007c4 <dcd_rp2040_irq+0x350>)
200004fa:	5ce3      	ldrb	r3, [r4, r3]
200004fc:	2b02      	cmp	r3, #2
200004fe:	d100      	bne.n	20000502 <dcd_rp2040_irq+0x8e>
20000500:	e131      	b.n	20000766 <dcd_rp2040_irq+0x2f2>
20000502:	4bb1      	ldr	r3, [pc, #708]	@ (200007c8 <dcd_rp2040_irq+0x354>)
20000504:	5ce3      	ldrb	r3, [r4, r3]
20000506:	2b02      	cmp	r3, #2
20000508:	d100      	bne.n	2000050c <dcd_rp2040_irq+0x98>
2000050a:	e120      	b.n	2000074e <dcd_rp2040_irq+0x2da>
2000050c:	4baf      	ldr	r3, [pc, #700]	@ (200007cc <dcd_rp2040_irq+0x358>)
2000050e:	5ce3      	ldrb	r3, [r4, r3]
20000510:	2b02      	cmp	r3, #2
20000512:	d100      	bne.n	20000516 <dcd_rp2040_irq+0xa2>
20000514:	e10f      	b.n	20000736 <dcd_rp2040_irq+0x2c2>
20000516:	4bae      	ldr	r3, [pc, #696]	@ (200007d0 <dcd_rp2040_irq+0x35c>)
20000518:	5ce3      	ldrb	r3, [r4, r3]
2000051a:	2b02      	cmp	r3, #2
2000051c:	d100      	bne.n	20000520 <dcd_rp2040_irq+0xac>
2000051e:	e0fe      	b.n	2000071e <dcd_rp2040_irq+0x2aa>
20000520:	4bac      	ldr	r3, [pc, #688]	@ (200007d4 <dcd_rp2040_irq+0x360>)
20000522:	5ce3      	ldrb	r3, [r4, r3]
20000524:	2b02      	cmp	r3, #2
20000526:	d100      	bne.n	2000052a <dcd_rp2040_irq+0xb6>
20000528:	e0ed      	b.n	20000706 <dcd_rp2040_irq+0x292>
2000052a:	4bab      	ldr	r3, [pc, #684]	@ (200007d8 <dcd_rp2040_irq+0x364>)
2000052c:	5ce3      	ldrb	r3, [r4, r3]
2000052e:	2b02      	cmp	r3, #2
20000530:	d100      	bne.n	20000534 <dcd_rp2040_irq+0xc0>
20000532:	e0ce      	b.n	200006d2 <dcd_rp2040_irq+0x25e>
20000534:	4ba9      	ldr	r3, [pc, #676]	@ (200007dc <dcd_rp2040_irq+0x368>)
20000536:	5ce3      	ldrb	r3, [r4, r3]
20000538:	2b02      	cmp	r3, #2
2000053a:	d100      	bne.n	2000053e <dcd_rp2040_irq+0xca>
2000053c:	e1a3      	b.n	20000886 <dcd_rp2040_irq+0x412>
2000053e:	4ba8      	ldr	r3, [pc, #672]	@ (200007e0 <dcd_rp2040_irq+0x36c>)
20000540:	5ce3      	ldrb	r3, [r4, r3]
20000542:	2b02      	cmp	r3, #2
20000544:	d100      	bne.n	20000548 <dcd_rp2040_irq+0xd4>
20000546:	e1ba      	b.n	200008be <dcd_rp2040_irq+0x44a>
20000548:	2e00      	cmp	r6, #0
2000054a:	d108      	bne.n	2000055e <dcd_rp2040_irq+0xea>
2000054c:	4ba5      	ldr	r3, [pc, #660]	@ (200007e4 <dcd_rp2040_irq+0x370>)
2000054e:	781b      	ldrb	r3, [r3, #0]
20000550:	2b00      	cmp	r3, #0
20000552:	d104      	bne.n	2000055e <dcd_rp2040_irq+0xea>
20000554:	2180      	movs	r1, #128	@ 0x80
20000556:	4aa4      	ldr	r2, [pc, #656]	@ (200007e8 <dcd_rp2040_irq+0x374>)
20000558:	3390      	adds	r3, #144	@ 0x90
2000055a:	0289      	lsls	r1, r1, #10
2000055c:	50d1      	str	r1, [r2, r3]
2000055e:	22c0      	movs	r2, #192	@ 0xc0
20000560:	4b94      	ldr	r3, [pc, #592]	@ (200007b4 <dcd_rp2040_irq+0x340>)
20000562:	a801      	add	r0, sp, #4
20000564:	6c9b      	ldr	r3, [r3, #72]	@ 0x48
20000566:	0092      	lsls	r2, r2, #2
20000568:	055b      	lsls	r3, r3, #21
2000056a:	0d5b      	lsrs	r3, r3, #21
2000056c:	2101      	movs	r1, #1
2000056e:	2680      	movs	r6, #128	@ 0x80
20000570:	8002      	strh	r2, [r0, #0]
20000572:	6043      	str	r3, [r0, #4]
20000574:	f000 fbb8 	bl	20000ce8 <dcd_event_handler>
20000578:	4c9c      	ldr	r4, [pc, #624]	@ (200007ec <dcd_rp2040_irq+0x378>)
2000057a:	02b6      	lsls	r6, r6, #10
2000057c:	06eb      	lsls	r3, r5, #27
2000057e:	d500      	bpl.n	20000582 <dcd_rp2040_irq+0x10e>
20000580:	e092      	b.n	200006a8 <dcd_rp2040_irq+0x234>
20000582:	2380      	movs	r3, #128	@ 0x80
20000584:	025b      	lsls	r3, r3, #9
20000586:	421d      	tst	r5, r3
20000588:	d01e      	beq.n	200005c8 <dcd_rp2040_irq+0x154>
2000058a:	431e      	orrs	r6, r3
2000058c:	2340      	movs	r3, #64	@ 0x40
2000058e:	4699      	mov	r9, r3
20000590:	3b3f      	subs	r3, #63	@ 0x3f
20000592:	4698      	mov	r8, r3
20000594:	469a      	mov	sl, r3
20000596:	4c89      	ldr	r4, [pc, #548]	@ (200007bc <dcd_rp2040_irq+0x348>)
20000598:	44a1      	add	r9, r4
2000059a:	4643      	mov	r3, r8
2000059c:	70e3      	strb	r3, [r4, #3]
2000059e:	7ea3      	ldrb	r3, [r4, #26]
200005a0:	2b00      	cmp	r3, #0
200005a2:	d153      	bne.n	2000064c <dcd_rp2040_irq+0x1d8>
200005a4:	3420      	adds	r4, #32
200005a6:	45a1      	cmp	r9, r4
200005a8:	d1f7      	bne.n	2000059a <dcd_rp2040_irq+0x126>
200005aa:	23c0      	movs	r3, #192	@ 0xc0
200005ac:	a801      	add	r0, sp, #4
200005ae:	00db      	lsls	r3, r3, #3
200005b0:	4a8f      	ldr	r2, [pc, #572]	@ (200007f0 <dcd_rp2040_irq+0x37c>)
200005b2:	8003      	strh	r3, [r0, #0]
200005b4:	ab02      	add	r3, sp, #8
200005b6:	ca12      	ldmia	r2!, {r1, r4}
200005b8:	c312      	stmia	r3!, {r1, r4}
200005ba:	2101      	movs	r1, #1
200005bc:	f000 fb94 	bl	20000ce8 <dcd_event_handler>
200005c0:	2280      	movs	r2, #128	@ 0x80
200005c2:	4b89      	ldr	r3, [pc, #548]	@ (200007e8 <dcd_rp2040_irq+0x374>)
200005c4:	0292      	lsls	r2, r2, #10
200005c6:	651a      	str	r2, [r3, #80]	@ 0x50
200005c8:	2380      	movs	r3, #128	@ 0x80
200005ca:	015b      	lsls	r3, r3, #5
200005cc:	421d      	tst	r5, r3
200005ce:	d129      	bne.n	20000624 <dcd_rp2040_irq+0x1b0>
200005d0:	2380      	movs	r3, #128	@ 0x80
200005d2:	01db      	lsls	r3, r3, #7
200005d4:	421d      	tst	r5, r3
200005d6:	d119      	bne.n	2000060c <dcd_rp2040_irq+0x198>
200005d8:	2380      	movs	r3, #128	@ 0x80
200005da:	021b      	lsls	r3, r3, #8
200005dc:	421d      	tst	r5, r3
200005de:	d108      	bne.n	200005f2 <dcd_rp2040_irq+0x17e>
200005e0:	42ae      	cmp	r6, r5
200005e2:	d000      	beq.n	200005e6 <dcd_rp2040_irq+0x172>
200005e4:	e1e8      	b.n	200009b8 <dcd_rp2040_irq+0x544>
200005e6:	b004      	add	sp, #16
200005e8:	bce0      	pop	{r5, r6, r7}
200005ea:	46ba      	mov	sl, r7
200005ec:	46b1      	mov	r9, r6
200005ee:	46a8      	mov	r8, r5
200005f0:	bdf0      	pop	{r4, r5, r6, r7, pc}
200005f2:	431e      	orrs	r6, r3
200005f4:	23a0      	movs	r3, #160	@ 0xa0
200005f6:	a801      	add	r0, sp, #4
200005f8:	00db      	lsls	r3, r3, #3
200005fa:	8003      	strh	r3, [r0, #0]
200005fc:	2101      	movs	r1, #1
200005fe:	f000 fb73 	bl	20000ce8 <dcd_event_handler>
20000602:	2280      	movs	r2, #128	@ 0x80
20000604:	4b78      	ldr	r3, [pc, #480]	@ (200007e8 <dcd_rp2040_irq+0x374>)
20000606:	0112      	lsls	r2, r2, #4
20000608:	651a      	str	r2, [r3, #80]	@ 0x50
2000060a:	e7e9      	b.n	200005e0 <dcd_rp2040_irq+0x16c>
2000060c:	431e      	orrs	r6, r3
2000060e:	2380      	movs	r3, #128	@ 0x80
20000610:	a801      	add	r0, sp, #4
20000612:	00db      	lsls	r3, r3, #3
20000614:	8003      	strh	r3, [r0, #0]
20000616:	2101      	movs	r1, #1
20000618:	f000 fb66 	bl	20000ce8 <dcd_event_handler>
2000061c:	2210      	movs	r2, #16
2000061e:	4b72      	ldr	r3, [pc, #456]	@ (200007e8 <dcd_rp2040_irq+0x374>)
20000620:	651a      	str	r2, [r3, #80]	@ 0x50
20000622:	e7d9      	b.n	200005d8 <dcd_rp2040_irq+0x164>
20000624:	2400      	movs	r4, #0
20000626:	431e      	orrs	r6, r3
20000628:	4b62      	ldr	r3, [pc, #392]	@ (200007b4 <dcd_rp2040_irq+0x340>)
2000062a:	601c      	str	r4, [r3, #0]
2000062c:	f7ff fe9e 	bl	2000036c <reset_non_control_endpoints>
20000630:	2380      	movs	r3, #128	@ 0x80
20000632:	466a      	mov	r2, sp
20000634:	005b      	lsls	r3, r3, #1
20000636:	8093      	strh	r3, [r2, #4]
20000638:	7214      	strb	r4, [r2, #8]
2000063a:	2101      	movs	r1, #1
2000063c:	a801      	add	r0, sp, #4
2000063e:	f000 fb53 	bl	20000ce8 <dcd_event_handler>
20000642:	2280      	movs	r2, #128	@ 0x80
20000644:	4b68      	ldr	r3, [pc, #416]	@ (200007e8 <dcd_rp2040_irq+0x374>)
20000646:	0312      	lsls	r2, r2, #12
20000648:	651a      	str	r2, [r3, #80]	@ 0x50
2000064a:	e7c1      	b.n	200005d0 <dcd_rp2040_irq+0x15c>
2000064c:	227f      	movs	r2, #127	@ 0x7f
2000064e:	4651      	mov	r1, sl
20000650:	4647      	mov	r7, r8
20000652:	78a3      	ldrb	r3, [r4, #2]
20000654:	401a      	ands	r2, r3
20000656:	09db      	lsrs	r3, r3, #7
20000658:	404b      	eors	r3, r1
2000065a:	0052      	lsls	r2, r2, #1
2000065c:	b2db      	uxtb	r3, r3
2000065e:	4313      	orrs	r3, r2
20000660:	409f      	lsls	r7, r3
20000662:	f000 fc6d 	bl	20000f40 <__rp2040_chip_version_veneer>
20000666:	2801      	cmp	r0, #1
20000668:	d906      	bls.n	20000678 <dcd_rp2040_irq+0x204>
2000066a:	4b62      	ldr	r3, [pc, #392]	@ (200007f4 <dcd_rp2040_irq+0x380>)
2000066c:	4a51      	ldr	r2, [pc, #324]	@ (200007b4 <dcd_rp2040_irq+0x340>)
2000066e:	661f      	str	r7, [r3, #96]	@ 0x60
20000670:	6e53      	ldr	r3, [r2, #100]	@ 0x64
20000672:	403b      	ands	r3, r7
20000674:	429f      	cmp	r7, r3
20000676:	d1fb      	bne.n	20000670 <dcd_rp2040_irq+0x1fc>
20000678:	78e2      	ldrb	r2, [r4, #3]
2000067a:	2100      	movs	r1, #0
2000067c:	1e53      	subs	r3, r2, #1
2000067e:	419a      	sbcs	r2, r3
20000680:	2380      	movs	r3, #128	@ 0x80
20000682:	015b      	lsls	r3, r3, #5
20000684:	469c      	mov	ip, r3
20000686:	0352      	lsls	r2, r2, #13
20000688:	0020      	movs	r0, r4
2000068a:	4462      	add	r2, ip
2000068c:	f000 faae 	bl	20000bec <_hw_endpoint_buffer_control_update32>
20000690:	0020      	movs	r0, r4
20000692:	f000 faa5 	bl	20000be0 <hw_endpoint_reset_transfer>
20000696:	f000 fc53 	bl	20000f40 <__rp2040_chip_version_veneer>
2000069a:	2801      	cmp	r0, #1
2000069c:	d800      	bhi.n	200006a0 <dcd_rp2040_irq+0x22c>
2000069e:	e781      	b.n	200005a4 <dcd_rp2040_irq+0x130>
200006a0:	4b51      	ldr	r3, [pc, #324]	@ (200007e8 <dcd_rp2040_irq+0x374>)
200006a2:	665f      	str	r7, [r3, #100]	@ 0x64
200006a4:	661f      	str	r7, [r3, #96]	@ 0x60
200006a6:	e77d      	b.n	200005a4 <dcd_rp2040_irq+0x130>
200006a8:	f7ff fe94 	bl	200003d4 <hw_handle_buff_status>
200006ac:	0026      	movs	r6, r4
200006ae:	e768      	b.n	20000582 <dcd_rp2040_irq+0x10e>
200006b0:	3338      	adds	r3, #56	@ 0x38
200006b2:	5ce6      	ldrb	r6, [r4, r3]
200006b4:	2e00      	cmp	r6, #0
200006b6:	d100      	bne.n	200006ba <dcd_rp2040_irq+0x246>
200006b8:	e6f7      	b.n	200004aa <dcd_rp2040_irq+0x36>
200006ba:	3302      	adds	r3, #2
200006bc:	5ce2      	ldrb	r2, [r4, r3]
200006be:	2a00      	cmp	r2, #0
200006c0:	d100      	bne.n	200006c4 <dcd_rp2040_irq+0x250>
200006c2:	e6f2      	b.n	200004aa <dcd_rp2040_irq+0x36>
200006c4:	0020      	movs	r0, r4
200006c6:	2200      	movs	r2, #0
200006c8:	3020      	adds	r0, #32
200006ca:	54e2      	strb	r2, [r4, r3]
200006cc:	f000 fab6 	bl	20000c3c <hw_endpoint_start_next_buffer>
200006d0:	e6eb      	b.n	200004aa <dcd_rp2040_irq+0x36>
200006d2:	4b49      	ldr	r3, [pc, #292]	@ (200007f8 <dcd_rp2040_irq+0x384>)
200006d4:	5ce7      	ldrb	r7, [r4, r3]
200006d6:	2f00      	cmp	r7, #0
200006d8:	d100      	bne.n	200006dc <dcd_rp2040_irq+0x268>
200006da:	e72b      	b.n	20000534 <dcd_rp2040_irq+0xc0>
200006dc:	3302      	adds	r3, #2
200006de:	5ce2      	ldrb	r2, [r4, r3]
200006e0:	2a00      	cmp	r2, #0
200006e2:	d000      	beq.n	200006e6 <dcd_rp2040_irq+0x272>
200006e4:	e161      	b.n	200009aa <dcd_rp2040_irq+0x536>
200006e6:	4b3d      	ldr	r3, [pc, #244]	@ (200007dc <dcd_rp2040_irq+0x368>)
200006e8:	5ce3      	ldrb	r3, [r4, r3]
200006ea:	2b02      	cmp	r3, #2
200006ec:	d100      	bne.n	200006f0 <dcd_rp2040_irq+0x27c>
200006ee:	e0dc      	b.n	200008aa <dcd_rp2040_irq+0x436>
200006f0:	4b3b      	ldr	r3, [pc, #236]	@ (200007e0 <dcd_rp2040_irq+0x36c>)
200006f2:	5ce3      	ldrb	r3, [r4, r3]
200006f4:	2b02      	cmp	r3, #2
200006f6:	d000      	beq.n	200006fa <dcd_rp2040_irq+0x286>
200006f8:	e731      	b.n	2000055e <dcd_rp2040_irq+0xea>
200006fa:	4b40      	ldr	r3, [pc, #256]	@ (200007fc <dcd_rp2040_irq+0x388>)
200006fc:	5ce3      	ldrb	r3, [r4, r3]
200006fe:	2b00      	cmp	r3, #0
20000700:	d000      	beq.n	20000704 <dcd_rp2040_irq+0x290>
20000702:	e0e1      	b.n	200008c8 <dcd_rp2040_irq+0x454>
20000704:	e72b      	b.n	2000055e <dcd_rp2040_irq+0xea>
20000706:	4b3e      	ldr	r3, [pc, #248]	@ (20000800 <dcd_rp2040_irq+0x38c>)
20000708:	5ce7      	ldrb	r7, [r4, r3]
2000070a:	2f00      	cmp	r7, #0
2000070c:	d100      	bne.n	20000710 <dcd_rp2040_irq+0x29c>
2000070e:	e70c      	b.n	2000052a <dcd_rp2040_irq+0xb6>
20000710:	3302      	adds	r3, #2
20000712:	5ce2      	ldrb	r2, [r4, r3]
20000714:	2a00      	cmp	r2, #0
20000716:	d000      	beq.n	2000071a <dcd_rp2040_irq+0x2a6>
20000718:	e13f      	b.n	2000099a <dcd_rp2040_irq+0x526>
2000071a:	003e      	movs	r6, r7
2000071c:	e705      	b.n	2000052a <dcd_rp2040_irq+0xb6>
2000071e:	4b39      	ldr	r3, [pc, #228]	@ (20000804 <dcd_rp2040_irq+0x390>)
20000720:	5ce7      	ldrb	r7, [r4, r3]
20000722:	2f00      	cmp	r7, #0
20000724:	d100      	bne.n	20000728 <dcd_rp2040_irq+0x2b4>
20000726:	e6fb      	b.n	20000520 <dcd_rp2040_irq+0xac>
20000728:	3302      	adds	r3, #2
2000072a:	5ce2      	ldrb	r2, [r4, r3]
2000072c:	2a00      	cmp	r2, #0
2000072e:	d000      	beq.n	20000732 <dcd_rp2040_irq+0x2be>
20000730:	e12b      	b.n	2000098a <dcd_rp2040_irq+0x516>
20000732:	003e      	movs	r6, r7
20000734:	e6f4      	b.n	20000520 <dcd_rp2040_irq+0xac>
20000736:	4b34      	ldr	r3, [pc, #208]	@ (20000808 <dcd_rp2040_irq+0x394>)
20000738:	5ce7      	ldrb	r7, [r4, r3]
2000073a:	2f00      	cmp	r7, #0
2000073c:	d100      	bne.n	20000740 <dcd_rp2040_irq+0x2cc>
2000073e:	e6ea      	b.n	20000516 <dcd_rp2040_irq+0xa2>
20000740:	3302      	adds	r3, #2
20000742:	5ce2      	ldrb	r2, [r4, r3]
20000744:	2a00      	cmp	r2, #0
20000746:	d000      	beq.n	2000074a <dcd_rp2040_irq+0x2d6>
20000748:	e117      	b.n	2000097a <dcd_rp2040_irq+0x506>
2000074a:	003e      	movs	r6, r7
2000074c:	e6e3      	b.n	20000516 <dcd_rp2040_irq+0xa2>
2000074e:	4b2f      	ldr	r3, [pc, #188]	@ (2000080c <dcd_rp2040_irq+0x398>)
20000750:	5ce7      	ldrb	r7, [r4, r3]
20000752:	2f00      	cmp	r7, #0
20000754:	d100      	bne.n	20000758 <dcd_rp2040_irq+0x2e4>
20000756:	e6d9      	b.n	2000050c <dcd_rp2040_irq+0x98>
20000758:	3302      	adds	r3, #2
2000075a:	5ce2      	ldrb	r2, [r4, r3]
2000075c:	2a00      	cmp	r2, #0
2000075e:	d000      	beq.n	20000762 <dcd_rp2040_irq+0x2ee>
20000760:	e103      	b.n	2000096a <dcd_rp2040_irq+0x4f6>
20000762:	003e      	movs	r6, r7
20000764:	e6d2      	b.n	2000050c <dcd_rp2040_irq+0x98>
20000766:	4b2a      	ldr	r3, [pc, #168]	@ (20000810 <dcd_rp2040_irq+0x39c>)
20000768:	5ce7      	ldrb	r7, [r4, r3]
2000076a:	2f00      	cmp	r7, #0
2000076c:	d100      	bne.n	20000770 <dcd_rp2040_irq+0x2fc>
2000076e:	e6c8      	b.n	20000502 <dcd_rp2040_irq+0x8e>
20000770:	3302      	adds	r3, #2
20000772:	5ce2      	ldrb	r2, [r4, r3]
20000774:	2a00      	cmp	r2, #0
20000776:	d000      	beq.n	2000077a <dcd_rp2040_irq+0x306>
20000778:	e0ef      	b.n	2000095a <dcd_rp2040_irq+0x4e6>
2000077a:	003e      	movs	r6, r7
2000077c:	e6c1      	b.n	20000502 <dcd_rp2040_irq+0x8e>
2000077e:	33f9      	adds	r3, #249	@ 0xf9
20000780:	33ff      	adds	r3, #255	@ 0xff
20000782:	5ce7      	ldrb	r7, [r4, r3]
20000784:	2f00      	cmp	r7, #0
20000786:	d100      	bne.n	2000078a <dcd_rp2040_irq+0x316>
20000788:	e6b6      	b.n	200004f8 <dcd_rp2040_irq+0x84>
2000078a:	3302      	adds	r3, #2
2000078c:	5ce2      	ldrb	r2, [r4, r3]
2000078e:	2a00      	cmp	r2, #0
20000790:	d000      	beq.n	20000794 <dcd_rp2040_irq+0x320>
20000792:	e0d9      	b.n	20000948 <dcd_rp2040_irq+0x4d4>
20000794:	003e      	movs	r6, r7
20000796:	e6af      	b.n	200004f8 <dcd_rp2040_irq+0x84>
20000798:	33b9      	adds	r3, #185	@ 0xb9
2000079a:	33ff      	adds	r3, #255	@ 0xff
2000079c:	5ce7      	ldrb	r7, [r4, r3]
2000079e:	2f00      	cmp	r7, #0
200007a0:	d100      	bne.n	200007a4 <dcd_rp2040_irq+0x330>
200007a2:	e6a3      	b.n	200004ec <dcd_rp2040_irq+0x78>
200007a4:	3302      	adds	r3, #2
200007a6:	5ce2      	ldrb	r2, [r4, r3]
200007a8:	2a00      	cmp	r2, #0
200007aa:	d000      	beq.n	200007ae <dcd_rp2040_irq+0x33a>
200007ac:	e0c3      	b.n	20000936 <dcd_rp2040_irq+0x4c2>
200007ae:	003e      	movs	r6, r7
200007b0:	e69c      	b.n	200004ec <dcd_rp2040_irq+0x78>
200007b2:	46c0      	nop			@ (mov r8, r8)
200007b4:	50110000 	.word	0x50110000
200007b8:	40054000 	.word	0x40054000
200007bc:	20001c88 	.word	0x20001c88
200007c0:	20001c80 	.word	0x20001c80
200007c4:	0000023b 	.word	0x0000023b
200007c8:	0000027b 	.word	0x0000027b
200007cc:	000002bb 	.word	0x000002bb
200007d0:	000002fb 	.word	0x000002fb
200007d4:	0000033b 	.word	0x0000033b
200007d8:	0000037b 	.word	0x0000037b
200007dc:	000003bb 	.word	0x000003bb
200007e0:	000003fb 	.word	0x000003fb
200007e4:	200223d9 	.word	0x200223d9
200007e8:	50113000 	.word	0x50113000
200007ec:	00020010 	.word	0x00020010
200007f0:	50100000 	.word	0x50100000
200007f4:	50112000 	.word	0x50112000
200007f8:	0000037a 	.word	0x0000037a
200007fc:	000003fa 	.word	0x000003fa
20000800:	0000033a 	.word	0x0000033a
20000804:	000002fa 	.word	0x000002fa
20000808:	000002ba 	.word	0x000002ba
2000080c:	0000027a 	.word	0x0000027a
20000810:	0000023a 	.word	0x0000023a
20000814:	3379      	adds	r3, #121	@ 0x79
20000816:	33ff      	adds	r3, #255	@ 0xff
20000818:	5ce7      	ldrb	r7, [r4, r3]
2000081a:	2f00      	cmp	r7, #0
2000081c:	d100      	bne.n	20000820 <dcd_rp2040_irq+0x3ac>
2000081e:	e65f      	b.n	200004e0 <dcd_rp2040_irq+0x6c>
20000820:	3302      	adds	r3, #2
20000822:	5ce2      	ldrb	r2, [r4, r3]
20000824:	2a00      	cmp	r2, #0
20000826:	d17d      	bne.n	20000924 <dcd_rp2040_irq+0x4b0>
20000828:	003e      	movs	r6, r7
2000082a:	e659      	b.n	200004e0 <dcd_rp2040_irq+0x6c>
2000082c:	3339      	adds	r3, #57	@ 0x39
2000082e:	33ff      	adds	r3, #255	@ 0xff
20000830:	5ce7      	ldrb	r7, [r4, r3]
20000832:	2f00      	cmp	r7, #0
20000834:	d100      	bne.n	20000838 <dcd_rp2040_irq+0x3c4>
20000836:	e64d      	b.n	200004d4 <dcd_rp2040_irq+0x60>
20000838:	3302      	adds	r3, #2
2000083a:	5ce2      	ldrb	r2, [r4, r3]
2000083c:	2a00      	cmp	r2, #0
2000083e:	d168      	bne.n	20000912 <dcd_rp2040_irq+0x49e>
20000840:	003e      	movs	r6, r7
20000842:	e647      	b.n	200004d4 <dcd_rp2040_irq+0x60>
20000844:	33f8      	adds	r3, #248	@ 0xf8
20000846:	5ce7      	ldrb	r7, [r4, r3]
20000848:	2f00      	cmp	r7, #0
2000084a:	d100      	bne.n	2000084e <dcd_rp2040_irq+0x3da>
2000084c:	e63c      	b.n	200004c8 <dcd_rp2040_irq+0x54>
2000084e:	3302      	adds	r3, #2
20000850:	5ce2      	ldrb	r2, [r4, r3]
20000852:	2a00      	cmp	r2, #0
20000854:	d155      	bne.n	20000902 <dcd_rp2040_irq+0x48e>
20000856:	003e      	movs	r6, r7
20000858:	e636      	b.n	200004c8 <dcd_rp2040_irq+0x54>
2000085a:	33b8      	adds	r3, #184	@ 0xb8
2000085c:	5ce7      	ldrb	r7, [r4, r3]
2000085e:	2f00      	cmp	r7, #0
20000860:	d100      	bne.n	20000864 <dcd_rp2040_irq+0x3f0>
20000862:	e62c      	b.n	200004be <dcd_rp2040_irq+0x4a>
20000864:	3302      	adds	r3, #2
20000866:	5ce2      	ldrb	r2, [r4, r3]
20000868:	2a00      	cmp	r2, #0
2000086a:	d142      	bne.n	200008f2 <dcd_rp2040_irq+0x47e>
2000086c:	003e      	movs	r6, r7
2000086e:	e626      	b.n	200004be <dcd_rp2040_irq+0x4a>
20000870:	3378      	adds	r3, #120	@ 0x78
20000872:	5ce7      	ldrb	r7, [r4, r3]
20000874:	2f00      	cmp	r7, #0
20000876:	d100      	bne.n	2000087a <dcd_rp2040_irq+0x406>
20000878:	e61c      	b.n	200004b4 <dcd_rp2040_irq+0x40>
2000087a:	3302      	adds	r3, #2
2000087c:	5ce2      	ldrb	r2, [r4, r3]
2000087e:	2a00      	cmp	r2, #0
20000880:	d12f      	bne.n	200008e2 <dcd_rp2040_irq+0x46e>
20000882:	003e      	movs	r6, r7
20000884:	e616      	b.n	200004b4 <dcd_rp2040_irq+0x40>
20000886:	4b4f      	ldr	r3, [pc, #316]	@ (200009c4 <dcd_rp2040_irq+0x550>)
20000888:	5ce3      	ldrb	r3, [r4, r3]
2000088a:	2b00      	cmp	r3, #0
2000088c:	d100      	bne.n	20000890 <dcd_rp2040_irq+0x41c>
2000088e:	e656      	b.n	2000053e <dcd_rp2040_irq+0xca>
20000890:	23ef      	movs	r3, #239	@ 0xef
20000892:	009b      	lsls	r3, r3, #2
20000894:	5ce2      	ldrb	r2, [r4, r3]
20000896:	2a00      	cmp	r2, #0
20000898:	d100      	bne.n	2000089c <dcd_rp2040_irq+0x428>
2000089a:	e729      	b.n	200006f0 <dcd_rp2040_irq+0x27c>
2000089c:	2200      	movs	r2, #0
2000089e:	54e2      	strb	r2, [r4, r3]
200008a0:	3b1c      	subs	r3, #28
200008a2:	18e0      	adds	r0, r4, r3
200008a4:	f000 f9ca 	bl	20000c3c <hw_endpoint_start_next_buffer>
200008a8:	e722      	b.n	200006f0 <dcd_rp2040_irq+0x27c>
200008aa:	4b46      	ldr	r3, [pc, #280]	@ (200009c4 <dcd_rp2040_irq+0x550>)
200008ac:	5ce3      	ldrb	r3, [r4, r3]
200008ae:	2b00      	cmp	r3, #0
200008b0:	d1ee      	bne.n	20000890 <dcd_rp2040_irq+0x41c>
200008b2:	4b45      	ldr	r3, [pc, #276]	@ (200009c8 <dcd_rp2040_irq+0x554>)
200008b4:	5ce3      	ldrb	r3, [r4, r3]
200008b6:	2b02      	cmp	r3, #2
200008b8:	d000      	beq.n	200008bc <dcd_rp2040_irq+0x448>
200008ba:	e650      	b.n	2000055e <dcd_rp2040_irq+0xea>
200008bc:	003e      	movs	r6, r7
200008be:	4b43      	ldr	r3, [pc, #268]	@ (200009cc <dcd_rp2040_irq+0x558>)
200008c0:	5ce3      	ldrb	r3, [r4, r3]
200008c2:	2b00      	cmp	r3, #0
200008c4:	d100      	bne.n	200008c8 <dcd_rp2040_irq+0x454>
200008c6:	e63f      	b.n	20000548 <dcd_rp2040_irq+0xd4>
200008c8:	23ff      	movs	r3, #255	@ 0xff
200008ca:	009b      	lsls	r3, r3, #2
200008cc:	5ce2      	ldrb	r2, [r4, r3]
200008ce:	2a00      	cmp	r2, #0
200008d0:	d100      	bne.n	200008d4 <dcd_rp2040_irq+0x460>
200008d2:	e644      	b.n	2000055e <dcd_rp2040_irq+0xea>
200008d4:	2200      	movs	r2, #0
200008d6:	54e2      	strb	r2, [r4, r3]
200008d8:	3b1c      	subs	r3, #28
200008da:	18e0      	adds	r0, r4, r3
200008dc:	f000 f9ae 	bl	20000c3c <hw_endpoint_start_next_buffer>
200008e0:	e63d      	b.n	2000055e <dcd_rp2040_irq+0xea>
200008e2:	0020      	movs	r0, r4
200008e4:	2200      	movs	r2, #0
200008e6:	3060      	adds	r0, #96	@ 0x60
200008e8:	54e2      	strb	r2, [r4, r3]
200008ea:	003e      	movs	r6, r7
200008ec:	f000 f9a6 	bl	20000c3c <hw_endpoint_start_next_buffer>
200008f0:	e5e0      	b.n	200004b4 <dcd_rp2040_irq+0x40>
200008f2:	0020      	movs	r0, r4
200008f4:	2200      	movs	r2, #0
200008f6:	30a0      	adds	r0, #160	@ 0xa0
200008f8:	54e2      	strb	r2, [r4, r3]
200008fa:	003e      	movs	r6, r7
200008fc:	f000 f99e 	bl	20000c3c <hw_endpoint_start_next_buffer>
20000900:	e5dd      	b.n	200004be <dcd_rp2040_irq+0x4a>
20000902:	0020      	movs	r0, r4
20000904:	2200      	movs	r2, #0
20000906:	30e0      	adds	r0, #224	@ 0xe0
20000908:	54e2      	strb	r2, [r4, r3]
2000090a:	003e      	movs	r6, r7
2000090c:	f000 f996 	bl	20000c3c <hw_endpoint_start_next_buffer>
20000910:	e5da      	b.n	200004c8 <dcd_rp2040_irq+0x54>
20000912:	0020      	movs	r0, r4
20000914:	2200      	movs	r2, #0
20000916:	3021      	adds	r0, #33	@ 0x21
20000918:	30ff      	adds	r0, #255	@ 0xff
2000091a:	54e2      	strb	r2, [r4, r3]
2000091c:	003e      	movs	r6, r7
2000091e:	f000 f98d 	bl	20000c3c <hw_endpoint_start_next_buffer>
20000922:	e5d7      	b.n	200004d4 <dcd_rp2040_irq+0x60>
20000924:	0020      	movs	r0, r4
20000926:	2200      	movs	r2, #0
20000928:	3061      	adds	r0, #97	@ 0x61
2000092a:	30ff      	adds	r0, #255	@ 0xff
2000092c:	54e2      	strb	r2, [r4, r3]
2000092e:	003e      	movs	r6, r7
20000930:	f000 f984 	bl	20000c3c <hw_endpoint_start_next_buffer>
20000934:	e5d4      	b.n	200004e0 <dcd_rp2040_irq+0x6c>
20000936:	0020      	movs	r0, r4
20000938:	2200      	movs	r2, #0
2000093a:	30a1      	adds	r0, #161	@ 0xa1
2000093c:	30ff      	adds	r0, #255	@ 0xff
2000093e:	54e2      	strb	r2, [r4, r3]
20000940:	003e      	movs	r6, r7
20000942:	f000 f97b 	bl	20000c3c <hw_endpoint_start_next_buffer>
20000946:	e5d1      	b.n	200004ec <dcd_rp2040_irq+0x78>
20000948:	0020      	movs	r0, r4
2000094a:	2200      	movs	r2, #0
2000094c:	30e1      	adds	r0, #225	@ 0xe1
2000094e:	30ff      	adds	r0, #255	@ 0xff
20000950:	54e2      	strb	r2, [r4, r3]
20000952:	003e      	movs	r6, r7
20000954:	f000 f972 	bl	20000c3c <hw_endpoint_start_next_buffer>
20000958:	e5ce      	b.n	200004f8 <dcd_rp2040_irq+0x84>
2000095a:	2200      	movs	r2, #0
2000095c:	54e2      	strb	r2, [r4, r3]
2000095e:	3b1c      	subs	r3, #28
20000960:	18e0      	adds	r0, r4, r3
20000962:	f000 f96b 	bl	20000c3c <hw_endpoint_start_next_buffer>
20000966:	003e      	movs	r6, r7
20000968:	e5cb      	b.n	20000502 <dcd_rp2040_irq+0x8e>
2000096a:	2200      	movs	r2, #0
2000096c:	54e2      	strb	r2, [r4, r3]
2000096e:	3b1c      	subs	r3, #28
20000970:	18e0      	adds	r0, r4, r3
20000972:	f000 f963 	bl	20000c3c <hw_endpoint_start_next_buffer>
20000976:	003e      	movs	r6, r7
20000978:	e5c8      	b.n	2000050c <dcd_rp2040_irq+0x98>
2000097a:	2200      	movs	r2, #0
2000097c:	54e2      	strb	r2, [r4, r3]
2000097e:	3b1c      	subs	r3, #28
20000980:	18e0      	adds	r0, r4, r3
20000982:	f000 f95b 	bl	20000c3c <hw_endpoint_start_next_buffer>
20000986:	003e      	movs	r6, r7
20000988:	e5c5      	b.n	20000516 <dcd_rp2040_irq+0xa2>
2000098a:	2200      	movs	r2, #0
2000098c:	54e2      	strb	r2, [r4, r3]
2000098e:	3b1c      	subs	r3, #28
20000990:	18e0      	adds	r0, r4, r3
20000992:	f000 f953 	bl	20000c3c <hw_endpoint_start_next_buffer>
20000996:	003e      	movs	r6, r7
20000998:	e5c2      	b.n	20000520 <dcd_rp2040_irq+0xac>
2000099a:	2200      	movs	r2, #0
2000099c:	54e2      	strb	r2, [r4, r3]
2000099e:	3b1c      	subs	r3, #28
200009a0:	18e0      	adds	r0, r4, r3
200009a2:	f000 f94b 	bl	20000c3c <hw_endpoint_start_next_buffer>
200009a6:	003e      	movs	r6, r7
200009a8:	e5bf      	b.n	2000052a <dcd_rp2040_irq+0xb6>
200009aa:	2200      	movs	r2, #0
200009ac:	54e2      	strb	r2, [r4, r3]
200009ae:	3b1c      	subs	r3, #28
200009b0:	18e0      	adds	r0, r4, r3
200009b2:	f000 f943 	bl	20000c3c <hw_endpoint_start_next_buffer>
200009b6:	e696      	b.n	200006e6 <dcd_rp2040_irq+0x272>
200009b8:	0031      	movs	r1, r6
200009ba:	4805      	ldr	r0, [pc, #20]	@ (200009d0 <dcd_rp2040_irq+0x55c>)
200009bc:	4069      	eors	r1, r5
200009be:	f000 fa87 	bl	20000ed0 <__panic_veneer>
200009c2:	46c0      	nop			@ (mov r8, r8)
200009c4:	000003ba 	.word	0x000003ba
200009c8:	000003fb 	.word	0x000003fb
200009cc:	000003fa 	.word	0x000003fa
200009d0:	10005b3c 	.word	0x10005b3c

200009d4 <prepare_ep_buffer>:
200009d4:	b5f0      	push	{r4, r5, r6, r7, lr}
200009d6:	46d6      	mov	lr, sl
200009d8:	464f      	mov	r7, r9
200009da:	4646      	mov	r6, r8
200009dc:	b5c0      	push	{r6, r7, lr}
200009de:	0002      	movs	r2, r0
200009e0:	8a83      	ldrh	r3, [r0, #20]
200009e2:	8b00      	ldrh	r0, [r0, #24]
200009e4:	468a      	mov	sl, r1
200009e6:	1c04      	adds	r4, r0, #0
200009e8:	4298      	cmp	r0, r3
200009ea:	d900      	bls.n	200009ee <prepare_ep_buffer+0x1a>
200009ec:	1c1c      	adds	r4, r3, #0
200009ee:	78d5      	ldrb	r5, [r2, #3]
200009f0:	2680      	movs	r6, #128	@ 0x80
200009f2:	0028      	movs	r0, r5
200009f4:	1e47      	subs	r7, r0, #1
200009f6:	41b8      	sbcs	r0, r7
200009f8:	b2a4      	uxth	r4, r4
200009fa:	00f6      	lsls	r6, r6, #3
200009fc:	4326      	orrs	r6, r4
200009fe:	0340      	lsls	r0, r0, #13
20000a00:	4330      	orrs	r0, r6
20000a02:	2601      	movs	r6, #1
20000a04:	4075      	eors	r5, r6
20000a06:	1b1b      	subs	r3, r3, r4
20000a08:	70d5      	strb	r5, [r2, #3]
20000a0a:	7855      	ldrb	r5, [r2, #1]
20000a0c:	b29b      	uxth	r3, r3
20000a0e:	8293      	strh	r3, [r2, #20]
20000a10:	2d00      	cmp	r5, #0
20000a12:	d137      	bne.n	20000a84 <prepare_ep_buffer+0xb0>
20000a14:	4651      	mov	r1, sl
20000a16:	68d6      	ldr	r6, [r2, #12]
20000a18:	018d      	lsls	r5, r1, #6
20000a1a:	1e61      	subs	r1, r4, #1
20000a1c:	1976      	adds	r6, r6, r5
20000a1e:	4688      	mov	r8, r1
20000a20:	6915      	ldr	r5, [r2, #16]
20000a22:	2c00      	cmp	r4, #0
20000a24:	d029      	beq.n	20000a7a <prepare_ep_buffer+0xa6>
20000a26:	2906      	cmp	r1, #6
20000a28:	d93a      	bls.n	20000aa0 <prepare_ep_buffer+0xcc>
20000a2a:	0033      	movs	r3, r6
20000a2c:	432b      	orrs	r3, r5
20000a2e:	079b      	lsls	r3, r3, #30
20000a30:	d136      	bne.n	20000aa0 <prepare_ep_buffer+0xcc>
20000a32:	1c6b      	adds	r3, r5, #1
20000a34:	1af3      	subs	r3, r6, r3
20000a36:	2b02      	cmp	r3, #2
20000a38:	d932      	bls.n	20000aa0 <prepare_ep_buffer+0xcc>
20000a3a:	1f23      	subs	r3, r4, #4
20000a3c:	089b      	lsrs	r3, r3, #2
20000a3e:	3301      	adds	r3, #1
20000a40:	469c      	mov	ip, r3
20000a42:	2700      	movs	r7, #0
20000a44:	2300      	movs	r3, #0
20000a46:	58e9      	ldr	r1, [r5, r3]
20000a48:	3701      	adds	r7, #1
20000a4a:	50f1      	str	r1, [r6, r3]
20000a4c:	3304      	adds	r3, #4
20000a4e:	45bc      	cmp	ip, r7
20000a50:	d8f9      	bhi.n	20000a46 <prepare_ep_buffer+0x72>
20000a52:	4663      	mov	r3, ip
20000a54:	4641      	mov	r1, r8
20000a56:	009b      	lsls	r3, r3, #2
20000a58:	18ed      	adds	r5, r5, r3
20000a5a:	18f6      	adds	r6, r6, r3
20000a5c:	1acf      	subs	r7, r1, r3
20000a5e:	429c      	cmp	r4, r3
20000a60:	d009      	beq.n	20000a76 <prepare_ep_buffer+0xa2>
20000a62:	782b      	ldrb	r3, [r5, #0]
20000a64:	7033      	strb	r3, [r6, #0]
20000a66:	2f00      	cmp	r7, #0
20000a68:	d005      	beq.n	20000a76 <prepare_ep_buffer+0xa2>
20000a6a:	786b      	ldrb	r3, [r5, #1]
20000a6c:	7073      	strb	r3, [r6, #1]
20000a6e:	2f01      	cmp	r7, #1
20000a70:	d001      	beq.n	20000a76 <prepare_ep_buffer+0xa2>
20000a72:	78ab      	ldrb	r3, [r5, #2]
20000a74:	70b3      	strb	r3, [r6, #2]
20000a76:	6915      	ldr	r5, [r2, #16]
20000a78:	8a93      	ldrh	r3, [r2, #20]
20000a7a:	192d      	adds	r5, r5, r4
20000a7c:	6115      	str	r5, [r2, #16]
20000a7e:	2280      	movs	r2, #128	@ 0x80
20000a80:	0212      	lsls	r2, r2, #8
20000a82:	4310      	orrs	r0, r2
20000a84:	2b00      	cmp	r3, #0
20000a86:	d102      	bne.n	20000a8e <prepare_ep_buffer+0xba>
20000a88:	2380      	movs	r3, #128	@ 0x80
20000a8a:	01db      	lsls	r3, r3, #7
20000a8c:	4318      	orrs	r0, r3
20000a8e:	4653      	mov	r3, sl
20000a90:	2b00      	cmp	r3, #0
20000a92:	d000      	beq.n	20000a96 <prepare_ep_buffer+0xc2>
20000a94:	0400      	lsls	r0, r0, #16
20000a96:	bce0      	pop	{r5, r6, r7}
20000a98:	46ba      	mov	sl, r7
20000a9a:	46b1      	mov	r9, r6
20000a9c:	46a8      	mov	r8, r5
20000a9e:	bdf0      	pop	{r4, r5, r6, r7, pc}
20000aa0:	2300      	movs	r3, #0
20000aa2:	5cef      	ldrb	r7, [r5, r3]
20000aa4:	54f7      	strb	r7, [r6, r3]
20000aa6:	3301      	adds	r3, #1
20000aa8:	429c      	cmp	r4, r3
20000aaa:	d1fa      	bne.n	20000aa2 <prepare_ep_buffer+0xce>
20000aac:	6915      	ldr	r5, [r2, #16]
20000aae:	8a93      	ldrh	r3, [r2, #20]
20000ab0:	e7e3      	b.n	20000a7a <prepare_ep_buffer+0xa6>
20000ab2:	46c0      	nop			@ (mov r8, r8)

20000ab4 <sync_ep_buffer>:
20000ab4:	6883      	ldr	r3, [r0, #8]
20000ab6:	b5f0      	push	{r4, r5, r6, r7, lr}
20000ab8:	681b      	ldr	r3, [r3, #0]
20000aba:	0005      	movs	r5, r0
20000abc:	2900      	cmp	r1, #0
20000abe:	d000      	beq.n	20000ac2 <sync_ep_buffer+0xe>
20000ac0:	0c1b      	lsrs	r3, r3, #16
20000ac2:	059b      	lsls	r3, r3, #22
20000ac4:	0d98      	lsrs	r0, r3, #22
20000ac6:	786b      	ldrb	r3, [r5, #1]
20000ac8:	2b00      	cmp	r3, #0
20000aca:	d108      	bne.n	20000ade <sync_ep_buffer+0x2a>
20000acc:	8aeb      	ldrh	r3, [r5, #22]
20000ace:	18c3      	adds	r3, r0, r3
20000ad0:	82eb      	strh	r3, [r5, #22]
20000ad2:	8b2b      	ldrh	r3, [r5, #24]
20000ad4:	4283      	cmp	r3, r0
20000ad6:	d901      	bls.n	20000adc <sync_ep_buffer+0x28>
20000ad8:	2300      	movs	r3, #0
20000ada:	82ab      	strh	r3, [r5, #20]
20000adc:	bdf0      	pop	{r4, r5, r6, r7, pc}
20000ade:	68eb      	ldr	r3, [r5, #12]
20000ae0:	0189      	lsls	r1, r1, #6
20000ae2:	1e46      	subs	r6, r0, #1
20000ae4:	46b4      	mov	ip, r6
20000ae6:	692a      	ldr	r2, [r5, #16]
20000ae8:	185c      	adds	r4, r3, r1
20000aea:	2800      	cmp	r0, #0
20000aec:	d027      	beq.n	20000b3e <sync_ep_buffer+0x8a>
20000aee:	2e06      	cmp	r6, #6
20000af0:	d92b      	bls.n	20000b4a <sync_ep_buffer+0x96>
20000af2:	3101      	adds	r1, #1
20000af4:	185b      	adds	r3, r3, r1
20000af6:	1ad3      	subs	r3, r2, r3
20000af8:	2b02      	cmp	r3, #2
20000afa:	d926      	bls.n	20000b4a <sync_ep_buffer+0x96>
20000afc:	0013      	movs	r3, r2
20000afe:	4323      	orrs	r3, r4
20000b00:	079b      	lsls	r3, r3, #30
20000b02:	d122      	bne.n	20000b4a <sync_ep_buffer+0x96>
20000b04:	2300      	movs	r3, #0
20000b06:	2100      	movs	r1, #0
20000b08:	1f06      	subs	r6, r0, #4
20000b0a:	08b6      	lsrs	r6, r6, #2
20000b0c:	3601      	adds	r6, #1
20000b0e:	58e7      	ldr	r7, [r4, r3]
20000b10:	3101      	adds	r1, #1
20000b12:	50d7      	str	r7, [r2, r3]
20000b14:	3304      	adds	r3, #4
20000b16:	428e      	cmp	r6, r1
20000b18:	d8f9      	bhi.n	20000b0e <sync_ep_buffer+0x5a>
20000b1a:	4663      	mov	r3, ip
20000b1c:	00b6      	lsls	r6, r6, #2
20000b1e:	19a4      	adds	r4, r4, r6
20000b20:	1992      	adds	r2, r2, r6
20000b22:	1b9f      	subs	r7, r3, r6
20000b24:	42b0      	cmp	r0, r6
20000b26:	d009      	beq.n	20000b3c <sync_ep_buffer+0x88>
20000b28:	7823      	ldrb	r3, [r4, #0]
20000b2a:	7013      	strb	r3, [r2, #0]
20000b2c:	2f00      	cmp	r7, #0
20000b2e:	d005      	beq.n	20000b3c <sync_ep_buffer+0x88>
20000b30:	7863      	ldrb	r3, [r4, #1]
20000b32:	7053      	strb	r3, [r2, #1]
20000b34:	2f01      	cmp	r7, #1
20000b36:	d001      	beq.n	20000b3c <sync_ep_buffer+0x88>
20000b38:	78a3      	ldrb	r3, [r4, #2]
20000b3a:	7093      	strb	r3, [r2, #2]
20000b3c:	692a      	ldr	r2, [r5, #16]
20000b3e:	8aeb      	ldrh	r3, [r5, #22]
20000b40:	1812      	adds	r2, r2, r0
20000b42:	18c3      	adds	r3, r0, r3
20000b44:	82eb      	strh	r3, [r5, #22]
20000b46:	612a      	str	r2, [r5, #16]
20000b48:	e7c3      	b.n	20000ad2 <sync_ep_buffer+0x1e>
20000b4a:	2300      	movs	r3, #0
20000b4c:	5ce1      	ldrb	r1, [r4, r3]
20000b4e:	54d1      	strb	r1, [r2, r3]
20000b50:	3301      	adds	r3, #1
20000b52:	4298      	cmp	r0, r3
20000b54:	d1fa      	bne.n	20000b4c <sync_ep_buffer+0x98>
20000b56:	692a      	ldr	r2, [r5, #16]
20000b58:	e7f1      	b.n	20000b3e <sync_ep_buffer+0x8a>
20000b5a:	46c0      	nop			@ (mov r8, r8)

20000b5c <_hw_endpoint_xfer_sync>:
20000b5c:	b510      	push	{r4, lr}
20000b5e:	0004      	movs	r4, r0
20000b60:	6883      	ldr	r3, [r0, #8]
20000b62:	2100      	movs	r1, #0
20000b64:	681b      	ldr	r3, [r3, #0]
20000b66:	f7ff ffa5 	bl	20000ab4 <sync_ep_buffer>
20000b6a:	6863      	ldr	r3, [r4, #4]
20000b6c:	681b      	ldr	r3, [r3, #0]
20000b6e:	005b      	lsls	r3, r3, #1
20000b70:	d502      	bpl.n	20000b78 <_hw_endpoint_xfer_sync+0x1c>
20000b72:	8b23      	ldrh	r3, [r4, #24]
20000b74:	4283      	cmp	r3, r0
20000b76:	d000      	beq.n	20000b7a <_hw_endpoint_xfer_sync+0x1e>
20000b78:	bd10      	pop	{r4, pc}
20000b7a:	2101      	movs	r1, #1
20000b7c:	0020      	movs	r0, r4
20000b7e:	f7ff ff99 	bl	20000ab4 <sync_ep_buffer>
20000b82:	e7f9      	b.n	20000b78 <_hw_endpoint_xfer_sync+0x1c>

20000b84 <e15_is_bulkin_ep>:
20000b84:	4a08      	ldr	r2, [pc, #32]	@ (20000ba8 <e15_is_bulkin_ep+0x24>)
20000b86:	0003      	movs	r3, r0
20000b88:	6c12      	ldr	r2, [r2, #64]	@ 0x40
20000b8a:	2000      	movs	r0, #0
20000b8c:	0792      	lsls	r2, r2, #30
20000b8e:	d403      	bmi.n	20000b98 <e15_is_bulkin_ep+0x14>
20000b90:	789a      	ldrb	r2, [r3, #2]
20000b92:	09d2      	lsrs	r2, r2, #7
20000b94:	2a01      	cmp	r2, #1
20000b96:	d000      	beq.n	20000b9a <e15_is_bulkin_ep+0x16>
20000b98:	4770      	bx	lr
20000b9a:	7ed8      	ldrb	r0, [r3, #27]
20000b9c:	3802      	subs	r0, #2
20000b9e:	4243      	negs	r3, r0
20000ba0:	4158      	adcs	r0, r3
20000ba2:	b2c0      	uxtb	r0, r0
20000ba4:	e7f8      	b.n	20000b98 <e15_is_bulkin_ep+0x14>
20000ba6:	46c0      	nop			@ (mov r8, r8)
20000ba8:	50110000 	.word	0x50110000

20000bac <e15_is_critical_frame_period>:
20000bac:	b510      	push	{r4, lr}
20000bae:	f7ff ffe9 	bl	20000b84 <e15_is_bulkin_ep>
20000bb2:	2800      	cmp	r0, #0
20000bb4:	d00c      	beq.n	20000bd0 <e15_is_critical_frame_period+0x24>
20000bb6:	4907      	ldr	r1, [pc, #28]	@ (20000bd4 <e15_is_critical_frame_period+0x28>)
20000bb8:	4b07      	ldr	r3, [pc, #28]	@ (20000bd8 <e15_is_critical_frame_period+0x2c>)
20000bba:	468c      	mov	ip, r1
20000bbc:	4a07      	ldr	r2, [pc, #28]	@ (20000bdc <e15_is_critical_frame_period+0x30>)
20000bbe:	6a9b      	ldr	r3, [r3, #40]	@ 0x28
20000bc0:	6812      	ldr	r2, [r2, #0]
20000bc2:	4463      	add	r3, ip
20000bc4:	1a9b      	subs	r3, r3, r2
20000bc6:	2000      	movs	r0, #0
20000bc8:	22c6      	movs	r2, #198	@ 0xc6
20000bca:	429a      	cmp	r2, r3
20000bcc:	4140      	adcs	r0, r0
20000bce:	b2c0      	uxtb	r0, r0
20000bd0:	bd10      	pop	{r4, pc}
20000bd2:	46c0      	nop			@ (mov r8, r8)
20000bd4:	fffffce0 	.word	0xfffffce0
20000bd8:	40054000 	.word	0x40054000
20000bdc:	20001c80 	.word	0x20001c80

20000be0 <hw_endpoint_reset_transfer>:
20000be0:	2300      	movs	r3, #0
20000be2:	7683      	strb	r3, [r0, #26]
20000be4:	6143      	str	r3, [r0, #20]
20000be6:	6103      	str	r3, [r0, #16]
20000be8:	4770      	bx	lr
20000bea:	46c0      	nop			@ (mov r8, r8)

20000bec <_hw_endpoint_buffer_control_update32>:
20000bec:	b510      	push	{r4, lr}
20000bee:	6883      	ldr	r3, [r0, #8]
20000bf0:	2900      	cmp	r1, #0
20000bf2:	d001      	beq.n	20000bf8 <_hw_endpoint_buffer_control_update32+0xc>
20000bf4:	681c      	ldr	r4, [r3, #0]
20000bf6:	4021      	ands	r1, r4
20000bf8:	2a00      	cmp	r2, #0
20000bfa:	d012      	beq.n	20000c22 <_hw_endpoint_buffer_control_update32+0x36>
20000bfc:	2480      	movs	r4, #128	@ 0x80
20000bfe:	00e4      	lsls	r4, r4, #3
20000c00:	4311      	orrs	r1, r2
20000c02:	4222      	tst	r2, r4
20000c04:	d00d      	beq.n	20000c22 <_hw_endpoint_buffer_control_update32+0x36>
20000c06:	681a      	ldr	r2, [r3, #0]
20000c08:	4222      	tst	r2, r4
20000c0a:	d10c      	bne.n	20000c26 <_hw_endpoint_buffer_control_update32+0x3a>
20000c0c:	4a08      	ldr	r2, [pc, #32]	@ (20000c30 <_hw_endpoint_buffer_control_update32+0x44>)
20000c0e:	400a      	ands	r2, r1
20000c10:	601a      	str	r2, [r3, #0]
20000c12:	4a08      	ldr	r2, [pc, #32]	@ (20000c34 <_hw_endpoint_buffer_control_update32+0x48>)
20000c14:	6c12      	ldr	r2, [r2, #64]	@ 0x40
20000c16:	0792      	lsls	r2, r2, #30
20000c18:	d403      	bmi.n	20000c22 <_hw_endpoint_buffer_control_update32+0x36>
20000c1a:	230c      	movs	r3, #12
20000c1c:	3b03      	subs	r3, #3
20000c1e:	d2fd      	bcs.n	20000c1c <_hw_endpoint_buffer_control_update32+0x30>
20000c20:	6883      	ldr	r3, [r0, #8]
20000c22:	6019      	str	r1, [r3, #0]
20000c24:	bd10      	pop	{r4, pc}
20000c26:	7881      	ldrb	r1, [r0, #2]
20000c28:	4803      	ldr	r0, [pc, #12]	@ (20000c38 <_hw_endpoint_buffer_control_update32+0x4c>)
20000c2a:	f000 f951 	bl	20000ed0 <__panic_veneer>
20000c2e:	46c0      	nop			@ (mov r8, r8)
20000c30:	fffffbff 	.word	0xfffffbff
20000c34:	50110000 	.word	0x50110000
20000c38:	10005b50 	.word	0x10005b50

20000c3c <hw_endpoint_start_next_buffer>:
20000c3c:	6843      	ldr	r3, [r0, #4]
20000c3e:	b570      	push	{r4, r5, r6, lr}
20000c40:	2100      	movs	r1, #0
20000c42:	2580      	movs	r5, #128	@ 0x80
20000c44:	681e      	ldr	r6, [r3, #0]
20000c46:	0004      	movs	r4, r0
20000c48:	f7ff fec4 	bl	200009d4 <prepare_ep_buffer>
20000c4c:	4b13      	ldr	r3, [pc, #76]	@ (20000c9c <hw_endpoint_start_next_buffer+0x60>)
20000c4e:	016d      	lsls	r5, r5, #5
20000c50:	6c1b      	ldr	r3, [r3, #64]	@ 0x40
20000c52:	4305      	orrs	r5, r0
20000c54:	079b      	lsls	r3, r3, #30
20000c56:	d50f      	bpl.n	20000c78 <hw_endpoint_start_next_buffer+0x3c>
20000c58:	78a3      	ldrb	r3, [r4, #2]
20000c5a:	065b      	lsls	r3, r3, #25
20000c5c:	d00f      	beq.n	20000c7e <hw_endpoint_start_next_buffer+0x42>
20000c5e:	4b10      	ldr	r3, [pc, #64]	@ (20000ca0 <hw_endpoint_start_next_buffer+0x64>)
20000c60:	401e      	ands	r6, r3
20000c62:	2380      	movs	r3, #128	@ 0x80
20000c64:	059b      	lsls	r3, r3, #22
20000c66:	4333      	orrs	r3, r6
20000c68:	6862      	ldr	r2, [r4, #4]
20000c6a:	2100      	movs	r1, #0
20000c6c:	6013      	str	r3, [r2, #0]
20000c6e:	0020      	movs	r0, r4
20000c70:	002a      	movs	r2, r5
20000c72:	f7ff ffbb 	bl	20000bec <_hw_endpoint_buffer_control_update32>
20000c76:	bd70      	pop	{r4, r5, r6, pc}
20000c78:	78a3      	ldrb	r3, [r4, #2]
20000c7a:	09db      	lsrs	r3, r3, #7
20000c7c:	d0ef      	beq.n	20000c5e <hw_endpoint_start_next_buffer+0x22>
20000c7e:	8aa3      	ldrh	r3, [r4, #20]
20000c80:	2b00      	cmp	r3, #0
20000c82:	d0ec      	beq.n	20000c5e <hw_endpoint_start_next_buffer+0x22>
20000c84:	2101      	movs	r1, #1
20000c86:	0020      	movs	r0, r4
20000c88:	f7ff fea4 	bl	200009d4 <prepare_ep_buffer>
20000c8c:	23a0      	movs	r3, #160	@ 0xa0
20000c8e:	4a05      	ldr	r2, [pc, #20]	@ (20000ca4 <hw_endpoint_start_next_buffer+0x68>)
20000c90:	05db      	lsls	r3, r3, #23
20000c92:	4032      	ands	r2, r6
20000c94:	4305      	orrs	r5, r0
20000c96:	4313      	orrs	r3, r2
20000c98:	e7e6      	b.n	20000c68 <hw_endpoint_start_next_buffer+0x2c>
20000c9a:	46c0      	nop			@ (mov r8, r8)
20000c9c:	50110000 	.word	0x50110000
20000ca0:	afffffff 	.word	0xafffffff
20000ca4:	dfffffff 	.word	0xdfffffff

20000ca8 <hw_endpoint_xfer_continue>:
20000ca8:	b570      	push	{r4, r5, r6, lr}
20000caa:	7e85      	ldrb	r5, [r0, #26]
20000cac:	0004      	movs	r4, r0
20000cae:	2d00      	cmp	r5, #0
20000cb0:	d014      	beq.n	20000cdc <hw_endpoint_xfer_continue+0x34>
20000cb2:	f7ff ff53 	bl	20000b5c <_hw_endpoint_xfer_sync>
20000cb6:	8aa3      	ldrh	r3, [r4, #20]
20000cb8:	2b00      	cmp	r3, #0
20000cba:	d101      	bne.n	20000cc0 <hw_endpoint_xfer_continue+0x18>
20000cbc:	0028      	movs	r0, r5
20000cbe:	bd70      	pop	{r4, r5, r6, pc}
20000cc0:	0020      	movs	r0, r4
20000cc2:	f7ff ff73 	bl	20000bac <e15_is_critical_frame_period>
20000cc6:	2800      	cmp	r0, #0
20000cc8:	d003      	beq.n	20000cd2 <hw_endpoint_xfer_continue+0x2a>
20000cca:	2301      	movs	r3, #1
20000ccc:	2500      	movs	r5, #0
20000cce:	7723      	strb	r3, [r4, #28]
20000cd0:	e7f4      	b.n	20000cbc <hw_endpoint_xfer_continue+0x14>
20000cd2:	0020      	movs	r0, r4
20000cd4:	f7ff ffb2 	bl	20000c3c <hw_endpoint_start_next_buffer>
20000cd8:	2500      	movs	r5, #0
20000cda:	e7ef      	b.n	20000cbc <hw_endpoint_xfer_continue+0x14>
20000cdc:	7881      	ldrb	r1, [r0, #2]
20000cde:	4801      	ldr	r0, [pc, #4]	@ (20000ce4 <hw_endpoint_xfer_continue+0x3c>)
20000ce0:	f000 f8f6 	bl	20000ed0 <__panic_veneer>
20000ce4:	10005b70 	.word	0x10005b70

20000ce8 <dcd_event_handler>:
20000ce8:	b5f0      	push	{r4, r5, r6, r7, lr}
20000cea:	46ce      	mov	lr, r9
20000cec:	4647      	mov	r7, r8
20000cee:	b580      	push	{r7, lr}
20000cf0:	7843      	ldrb	r3, [r0, #1]
20000cf2:	0005      	movs	r5, r0
20000cf4:	000e      	movs	r6, r1
20000cf6:	b085      	sub	sp, #20
20000cf8:	2b06      	cmp	r3, #6
20000cfa:	d808      	bhi.n	20000d0e <dcd_event_handler+0x26>
20000cfc:	4a6c      	ldr	r2, [pc, #432]	@ (20000eb0 <dcd_event_handler+0x1c8>)
20000cfe:	009b      	lsls	r3, r3, #2
20000d00:	58d3      	ldr	r3, [r2, r3]
20000d02:	469f      	mov	pc, r3
20000d04:	4a6b      	ldr	r2, [pc, #428]	@ (20000eb4 <dcd_event_handler+0x1cc>)
20000d06:	7813      	ldrb	r3, [r2, #0]
20000d08:	3301      	adds	r3, #1
20000d0a:	b2db      	uxtb	r3, r3
20000d0c:	7013      	strb	r3, [r2, #0]
20000d0e:	4b6a      	ldr	r3, [pc, #424]	@ (20000eb8 <dcd_event_handler+0x1d0>)
20000d10:	681c      	ldr	r4, [r3, #0]
20000d12:	6962      	ldr	r2, [r4, #20]
20000d14:	f3ef 8110 	mrs	r1, PRIMASK
20000d18:	b672      	cpsid	i
20000d1a:	6813      	ldr	r3, [r2, #0]
20000d1c:	2b00      	cmp	r3, #0
20000d1e:	d0fc      	beq.n	20000d1a <dcd_event_handler+0x32>
20000d20:	f3bf 8f5f 	dmb	sy
20000d24:	61a1      	str	r1, [r4, #24]
20000d26:	0020      	movs	r0, r4
20000d28:	0029      	movs	r1, r5
20000d2a:	f000 f8f9 	bl	20000f20 <__tu_fifo_write_veneer>
20000d2e:	6962      	ldr	r2, [r4, #20]
20000d30:	69a3      	ldr	r3, [r4, #24]
20000d32:	f3bf 8f5f 	dmb	sy
20000d36:	2100      	movs	r1, #0
20000d38:	6011      	str	r1, [r2, #0]
20000d3a:	f383 8810 	msr	PRIMASK, r3
20000d3e:	2800      	cmp	r0, #0
20000d40:	d104      	bne.n	20000d4c <dcd_event_handler+0x64>
20000d42:	b005      	add	sp, #20
20000d44:	bcc0      	pop	{r6, r7}
20000d46:	46b9      	mov	r9, r7
20000d48:	46b0      	mov	r8, r6
20000d4a:	bdf0      	pop	{r4, r5, r6, r7, pc}
20000d4c:	0032      	movs	r2, r6
20000d4e:	7869      	ldrb	r1, [r5, #1]
20000d50:	7828      	ldrb	r0, [r5, #0]
20000d52:	f000 f8ed 	bl	20000f30 <__tud_event_hook_cb_veneer>
20000d56:	e7f4      	b.n	20000d42 <dcd_event_handler+0x5a>
20000d58:	2101      	movs	r1, #1
20000d5a:	4b58      	ldr	r3, [pc, #352]	@ (20000ebc <dcd_event_handler+0x1d4>)
20000d5c:	781a      	ldrb	r2, [r3, #0]
20000d5e:	438a      	bics	r2, r1
20000d60:	701a      	strb	r2, [r3, #0]
20000d62:	781a      	ldrb	r2, [r3, #0]
20000d64:	3101      	adds	r1, #1
20000d66:	438a      	bics	r2, r1
20000d68:	701a      	strb	r2, [r3, #0]
20000d6a:	2200      	movs	r2, #0
20000d6c:	705a      	strb	r2, [r3, #1]
20000d6e:	781a      	ldrb	r2, [r3, #0]
20000d70:	3102      	adds	r1, #2
20000d72:	438a      	bics	r2, r1
20000d74:	701a      	strb	r2, [r3, #0]
20000d76:	e7ca      	b.n	20000d0e <dcd_event_handler+0x26>
20000d78:	4951      	ldr	r1, [pc, #324]	@ (20000ec0 <dcd_event_handler+0x1d8>)
20000d7a:	4f52      	ldr	r7, [pc, #328]	@ (20000ec4 <dcd_event_handler+0x1dc>)
20000d7c:	4689      	mov	r9, r1
20000d7e:	4952      	ldr	r1, [pc, #328]	@ (20000ec8 <dcd_event_handler+0x1e0>)
20000d80:	2400      	movs	r4, #0
20000d82:	2300      	movs	r3, #0
20000d84:	4688      	mov	r8, r1
20000d86:	783a      	ldrb	r2, [r7, #0]
20000d88:	e012      	b.n	20000db0 <dcd_event_handler+0xc8>
20000d8a:	4643      	mov	r3, r8
20000d8c:	681b      	ldr	r3, [r3, #0]
20000d8e:	0161      	lsls	r1, r4, #5
20000d90:	185b      	adds	r3, r3, r1
20000d92:	2b00      	cmp	r3, #0
20000d94:	d006      	beq.n	20000da4 <dcd_event_handler+0xbc>
20000d96:	69db      	ldr	r3, [r3, #28]
20000d98:	2b00      	cmp	r3, #0
20000d9a:	d003      	beq.n	20000da4 <dcd_event_handler+0xbc>
20000d9c:	6869      	ldr	r1, [r5, #4]
20000d9e:	7828      	ldrb	r0, [r5, #0]
20000da0:	4798      	blx	r3
20000da2:	783a      	ldrb	r2, [r7, #0]
20000da4:	3401      	adds	r4, #1
20000da6:	b2e4      	uxtb	r4, r4
20000da8:	1c51      	adds	r1, r2, #1
20000daa:	0023      	movs	r3, r4
20000dac:	42a1      	cmp	r1, r4
20000dae:	db17      	blt.n	20000de0 <dcd_event_handler+0xf8>
20000db0:	42a2      	cmp	r2, r4
20000db2:	d8ea      	bhi.n	20000d8a <dcd_event_handler+0xa2>
20000db4:	1a9b      	subs	r3, r3, r2
20000db6:	015b      	lsls	r3, r3, #5
20000db8:	444b      	add	r3, r9
20000dba:	e7ec      	b.n	20000d96 <dcd_event_handler+0xae>
20000dbc:	4b3f      	ldr	r3, [pc, #252]	@ (20000ebc <dcd_event_handler+0x1d4>)
20000dbe:	781a      	ldrb	r2, [r3, #0]
20000dc0:	07d2      	lsls	r2, r2, #31
20000dc2:	d5be      	bpl.n	20000d42 <dcd_event_handler+0x5a>
20000dc4:	2104      	movs	r1, #4
20000dc6:	781a      	ldrb	r2, [r3, #0]
20000dc8:	430a      	orrs	r2, r1
20000dca:	701a      	strb	r2, [r3, #0]
20000dcc:	e79f      	b.n	20000d0e <dcd_event_handler+0x26>
20000dce:	4b3b      	ldr	r3, [pc, #236]	@ (20000ebc <dcd_event_handler+0x1d4>)
20000dd0:	781a      	ldrb	r2, [r3, #0]
20000dd2:	07d2      	lsls	r2, r2, #31
20000dd4:	d5b5      	bpl.n	20000d42 <dcd_event_handler+0x5a>
20000dd6:	2104      	movs	r1, #4
20000dd8:	781a      	ldrb	r2, [r3, #0]
20000dda:	438a      	bics	r2, r1
20000ddc:	701a      	strb	r2, [r3, #0]
20000dde:	e796      	b.n	20000d0e <dcd_event_handler+0x26>
20000de0:	4f36      	ldr	r7, [pc, #216]	@ (20000ebc <dcd_event_handler+0x1d4>)
20000de2:	783b      	ldrb	r3, [r7, #0]
20000de4:	075b      	lsls	r3, r3, #29
20000de6:	d52b      	bpl.n	20000e40 <dcd_event_handler+0x158>
20000de8:	2204      	movs	r2, #4
20000dea:	783b      	ldrb	r3, [r7, #0]
20000dec:	2100      	movs	r1, #0
20000dee:	4393      	bics	r3, r2
20000df0:	703b      	strb	r3, [r7, #0]
20000df2:	466b      	mov	r3, sp
20000df4:	3206      	adds	r2, #6
20000df6:	1d98      	adds	r0, r3, #6
20000df8:	f000 f882 	bl	20000f00 <____wrap_memset_veneer>
20000dfc:	782b      	ldrb	r3, [r5, #0]
20000dfe:	ac01      	add	r4, sp, #4
20000e00:	7023      	strb	r3, [r4, #0]
20000e02:	2305      	movs	r3, #5
20000e04:	7063      	strb	r3, [r4, #1]
20000e06:	4b2c      	ldr	r3, [pc, #176]	@ (20000eb8 <dcd_event_handler+0x1d0>)
20000e08:	681b      	ldr	r3, [r3, #0]
20000e0a:	4698      	mov	r8, r3
20000e0c:	695a      	ldr	r2, [r3, #20]
20000e0e:	f3ef 8110 	mrs	r1, PRIMASK
20000e12:	b672      	cpsid	i
20000e14:	6813      	ldr	r3, [r2, #0]
20000e16:	2b00      	cmp	r3, #0
20000e18:	d0fc      	beq.n	20000e14 <dcd_event_handler+0x12c>
20000e1a:	f3bf 8f5f 	dmb	sy
20000e1e:	4643      	mov	r3, r8
20000e20:	4640      	mov	r0, r8
20000e22:	6199      	str	r1, [r3, #24]
20000e24:	0021      	movs	r1, r4
20000e26:	f000 f87b 	bl	20000f20 <__tu_fifo_write_veneer>
20000e2a:	4643      	mov	r3, r8
20000e2c:	695a      	ldr	r2, [r3, #20]
20000e2e:	699b      	ldr	r3, [r3, #24]
20000e30:	f3bf 8f5f 	dmb	sy
20000e34:	2100      	movs	r1, #0
20000e36:	6011      	str	r1, [r2, #0]
20000e38:	f383 8810 	msr	PRIMASK, r3
20000e3c:	2800      	cmp	r0, #0
20000e3e:	d131      	bne.n	20000ea4 <dcd_event_handler+0x1bc>
20000e40:	78fb      	ldrb	r3, [r7, #3]
20000e42:	07db      	lsls	r3, r3, #31
20000e44:	d400      	bmi.n	20000e48 <dcd_event_handler+0x160>
20000e46:	e77c      	b.n	20000d42 <dcd_event_handler+0x5a>
20000e48:	466b      	mov	r3, sp
20000e4a:	220a      	movs	r2, #10
20000e4c:	2100      	movs	r1, #0
20000e4e:	1d98      	adds	r0, r3, #6
20000e50:	f000 f856 	bl	20000f00 <____wrap_memset_veneer>
20000e54:	782b      	ldrb	r3, [r5, #0]
20000e56:	ac01      	add	r4, sp, #4
20000e58:	7023      	strb	r3, [r4, #0]
20000e5a:	2303      	movs	r3, #3
20000e5c:	7063      	strb	r3, [r4, #1]
20000e5e:	686b      	ldr	r3, [r5, #4]
20000e60:	6063      	str	r3, [r4, #4]
20000e62:	4b15      	ldr	r3, [pc, #84]	@ (20000eb8 <dcd_event_handler+0x1d0>)
20000e64:	681d      	ldr	r5, [r3, #0]
20000e66:	696a      	ldr	r2, [r5, #20]
20000e68:	f3ef 8110 	mrs	r1, PRIMASK
20000e6c:	b672      	cpsid	i
20000e6e:	6813      	ldr	r3, [r2, #0]
20000e70:	2b00      	cmp	r3, #0
20000e72:	d0fc      	beq.n	20000e6e <dcd_event_handler+0x186>
20000e74:	f3bf 8f5f 	dmb	sy
20000e78:	61a9      	str	r1, [r5, #24]
20000e7a:	0028      	movs	r0, r5
20000e7c:	0021      	movs	r1, r4
20000e7e:	f000 f84f 	bl	20000f20 <__tu_fifo_write_veneer>
20000e82:	696a      	ldr	r2, [r5, #20]
20000e84:	69ab      	ldr	r3, [r5, #24]
20000e86:	f3bf 8f5f 	dmb	sy
20000e8a:	2100      	movs	r1, #0
20000e8c:	6011      	str	r1, [r2, #0]
20000e8e:	f383 8810 	msr	PRIMASK, r3
20000e92:	2800      	cmp	r0, #0
20000e94:	d100      	bne.n	20000e98 <dcd_event_handler+0x1b0>
20000e96:	e754      	b.n	20000d42 <dcd_event_handler+0x5a>
20000e98:	0032      	movs	r2, r6
20000e9a:	7861      	ldrb	r1, [r4, #1]
20000e9c:	7820      	ldrb	r0, [r4, #0]
20000e9e:	f000 f847 	bl	20000f30 <__tud_event_hook_cb_veneer>
20000ea2:	e74e      	b.n	20000d42 <dcd_event_handler+0x5a>
20000ea4:	0032      	movs	r2, r6
20000ea6:	7861      	ldrb	r1, [r4, #1]
20000ea8:	7820      	ldrb	r0, [r4, #0]
20000eaa:	f000 f841 	bl	20000f30 <__tud_event_hook_cb_veneer>
20000eae:	e7c7      	b.n	20000e40 <dcd_event_handler+0x158>
20000eb0:	10005df4 	.word	0x10005df4
20000eb4:	200223da 	.word	0x200223da
20000eb8:	2000178c 	.word	0x2000178c
20000ebc:	20001734 	.word	0x20001734
20000ec0:	10005e10 	.word	0x10005e10
20000ec4:	200223d8 	.word	0x200223d8
20000ec8:	20001588 	.word	0x20001588

20000ecc <__aeabi_idiv0>:
20000ecc:	4770      	bx	lr
20000ece:	46c0      	nop			@ (mov r8, r8)

20000ed0 <__panic_veneer>:
20000ed0:	b401      	push	{r0}
20000ed2:	4802      	ldr	r0, [pc, #8]	@ (20000edc <__panic_veneer+0xc>)
20000ed4:	4684      	mov	ip, r0
20000ed6:	bc01      	pop	{r0}
20000ed8:	4760      	bx	ip
20000eda:	bf00      	nop
20000edc:	10000451 	.word	0x10000451

20000ee0 <__xPortLockInternalSpinUnlockWithBestEffortWaitOrTimeout_veneer>:
20000ee0:	b401      	push	{r0}
20000ee2:	4802      	ldr	r0, [pc, #8]	@ (20000eec <__xPortLockInternalSpinUnlockWithBestEffortWaitOrTimeout_veneer+0xc>)
20000ee4:	4684      	mov	ip, r0
20000ee6:	bc01      	pop	{r0}
20000ee8:	4760      	bx	ip
20000eea:	bf00      	nop
20000eec:	10004c91 	.word	0x10004c91

20000ef0 <__ulPortLockGetCurrentOwnerId_veneer>:
20000ef0:	b401      	push	{r0}
20000ef2:	4802      	ldr	r0, [pc, #8]	@ (20000efc <__ulPortLockGetCurrentOwnerId_veneer+0xc>)
20000ef4:	4684      	mov	ip, r0
20000ef6:	bc01      	pop	{r0}
20000ef8:	4760      	bx	ip
20000efa:	bf00      	nop
20000efc:	10004b29 	.word	0x10004b29

20000f00 <____wrap_memset_veneer>:
20000f00:	b401      	push	{r0}
20000f02:	4802      	ldr	r0, [pc, #8]	@ (20000f0c <____wrap_memset_veneer+0xc>)
20000f04:	4684      	mov	ip, r0
20000f06:	bc01      	pop	{r0}
20000f08:	4760      	bx	ip
20000f0a:	bf00      	nop
20000f0c:	10001e39 	.word	0x10001e39

20000f10 <__time_us_64_veneer>:
20000f10:	b401      	push	{r0}
20000f12:	4802      	ldr	r0, [pc, #8]	@ (20000f1c <__time_us_64_veneer+0xc>)
20000f14:	4684      	mov	ip, r0
20000f16:	bc01      	pop	{r0}
20000f18:	4760      	bx	ip
20000f1a:	bf00      	nop
20000f1c:	10001245 	.word	0x10001245

20000f20 <__tu_fifo_write_veneer>:
20000f20:	b401      	push	{r0}
20000f22:	4802      	ldr	r0, [pc, #8]	@ (20000f2c <__tu_fifo_write_veneer+0xc>)
20000f24:	4684      	mov	ip, r0
20000f26:	bc01      	pop	{r0}
20000f28:	4760      	bx	ip
20000f2a:	bf00      	nop
20000f2c:	10004701 	.word	0x10004701

20000f30 <__tud_event_hook_cb_veneer>:
20000f30:	b401      	push	{r0}
20000f32:	4802      	ldr	r0, [pc, #8]	@ (20000f3c <__tud_event_hook_cb_veneer+0xc>)
20000f34:	4684      	mov	ip, r0
20000f36:	bc01      	pop	{r0}
20000f38:	4760      	bx	ip
20000f3a:	bf00      	nop
20000f3c:	10002c31 	.word	0x10002c31

20000f40 <__rp2040_chip_version_veneer>:
20000f40:	b401      	push	{r0}
20000f42:	4802      	ldr	r0, [pc, #8]	@ (20000f4c <__rp2040_chip_version_veneer+0xc>)
20000f44:	4684      	mov	ip, r0
20000f46:	bc01      	pop	{r0}
20000f48:	4760      	bx	ip
20000f4a:	bf00      	nop
20000f4c:	10000445 	.word	0x10000445

20000f50 <__vPortLockInternalSpinUnlockWithNotify_veneer>:
20000f50:	b401      	push	{r0}
20000f52:	4802      	ldr	r0, [pc, #8]	@ (20000f5c <__vPortLockInternalSpinUnlockWithNotify_veneer+0xc>)
20000f54:	4684      	mov	ip, r0
20000f56:	bc01      	pop	{r0}
20000f58:	4760      	bx	ip
20000f5a:	bf00      	nop
20000f5c:	10004bbd 	.word	0x10004bbd

20000f60 <____wrap___aeabi_lmul_veneer>:
20000f60:	b401      	push	{r0}
20000f62:	4802      	ldr	r0, [pc, #8]	@ (20000f6c <____wrap___aeabi_lmul_veneer+0xc>)
20000f64:	4684      	mov	ip, r0
20000f66:	bc01      	pop	{r0}
20000f68:	4760      	bx	ip
20000f6a:	bf00      	nop
20000f6c:	10001d65 	.word	0x10001d65

20000f70 <striped_spin_lock_num>:
20000f70:	00000010                                ....

20000f74 <irq_handler_chain_slots>:
20000f74:	00000000 	.word	0x00000000
20000f78:	00010000 	.word	0x00010000
	...
20000f84:	00020000 	.word	0x00020000
	...
20000f90:	00030000 	.word	0x00030000
	...
20000f9c:	00ff0000 	.word	0x00ff0000
20000fa0:	00000000 	.word	0x00000000

20000fa4 <irq_handler_chain_first_slot>:
20000fa4:	b501      	push	{r0, lr}
20000fa6:	6848      	ldr	r0, [r1, #4]
20000fa8:	3101      	adds	r1, #1
20000faa:	468e      	mov	lr, r1
20000fac:	4700      	bx	r0

20000fae <irq_handler_chain_remove_tail>:
20000fae:	4670      	mov	r0, lr
20000fb0:	3809      	subs	r0, #9
20000fb2:	4901      	ldr	r1, [pc, #4]	@ (20000fb8 <irq_handler_chain_remove_tail+0xa>)
20000fb4:	4788      	blx	r1
20000fb6:	bd01      	pop	{r0, pc}
20000fb8:	10000895 	.word	0x10000895

20000fbc <default_alarm_pool>:
	...
20000fd0:	20001050 00000000 00000000 00000000     P.. ............

20000fe0 <aeabi_bits_funcs>:
20000fe0:	00003350 	.word	0x00003350
20000fe4:	0000334c 	.word	0x0000334c
20000fe8:	00003354 	.word	0x00003354
20000fec:	00003352 	.word	0x00003352

20000ff0 <aeabi_bits_funcs_end>:
20000ff0:	0000534d 	.word	0x0000534d
20000ff4:	0000434d 	.word	0x0000434d
20000ff8:	00003453 	.word	0x00003453
20000ffc:	00003443 	.word	0x00003443

20001000 <stdio_usb>:
20001000:	100023ed 1000239d 1000230d 10002285     .#...#...#..."..
20001010:	00000000 00000100                       ........

20001018 <_usbd_qdef>:
20001018:	20001790 000c0010 00000000 00000000     ... ............
	...

20001034 <_usbd_rhport>:
20001034:	000000ff                                ....

20001038 <_cdcd_cfg>:
20001038:	                                         .

20001039 <ucPrimaryCoreNum>:
20001039:	                                         ...

2000103c <malloc_mutex>:
	...

20001044 <print_mutex>:
	...
